
RTOS-OLED-Xplained-Pro.elf:     file format elf32-littlearm

Sections:
Idx Name          Size      VMA       LMA       File off  Algn
  0 .text         0000a204  00400000  00400000  00010000  2**6
                  CONTENTS, ALLOC, LOAD, READONLY, CODE
  1 .ARM.exidx    00000008  0040a204  0040a204  0001a204  2**2
                  CONTENTS, ALLOC, LOAD, READONLY, DATA
  2 .relocate     000009d0  20400000  0040a20c  00020000  2**3
                  CONTENTS, ALLOC, LOAD, CODE
  3 .bss          00000490  204009d0  0040abdc  000209d0  2**2
                  ALLOC
  4 .stack        00002000  20400e60  0040b06c  000209d0  2**0
                  ALLOC
  5 .heap         00000200  20402e60  0040d06c  000209d0  2**0
                  ALLOC
  6 .ARM.attributes 0000002e  00000000  00000000  000209d0  2**0
                  CONTENTS, READONLY
  7 .comment      00000059  00000000  00000000  000209fe  2**0
                  CONTENTS, READONLY
  8 .debug_info   00026d14  00000000  00000000  00020a57  2**0
                  CONTENTS, READONLY, DEBUGGING
  9 .debug_abbrev 00005465  00000000  00000000  0004776b  2**0
                  CONTENTS, READONLY, DEBUGGING
 10 .debug_loc    0000b377  00000000  00000000  0004cbd0  2**0
                  CONTENTS, READONLY, DEBUGGING
 11 .debug_aranges 000010a8  00000000  00000000  00057f47  2**0
                  CONTENTS, READONLY, DEBUGGING
 12 .debug_ranges 000011f8  00000000  00000000  00058fef  2**0
                  CONTENTS, READONLY, DEBUGGING
 13 .debug_macro  000269ec  00000000  00000000  0005a1e7  2**0
                  CONTENTS, READONLY, DEBUGGING
 14 .debug_line   00017cc0  00000000  00000000  00080bd3  2**0
                  CONTENTS, READONLY, DEBUGGING
 15 .debug_str    00096670  00000000  00000000  00098893  2**0
                  CONTENTS, READONLY, DEBUGGING
 16 .debug_frame  00003b60  00000000  00000000  0012ef04  2**2
                  CONTENTS, READONLY, DEBUGGING

Disassembly of section .text:

00400000 <exception_table>:
  400000:	60 2e 40 20 dd 10 40 00 db 10 40 00 db 10 40 00     `.@ ..@...@...@.
  400010:	db 10 40 00 db 10 40 00 db 10 40 00 00 00 00 00     ..@...@...@.....
	...
  40002c:	b5 14 40 00 db 10 40 00 00 00 00 00 55 15 40 00     ..@...@.....U.@.
  40003c:	bd 15 40 00 db 10 40 00 db 10 40 00 db 10 40 00     ..@...@...@...@.
  40004c:	1d 34 40 00 db 10 40 00 db 10 40 00 db 10 40 00     .4@...@...@...@.
  40005c:	db 10 40 00 db 10 40 00 00 00 00 00 cd 0d 40 00     ..@...@.......@.
  40006c:	e1 0d 40 00 f5 0d 40 00 db 10 40 00 db 10 40 00     ..@...@...@...@.
  40007c:	db 10 40 00 09 0e 40 00 1d 0e 40 00 db 10 40 00     ..@...@...@...@.
  40008c:	db 10 40 00 db 10 40 00 db 10 40 00 db 10 40 00     ..@...@...@...@.
  40009c:	db 10 40 00 db 10 40 00 db 10 40 00 db 10 40 00     ..@...@...@...@.
  4000ac:	db 10 40 00 db 10 40 00 db 10 40 00 db 10 40 00     ..@...@...@...@.
  4000bc:	db 10 40 00 db 10 40 00 db 10 40 00 db 10 40 00     ..@...@...@...@.
  4000cc:	db 10 40 00 00 00 00 00 db 10 40 00 00 00 00 00     ..@.......@.....
  4000dc:	db 10 40 00 db 10 40 00 db 10 40 00 db 10 40 00     ..@...@...@...@.
  4000ec:	db 10 40 00 db 10 40 00 db 10 40 00 db 10 40 00     ..@...@...@...@.
  4000fc:	db 10 40 00 db 10 40 00 db 10 40 00 db 10 40 00     ..@...@...@...@.
  40010c:	db 10 40 00 db 10 40 00 00 00 00 00 00 00 00 00     ..@...@.........
  40011c:	00 00 00 00 db 10 40 00 db 10 40 00 db 10 40 00     ......@...@...@.
  40012c:	db 10 40 00 db 10 40 00 00 00 00 00 db 10 40 00     ..@...@.......@.
  40013c:	db 10 40 00                                         ..@.

00400140 <__do_global_dtors_aux>:
  400140:	b510      	push	{r4, lr}
  400142:	4c05      	ldr	r4, [pc, #20]	; (400158 <__do_global_dtors_aux+0x18>)
  400144:	7823      	ldrb	r3, [r4, #0]
  400146:	b933      	cbnz	r3, 400156 <__do_global_dtors_aux+0x16>
  400148:	4b04      	ldr	r3, [pc, #16]	; (40015c <__do_global_dtors_aux+0x1c>)
  40014a:	b113      	cbz	r3, 400152 <__do_global_dtors_aux+0x12>
  40014c:	4804      	ldr	r0, [pc, #16]	; (400160 <__do_global_dtors_aux+0x20>)
  40014e:	f3af 8000 	nop.w
  400152:	2301      	movs	r3, #1
  400154:	7023      	strb	r3, [r4, #0]
  400156:	bd10      	pop	{r4, pc}
  400158:	204009d0 	.word	0x204009d0
  40015c:	00000000 	.word	0x00000000
  400160:	0040a20c 	.word	0x0040a20c

00400164 <frame_dummy>:
  400164:	4b0c      	ldr	r3, [pc, #48]	; (400198 <frame_dummy+0x34>)
  400166:	b143      	cbz	r3, 40017a <frame_dummy+0x16>
  400168:	480c      	ldr	r0, [pc, #48]	; (40019c <frame_dummy+0x38>)
  40016a:	490d      	ldr	r1, [pc, #52]	; (4001a0 <frame_dummy+0x3c>)
  40016c:	b510      	push	{r4, lr}
  40016e:	f3af 8000 	nop.w
  400172:	480c      	ldr	r0, [pc, #48]	; (4001a4 <frame_dummy+0x40>)
  400174:	6803      	ldr	r3, [r0, #0]
  400176:	b923      	cbnz	r3, 400182 <frame_dummy+0x1e>
  400178:	bd10      	pop	{r4, pc}
  40017a:	480a      	ldr	r0, [pc, #40]	; (4001a4 <frame_dummy+0x40>)
  40017c:	6803      	ldr	r3, [r0, #0]
  40017e:	b933      	cbnz	r3, 40018e <frame_dummy+0x2a>
  400180:	4770      	bx	lr
  400182:	4b09      	ldr	r3, [pc, #36]	; (4001a8 <frame_dummy+0x44>)
  400184:	2b00      	cmp	r3, #0
  400186:	d0f7      	beq.n	400178 <frame_dummy+0x14>
  400188:	e8bd 4010 	ldmia.w	sp!, {r4, lr}
  40018c:	4718      	bx	r3
  40018e:	4b06      	ldr	r3, [pc, #24]	; (4001a8 <frame_dummy+0x44>)
  400190:	2b00      	cmp	r3, #0
  400192:	d0f5      	beq.n	400180 <frame_dummy+0x1c>
  400194:	4718      	bx	r3
  400196:	bf00      	nop
  400198:	00000000 	.word	0x00000000
  40019c:	0040a20c 	.word	0x0040a20c
  4001a0:	204009d4 	.word	0x204009d4
  4001a4:	0040a20c 	.word	0x0040a20c
  4001a8:	00000000 	.word	0x00000000

004001ac <rtt_get_status>:
 *
 * \return The Real-time Timer status.
 */
uint32_t rtt_get_status(Rtt *p_rtt)
{
	return p_rtt->RTT_SR;
  4001ac:	68c0      	ldr	r0, [r0, #12]
}
  4001ae:	4770      	bx	lr

004001b0 <spi_enable_clock>:
 * \brief Enable SPI clock.
 *
 * \param p_spi Pointer to an SPI instance.
 */
void spi_enable_clock(Spi *p_spi)
{
  4001b0:	b508      	push	{r3, lr}
#if (SAM4S || SAM3S || SAM3N || SAM3U || SAM4E || SAM4N || SAMG51|| SAMG53|| SAMG54)
	UNUSED(p_spi);
	sysclk_enable_peripheral_clock(ID_SPI);
#elif (SAM3XA || SAM4C || SAM4CP || SAM4CM || SAMV71 || SAMV70 || SAME70 || SAMS70)
	if (p_spi == SPI0) {
  4001b2:	4b07      	ldr	r3, [pc, #28]	; (4001d0 <spi_enable_clock+0x20>)
  4001b4:	4298      	cmp	r0, r3
  4001b6:	d003      	beq.n	4001c0 <spi_enable_clock+0x10>
		sysclk_enable_peripheral_clock(ID_SPI0);
	}
	#ifdef SPI1
	else if (p_spi == SPI1) {
  4001b8:	4b06      	ldr	r3, [pc, #24]	; (4001d4 <spi_enable_clock+0x24>)
  4001ba:	4298      	cmp	r0, r3
  4001bc:	d004      	beq.n	4001c8 <spi_enable_clock+0x18>
  4001be:	bd08      	pop	{r3, pc}
 *
 * \param ul_id Id (number) of the peripheral clock.
 */
static inline void sysclk_enable_peripheral_clock(uint32_t ul_id)
{
	pmc_enable_periph_clk(ul_id);
  4001c0:	2015      	movs	r0, #21
  4001c2:	4b05      	ldr	r3, [pc, #20]	; (4001d8 <spi_enable_clock+0x28>)
  4001c4:	4798      	blx	r3
  4001c6:	bd08      	pop	{r3, pc}
  4001c8:	202a      	movs	r0, #42	; 0x2a
  4001ca:	4b03      	ldr	r3, [pc, #12]	; (4001d8 <spi_enable_clock+0x28>)
  4001cc:	4798      	blx	r3
	}
	#endif
#elif SAM4L
	sysclk_enable_peripheral_clock(p_spi);
#endif
}
  4001ce:	e7f6      	b.n	4001be <spi_enable_clock+0xe>
  4001d0:	40008000 	.word	0x40008000
  4001d4:	40058000 	.word	0x40058000
  4001d8:	00400f51 	.word	0x00400f51

004001dc <spi_set_peripheral_chip_select_value>:
 *                 \ref spi_enable_peripheral_select_decode,
 *                 \ref spi_disable_peripheral_select_decode.
 */
void spi_set_peripheral_chip_select_value(Spi *p_spi, uint32_t ul_value)
{
	p_spi->SPI_MR &= (~SPI_MR_PCS_Msk);
  4001dc:	6843      	ldr	r3, [r0, #4]
  4001de:	f423 2370 	bic.w	r3, r3, #983040	; 0xf0000
  4001e2:	6043      	str	r3, [r0, #4]
	p_spi->SPI_MR |= SPI_MR_PCS(ul_value);
  4001e4:	6843      	ldr	r3, [r0, #4]
  4001e6:	0409      	lsls	r1, r1, #16
  4001e8:	f401 2170 	and.w	r1, r1, #983040	; 0xf0000
  4001ec:	4319      	orrs	r1, r3
  4001ee:	6041      	str	r1, [r0, #4]
  4001f0:	4770      	bx	lr

004001f2 <spi_write>:
 * \retval SPI_OK on Success.
 * \retval SPI_ERROR_TIMEOUT on Time-out.
 */
spi_status_t spi_write(Spi *p_spi, uint16_t us_data,
		uint8_t uc_pcs, uint8_t uc_last)
{
  4001f2:	b430      	push	{r4, r5}
	uint32_t timeout = SPI_TIMEOUT;
	uint32_t value;

	while (!(p_spi->SPI_SR & SPI_SR_TDRE)) {
  4001f4:	f643 2499 	movw	r4, #15001	; 0x3a99
  4001f8:	6905      	ldr	r5, [r0, #16]
  4001fa:	f015 0f02 	tst.w	r5, #2
  4001fe:	d103      	bne.n	400208 <spi_write+0x16>
		if (!timeout--) {
  400200:	3c01      	subs	r4, #1
  400202:	d1f9      	bne.n	4001f8 <spi_write+0x6>
			return SPI_ERROR_TIMEOUT;
  400204:	2001      	movs	r0, #1
  400206:	e00c      	b.n	400222 <spi_write+0x30>
 *
 * \return 1 for Variable mode, 0 for fixed mode.
 */
static inline uint32_t spi_get_peripheral_select_mode(Spi *p_spi)
{
	if (p_spi->SPI_MR & SPI_MR_PS) {
  400208:	6844      	ldr	r4, [r0, #4]
		}
	}

	if (spi_get_peripheral_select_mode(p_spi)) {
  40020a:	f014 0f02 	tst.w	r4, #2
  40020e:	d006      	beq.n	40021e <spi_write+0x2c>
		value = SPI_TDR_TD(us_data) | SPI_TDR_PCS(uc_pcs);
  400210:	0412      	lsls	r2, r2, #16
  400212:	f402 2270 	and.w	r2, r2, #983040	; 0xf0000
  400216:	4311      	orrs	r1, r2
		if (uc_last) {
  400218:	b10b      	cbz	r3, 40021e <spi_write+0x2c>
			value |= SPI_TDR_LASTXFER;
  40021a:	f041 7180 	orr.w	r1, r1, #16777216	; 0x1000000
		}
	} else {
		value = SPI_TDR_TD(us_data);
	}

	p_spi->SPI_TDR = value;
  40021e:	60c1      	str	r1, [r0, #12]

	return SPI_OK;
  400220:	2000      	movs	r0, #0
}
  400222:	bc30      	pop	{r4, r5}
  400224:	4770      	bx	lr

00400226 <spi_set_clock_polarity>:
 * \param ul_polarity Default clock state is logical one(high)/zero(low).
 */
void spi_set_clock_polarity(Spi *p_spi, uint32_t ul_pcs_ch,
		uint32_t ul_polarity)
{
	if (ul_polarity) {
  400226:	b932      	cbnz	r2, 400236 <spi_set_clock_polarity+0x10>
  400228:	eb00 0081 	add.w	r0, r0, r1, lsl #2
		p_spi->SPI_CSR[ul_pcs_ch] |= SPI_CSR_CPOL;
	} else {
		p_spi->SPI_CSR[ul_pcs_ch] &= (~SPI_CSR_CPOL);
  40022c:	6b03      	ldr	r3, [r0, #48]	; 0x30
  40022e:	f023 0301 	bic.w	r3, r3, #1
  400232:	6303      	str	r3, [r0, #48]	; 0x30
  400234:	4770      	bx	lr
  400236:	eb00 0081 	add.w	r0, r0, r1, lsl #2
		p_spi->SPI_CSR[ul_pcs_ch] |= SPI_CSR_CPOL;
  40023a:	6b03      	ldr	r3, [r0, #48]	; 0x30
  40023c:	f043 0301 	orr.w	r3, r3, #1
  400240:	6303      	str	r3, [r0, #48]	; 0x30
  400242:	4770      	bx	lr

00400244 <spi_set_clock_phase>:
 *  \param ul_pcs_ch Peripheral Chip Select channel (0~3).
 *  \param ul_phase Data capture on the rising/falling edge of clock.
 */
void spi_set_clock_phase(Spi *p_spi, uint32_t ul_pcs_ch, uint32_t ul_phase)
{
	if (ul_phase) {
  400244:	b932      	cbnz	r2, 400254 <spi_set_clock_phase+0x10>
  400246:	eb00 0081 	add.w	r0, r0, r1, lsl #2
		p_spi->SPI_CSR[ul_pcs_ch] |= SPI_CSR_NCPHA;
	} else {
		p_spi->SPI_CSR[ul_pcs_ch] &= (~SPI_CSR_NCPHA);
  40024a:	6b03      	ldr	r3, [r0, #48]	; 0x30
  40024c:	f023 0302 	bic.w	r3, r3, #2
  400250:	6303      	str	r3, [r0, #48]	; 0x30
  400252:	4770      	bx	lr
  400254:	eb00 0081 	add.w	r0, r0, r1, lsl #2
		p_spi->SPI_CSR[ul_pcs_ch] |= SPI_CSR_NCPHA;
  400258:	6b03      	ldr	r3, [r0, #48]	; 0x30
  40025a:	f043 0302 	orr.w	r3, r3, #2
  40025e:	6303      	str	r3, [r0, #48]	; 0x30
  400260:	4770      	bx	lr

00400262 <spi_configure_cs_behavior>:
 * \param ul_cs_behavior Behavior of the Chip Select after transfer.
 */
void spi_configure_cs_behavior(Spi *p_spi, uint32_t ul_pcs_ch,
		uint32_t ul_cs_behavior)
{
	if (ul_cs_behavior == SPI_CS_RISE_FORCED) {
  400262:	2a04      	cmp	r2, #4
  400264:	d003      	beq.n	40026e <spi_configure_cs_behavior+0xc>
		p_spi->SPI_CSR[ul_pcs_ch] &= (~SPI_CSR_CSAAT);
		p_spi->SPI_CSR[ul_pcs_ch] |= SPI_CSR_CSNAAT;
	} else if (ul_cs_behavior == SPI_CS_RISE_NO_TX) {
  400266:	b16a      	cbz	r2, 400284 <spi_configure_cs_behavior+0x22>
		p_spi->SPI_CSR[ul_pcs_ch] &= (~SPI_CSR_CSAAT);
		p_spi->SPI_CSR[ul_pcs_ch] &= (~SPI_CSR_CSNAAT);
	} else if (ul_cs_behavior == SPI_CS_KEEP_LOW) {
  400268:	2a08      	cmp	r2, #8
  40026a:	d016      	beq.n	40029a <spi_configure_cs_behavior+0x38>
  40026c:	4770      	bx	lr
  40026e:	eb00 0081 	add.w	r0, r0, r1, lsl #2
		p_spi->SPI_CSR[ul_pcs_ch] &= (~SPI_CSR_CSAAT);
  400272:	6b03      	ldr	r3, [r0, #48]	; 0x30
  400274:	f023 0308 	bic.w	r3, r3, #8
  400278:	6303      	str	r3, [r0, #48]	; 0x30
		p_spi->SPI_CSR[ul_pcs_ch] |= SPI_CSR_CSNAAT;
  40027a:	6b03      	ldr	r3, [r0, #48]	; 0x30
  40027c:	f043 0304 	orr.w	r3, r3, #4
  400280:	6303      	str	r3, [r0, #48]	; 0x30
  400282:	4770      	bx	lr
  400284:	eb00 0081 	add.w	r0, r0, r1, lsl #2
		p_spi->SPI_CSR[ul_pcs_ch] &= (~SPI_CSR_CSAAT);
  400288:	6b03      	ldr	r3, [r0, #48]	; 0x30
  40028a:	f023 0308 	bic.w	r3, r3, #8
  40028e:	6303      	str	r3, [r0, #48]	; 0x30
		p_spi->SPI_CSR[ul_pcs_ch] &= (~SPI_CSR_CSNAAT);
  400290:	6b03      	ldr	r3, [r0, #48]	; 0x30
  400292:	f023 0304 	bic.w	r3, r3, #4
  400296:	6303      	str	r3, [r0, #48]	; 0x30
  400298:	4770      	bx	lr
  40029a:	eb00 0081 	add.w	r0, r0, r1, lsl #2
		p_spi->SPI_CSR[ul_pcs_ch] |= SPI_CSR_CSAAT;
  40029e:	6b03      	ldr	r3, [r0, #48]	; 0x30
  4002a0:	f043 0308 	orr.w	r3, r3, #8
  4002a4:	6303      	str	r3, [r0, #48]	; 0x30
	}
}
  4002a6:	e7e1      	b.n	40026c <spi_configure_cs_behavior+0xa>

004002a8 <spi_set_bits_per_transfer>:
 * \param ul_bits Number of bits (8~16), use the pattern defined
 *        in the device header file.
 */
void spi_set_bits_per_transfer(Spi *p_spi, uint32_t ul_pcs_ch,
		uint32_t ul_bits)
{
  4002a8:	eb00 0181 	add.w	r1, r0, r1, lsl #2
	p_spi->SPI_CSR[ul_pcs_ch] &= (~SPI_CSR_BITS_Msk);
  4002ac:	6b0b      	ldr	r3, [r1, #48]	; 0x30
  4002ae:	f023 03f0 	bic.w	r3, r3, #240	; 0xf0
  4002b2:	630b      	str	r3, [r1, #48]	; 0x30
	p_spi->SPI_CSR[ul_pcs_ch] |= ul_bits;
  4002b4:	6b0b      	ldr	r3, [r1, #48]	; 0x30
  4002b6:	431a      	orrs	r2, r3
  4002b8:	630a      	str	r2, [r1, #48]	; 0x30
  4002ba:	4770      	bx	lr

004002bc <spi_calc_baudrate_div>:
 *   \retval > 0  Success.
 *   \retval < 0  Error.
 */
int16_t spi_calc_baudrate_div(const uint32_t baudrate, uint32_t mck)
{
	int baud_div = div_ceil(mck, baudrate);
  4002bc:	1e43      	subs	r3, r0, #1
  4002be:	4419      	add	r1, r3
  4002c0:	fbb1 f0f0 	udiv	r0, r1, r0

	/* The value of baud_div is from 1 to 255 in the SCBR field. */
	if (baud_div <= 0 || baud_div > 255) {
  4002c4:	1e43      	subs	r3, r0, #1
  4002c6:	2bfe      	cmp	r3, #254	; 0xfe
		return -1;
	}

	return baud_div;
  4002c8:	bf94      	ite	ls
  4002ca:	b200      	sxthls	r0, r0
		return -1;
  4002cc:	f04f 30ff 	movhi.w	r0, #4294967295
}
  4002d0:	4770      	bx	lr

004002d2 <spi_set_baudrate_div>:
 */
int16_t spi_set_baudrate_div(Spi *p_spi, uint32_t ul_pcs_ch,
		uint8_t uc_baudrate_divider)
{
    /* Programming the SCBR field to 0 is forbidden */
    if (!uc_baudrate_divider){
  4002d2:	b17a      	cbz	r2, 4002f4 <spi_set_baudrate_div+0x22>
{
  4002d4:	b410      	push	{r4}
  4002d6:	4614      	mov	r4, r2
  4002d8:	eb00 0181 	add.w	r1, r0, r1, lsl #2
        return -1;
	}
	p_spi->SPI_CSR[ul_pcs_ch] &= (~SPI_CSR_SCBR_Msk);
  4002dc:	6b0b      	ldr	r3, [r1, #48]	; 0x30
  4002de:	f423 437f 	bic.w	r3, r3, #65280	; 0xff00
  4002e2:	630b      	str	r3, [r1, #48]	; 0x30
	p_spi->SPI_CSR[ul_pcs_ch] |= SPI_CSR_SCBR(uc_baudrate_divider);
  4002e4:	6b0a      	ldr	r2, [r1, #48]	; 0x30
  4002e6:	ea42 2204 	orr.w	r2, r2, r4, lsl #8
  4002ea:	630a      	str	r2, [r1, #48]	; 0x30
    return 0;
  4002ec:	2000      	movs	r0, #0
}
  4002ee:	f85d 4b04 	ldr.w	r4, [sp], #4
  4002f2:	4770      	bx	lr
        return -1;
  4002f4:	f04f 30ff 	mov.w	r0, #4294967295
  4002f8:	4770      	bx	lr
	...

004002fc <gfx_mono_set_framebuffer>:
	gfx_mono_set_framebuffer(framebuffer);
\endcode
 */
void gfx_mono_set_framebuffer(uint8_t *framebuffer)
{
	fbpointer = framebuffer;
  4002fc:	4b01      	ldr	r3, [pc, #4]	; (400304 <gfx_mono_set_framebuffer+0x8>)
  4002fe:	6018      	str	r0, [r3, #0]
  400300:	4770      	bx	lr
  400302:	bf00      	nop
  400304:	204009ec 	.word	0x204009ec

00400308 <gfx_mono_framebuffer_put_byte>:
\endcode
 */
void gfx_mono_framebuffer_put_byte(gfx_coord_t page, gfx_coord_t column,
		uint8_t data)
{
	*(fbpointer + (page * GFX_MONO_LCD_WIDTH) + column) = data;
  400308:	4b02      	ldr	r3, [pc, #8]	; (400314 <gfx_mono_framebuffer_put_byte+0xc>)
  40030a:	681b      	ldr	r3, [r3, #0]
  40030c:	eb03 10c0 	add.w	r0, r3, r0, lsl #7
  400310:	5442      	strb	r2, [r0, r1]
  400312:	4770      	bx	lr
  400314:	204009ec 	.word	0x204009ec

00400318 <gfx_mono_framebuffer_get_byte>:
	data = gfx_mono_framebuffer_get_byte(0, 0);
\endcode
 */
uint8_t gfx_mono_framebuffer_get_byte(gfx_coord_t page, gfx_coord_t column)
{
	return *(fbpointer + (page * GFX_MONO_LCD_WIDTH) + column);
  400318:	4b02      	ldr	r3, [pc, #8]	; (400324 <gfx_mono_framebuffer_get_byte+0xc>)
  40031a:	681b      	ldr	r3, [r3, #0]
  40031c:	eb03 10c0 	add.w	r0, r3, r0, lsl #7
}
  400320:	5c40      	ldrb	r0, [r0, r1]
  400322:	4770      	bx	lr
  400324:	204009ec 	.word	0x204009ec

00400328 <gfx_mono_generic_draw_horizontal_line>:
 * \param[in]  length     Length of the line in pixels.
 * \param[in]  color      Pixel operation of the line.
 */
void gfx_mono_generic_draw_horizontal_line(gfx_coord_t x, gfx_coord_t y,
		gfx_coord_t length, enum gfx_mono_color color)
{
  400328:	e92d 47f0 	stmdb	sp!, {r4, r5, r6, r7, r8, r9, sl, lr}
	uint8_t page;
	uint8_t pixelmask;
	uint8_t temp;

	/* Clip line length if too long */
	if (x + length > GFX_MONO_LCD_WIDTH) {
  40032c:	1884      	adds	r4, r0, r2
  40032e:	2c80      	cmp	r4, #128	; 0x80
  400330:	dd02      	ble.n	400338 <gfx_mono_generic_draw_horizontal_line+0x10>
		length = GFX_MONO_LCD_WIDTH - x;
  400332:	f1c0 0480 	rsb	r4, r0, #128	; 0x80
  400336:	b2e2      	uxtb	r2, r4
	}

	page = y / 8;
	pixelmask = (1 << (y - (page * 8)));

	if (length == 0) {
  400338:	b322      	cbz	r2, 400384 <gfx_mono_generic_draw_horizontal_line+0x5c>
	page = y / 8;
  40033a:	08cd      	lsrs	r5, r1, #3
	pixelmask = (1 << (y - (page * 8)));
  40033c:	eba1 01c5 	sub.w	r1, r1, r5, lsl #3
  400340:	2601      	movs	r6, #1
  400342:	fa06 f101 	lsl.w	r1, r6, r1
  400346:	b2ce      	uxtb	r6, r1
		/* Nothing to do. Move along. */
		return;
	}

	switch (color) {
  400348:	2b01      	cmp	r3, #1
  40034a:	d01d      	beq.n	400388 <gfx_mono_generic_draw_horizontal_line+0x60>
  40034c:	2b00      	cmp	r3, #0
  40034e:	d035      	beq.n	4003bc <gfx_mono_generic_draw_horizontal_line+0x94>
  400350:	2b02      	cmp	r3, #2
  400352:	d117      	bne.n	400384 <gfx_mono_generic_draw_horizontal_line+0x5c>
  400354:	3801      	subs	r0, #1
  400356:	b2c7      	uxtb	r7, r0
  400358:	19d4      	adds	r4, r2, r7
  40035a:	b2e4      	uxtb	r4, r4
		}
		break;

	case GFX_PIXEL_XOR:
		while (length-- > 0) {
			temp = gfx_mono_get_byte(page, x + length);
  40035c:	f8df a090 	ldr.w	sl, [pc, #144]	; 4003f0 <gfx_mono_generic_draw_horizontal_line+0xc8>
			temp ^= pixelmask;
			gfx_mono_put_byte(page, x + length, temp);
  400360:	f04f 0900 	mov.w	r9, #0
  400364:	f8df 808c 	ldr.w	r8, [pc, #140]	; 4003f4 <gfx_mono_generic_draw_horizontal_line+0xcc>
			temp = gfx_mono_get_byte(page, x + length);
  400368:	4621      	mov	r1, r4
  40036a:	4628      	mov	r0, r5
  40036c:	47d0      	blx	sl
			temp ^= pixelmask;
  40036e:	ea86 0200 	eor.w	r2, r6, r0
			gfx_mono_put_byte(page, x + length, temp);
  400372:	464b      	mov	r3, r9
  400374:	b2d2      	uxtb	r2, r2
  400376:	4621      	mov	r1, r4
  400378:	4628      	mov	r0, r5
  40037a:	47c0      	blx	r8
  40037c:	3c01      	subs	r4, #1
  40037e:	b2e4      	uxtb	r4, r4
		while (length-- > 0) {
  400380:	42bc      	cmp	r4, r7
  400382:	d1f1      	bne.n	400368 <gfx_mono_generic_draw_horizontal_line+0x40>
  400384:	e8bd 87f0 	ldmia.w	sp!, {r4, r5, r6, r7, r8, r9, sl, pc}
  400388:	3801      	subs	r0, #1
  40038a:	b2c7      	uxtb	r7, r0
  40038c:	19d4      	adds	r4, r2, r7
  40038e:	b2e4      	uxtb	r4, r4
			temp = gfx_mono_get_byte(page, x + length);
  400390:	f8df a05c 	ldr.w	sl, [pc, #92]	; 4003f0 <gfx_mono_generic_draw_horizontal_line+0xc8>
			gfx_mono_put_byte(page, x + length, temp);
  400394:	f04f 0900 	mov.w	r9, #0
  400398:	f8df 8058 	ldr.w	r8, [pc, #88]	; 4003f4 <gfx_mono_generic_draw_horizontal_line+0xcc>
			temp = gfx_mono_get_byte(page, x + length);
  40039c:	4621      	mov	r1, r4
  40039e:	4628      	mov	r0, r5
  4003a0:	47d0      	blx	sl
			temp |= pixelmask;
  4003a2:	ea46 0200 	orr.w	r2, r6, r0
			gfx_mono_put_byte(page, x + length, temp);
  4003a6:	464b      	mov	r3, r9
  4003a8:	b2d2      	uxtb	r2, r2
  4003aa:	4621      	mov	r1, r4
  4003ac:	4628      	mov	r0, r5
  4003ae:	47c0      	blx	r8
  4003b0:	3c01      	subs	r4, #1
  4003b2:	b2e4      	uxtb	r4, r4
		while (length-- > 0) {
  4003b4:	42bc      	cmp	r4, r7
  4003b6:	d1f1      	bne.n	40039c <gfx_mono_generic_draw_horizontal_line+0x74>
  4003b8:	e8bd 87f0 	ldmia.w	sp!, {r4, r5, r6, r7, r8, r9, sl, pc}
  4003bc:	3801      	subs	r0, #1
  4003be:	b2c7      	uxtb	r7, r0
  4003c0:	19d4      	adds	r4, r2, r7
  4003c2:	b2e4      	uxtb	r4, r4
			temp = gfx_mono_get_byte(page, x + length);
  4003c4:	f8df 8028 	ldr.w	r8, [pc, #40]	; 4003f0 <gfx_mono_generic_draw_horizontal_line+0xc8>
			temp &= ~pixelmask;
  4003c8:	43ce      	mvns	r6, r1
			gfx_mono_put_byte(page, x + length, temp);
  4003ca:	f8df 9028 	ldr.w	r9, [pc, #40]	; 4003f4 <gfx_mono_generic_draw_horizontal_line+0xcc>
			temp = gfx_mono_get_byte(page, x + length);
  4003ce:	4621      	mov	r1, r4
  4003d0:	4628      	mov	r0, r5
  4003d2:	47c0      	blx	r8
			temp &= ~pixelmask;
  4003d4:	ea06 0200 	and.w	r2, r6, r0
			gfx_mono_put_byte(page, x + length, temp);
  4003d8:	2300      	movs	r3, #0
  4003da:	b2d2      	uxtb	r2, r2
  4003dc:	4621      	mov	r1, r4
  4003de:	4628      	mov	r0, r5
  4003e0:	47c8      	blx	r9
  4003e2:	3c01      	subs	r4, #1
  4003e4:	b2e4      	uxtb	r4, r4
		while (length-- > 0) {
  4003e6:	42bc      	cmp	r4, r7
  4003e8:	d1f1      	bne.n	4003ce <gfx_mono_generic_draw_horizontal_line+0xa6>
  4003ea:	e8bd 87f0 	ldmia.w	sp!, {r4, r5, r6, r7, r8, r9, sl, pc}
  4003ee:	bf00      	nop
  4003f0:	00400629 	.word	0x00400629
  4003f4:	00400525 	.word	0x00400525

004003f8 <gfx_mono_generic_draw_filled_rect>:
 * \param[in]  color       Pixel operation of the line
 */
void gfx_mono_generic_draw_filled_rect(gfx_coord_t x, gfx_coord_t y,
		gfx_coord_t width, gfx_coord_t height,
		enum gfx_mono_color color)
{
  4003f8:	e92d 43f8 	stmdb	sp!, {r3, r4, r5, r6, r7, r8, r9, lr}
  4003fc:	f89d 7020 	ldrb.w	r7, [sp, #32]
	if (height == 0) {
  400400:	b18b      	cbz	r3, 400426 <gfx_mono_generic_draw_filled_rect+0x2e>
  400402:	461c      	mov	r4, r3
  400404:	4690      	mov	r8, r2
  400406:	4606      	mov	r6, r0
  400408:	1e4d      	subs	r5, r1, #1
  40040a:	b2ed      	uxtb	r5, r5
  40040c:	442c      	add	r4, r5
  40040e:	b2e4      	uxtb	r4, r4
		/* Nothing to do. Move along. */
		return;
	}

	while (height-- > 0) {
		gfx_mono_draw_horizontal_line(x, y + height, width, color);
  400410:	f8df 9018 	ldr.w	r9, [pc, #24]	; 40042c <gfx_mono_generic_draw_filled_rect+0x34>
  400414:	463b      	mov	r3, r7
  400416:	4642      	mov	r2, r8
  400418:	4621      	mov	r1, r4
  40041a:	4630      	mov	r0, r6
  40041c:	47c8      	blx	r9
  40041e:	3c01      	subs	r4, #1
  400420:	b2e4      	uxtb	r4, r4
	while (height-- > 0) {
  400422:	42ac      	cmp	r4, r5
  400424:	d1f6      	bne.n	400414 <gfx_mono_generic_draw_filled_rect+0x1c>
  400426:	e8bd 83f8 	ldmia.w	sp!, {r3, r4, r5, r6, r7, r8, r9, pc}
  40042a:	bf00      	nop
  40042c:	00400329 	.word	0x00400329

00400430 <gfx_mono_draw_char>:
 * \param[in] y        Y coordinate on screen.
 * \param[in] font     Font to draw character in
 */
void gfx_mono_draw_char(const char c, const gfx_coord_t x, const gfx_coord_t y,
		const struct font *font)
{
  400430:	e92d 4ff0 	stmdb	sp!, {r4, r5, r6, r7, r8, r9, sl, fp, lr}
  400434:	b083      	sub	sp, #12
  400436:	4604      	mov	r4, r0
  400438:	4688      	mov	r8, r1
  40043a:	4691      	mov	r9, r2
  40043c:	469b      	mov	fp, r3
	gfx_mono_draw_filled_rect(x, y, font->width, font->height,
  40043e:	7a5b      	ldrb	r3, [r3, #9]
  400440:	f89b 2008 	ldrb.w	r2, [fp, #8]
  400444:	2100      	movs	r1, #0
  400446:	9100      	str	r1, [sp, #0]
  400448:	4649      	mov	r1, r9
  40044a:	4640      	mov	r0, r8
  40044c:	4d21      	ldr	r5, [pc, #132]	; (4004d4 <gfx_mono_draw_char+0xa4>)
  40044e:	47a8      	blx	r5
			GFX_PIXEL_CLR);

	switch (font->type) {
  400450:	f89b 3000 	ldrb.w	r3, [fp]
  400454:	b113      	cbz	r3, 40045c <gfx_mono_draw_char+0x2c>
	default:
		/* Unsupported mode, call assert */
		Assert(false);
		break;
	}
}
  400456:	b003      	add	sp, #12
  400458:	e8bd 8ff0 	ldmia.w	sp!, {r4, r5, r6, r7, r8, r9, sl, fp, pc}
	char_row_size = font->width / CONFIG_FONT_PIXELS_PER_BYTE;
  40045c:	f89b 2008 	ldrb.w	r2, [fp, #8]
  400460:	08d3      	lsrs	r3, r2, #3
	if (font->width % CONFIG_FONT_PIXELS_PER_BYTE) {
  400462:	f012 0f07 	tst.w	r2, #7
		char_row_size++;
  400466:	bf18      	it	ne
  400468:	3301      	addne	r3, #1
	glyph_data_offset = char_row_size * font->height *
  40046a:	f89b a009 	ldrb.w	sl, [fp, #9]
			((uint8_t)ch - font->first_char);
  40046e:	f89b 700a 	ldrb.w	r7, [fp, #10]
  400472:	1be7      	subs	r7, r4, r7
	glyph_data_offset = char_row_size * font->height *
  400474:	fb17 f70a 	smulbb	r7, r7, sl
  400478:	fb17 f703 	smulbb	r7, r7, r3
	glyph_data = font->data.progmem + glyph_data_offset;
  40047c:	f8db 3004 	ldr.w	r3, [fp, #4]
  400480:	fa13 f787 	uxtah	r7, r3, r7
  400484:	e01f      	b.n	4004c6 <gfx_mono_draw_char+0x96>
			glyph_byte <<= 1;
  400486:	0064      	lsls	r4, r4, #1
  400488:	b2e4      	uxtb	r4, r4
  40048a:	3501      	adds	r5, #1
		for (i = 0; i < pixelsToDraw; i++) {
  40048c:	b2eb      	uxtb	r3, r5
  40048e:	429e      	cmp	r6, r3
  400490:	d910      	bls.n	4004b4 <gfx_mono_draw_char+0x84>
  400492:	b2eb      	uxtb	r3, r5
  400494:	eb08 0003 	add.w	r0, r8, r3
  400498:	b2c0      	uxtb	r0, r0
			if (i % CONFIG_FONT_PIXELS_PER_BYTE == 0) {
  40049a:	f013 0f07 	tst.w	r3, #7
				glyph_byte = PROGMEM_READ_BYTE(glyph_data);
  40049e:	bf08      	it	eq
  4004a0:	f817 4b01 	ldrbeq.w	r4, [r7], #1
			if ((glyph_byte & 0x80)) {
  4004a4:	f014 0f80 	tst.w	r4, #128	; 0x80
  4004a8:	d0ed      	beq.n	400486 <gfx_mono_draw_char+0x56>
				gfx_mono_draw_pixel(inc_x, inc_y,
  4004aa:	2201      	movs	r2, #1
  4004ac:	4649      	mov	r1, r9
  4004ae:	4b0a      	ldr	r3, [pc, #40]	; (4004d8 <gfx_mono_draw_char+0xa8>)
  4004b0:	4798      	blx	r3
  4004b2:	e7e8      	b.n	400486 <gfx_mono_draw_char+0x56>
		inc_y += 1;
  4004b4:	f109 0901 	add.w	r9, r9, #1
  4004b8:	fa5f f989 	uxtb.w	r9, r9
		rows_left--;
  4004bc:	f10a 3aff 	add.w	sl, sl, #4294967295
	} while (rows_left > 0);
  4004c0:	f01a 0aff 	ands.w	sl, sl, #255	; 0xff
  4004c4:	d0c7      	beq.n	400456 <gfx_mono_draw_char+0x26>
		uint8_t pixelsToDraw = font->width;
  4004c6:	f89b 6008 	ldrb.w	r6, [fp, #8]
		for (i = 0; i < pixelsToDraw; i++) {
  4004ca:	2e00      	cmp	r6, #0
  4004cc:	d0f2      	beq.n	4004b4 <gfx_mono_draw_char+0x84>
  4004ce:	2500      	movs	r5, #0
  4004d0:	462c      	mov	r4, r5
  4004d2:	e7de      	b.n	400492 <gfx_mono_draw_char+0x62>
  4004d4:	004003f9 	.word	0x004003f9
  4004d8:	004005c5 	.word	0x004005c5

004004dc <gfx_mono_draw_string>:
 * \param[in] y         Y coordinate on screen.
 * \param[in] font      Font to draw string in
 */
void gfx_mono_draw_string(const char *str, gfx_coord_t x, gfx_coord_t y,
		const struct font *font)
{
  4004dc:	e92d 43f8 	stmdb	sp!, {r3, r4, r5, r6, r7, r8, r9, lr}
  4004e0:	4604      	mov	r4, r0
  4004e2:	4690      	mov	r8, r2
  4004e4:	461d      	mov	r5, r3
  4004e6:	4689      	mov	r9, r1
			x = start_of_string_position_x;
			y += font->height + 1;
		} else if (*str == '\r') {
			/* Skip '\r' characters. */
		} else {
			gfx_mono_draw_char(*str, x, y, font);
  4004e8:	4f0d      	ldr	r7, [pc, #52]	; (400520 <gfx_mono_draw_string+0x44>)
			x = start_of_string_position_x;
  4004ea:	460e      	mov	r6, r1
  4004ec:	e008      	b.n	400500 <gfx_mono_draw_string+0x24>
			y += font->height + 1;
  4004ee:	7a6a      	ldrb	r2, [r5, #9]
  4004f0:	3201      	adds	r2, #1
  4004f2:	4442      	add	r2, r8
  4004f4:	fa5f f882 	uxtb.w	r8, r2
			x = start_of_string_position_x;
  4004f8:	46b1      	mov	r9, r6
			x += font->width;
		}
	} while (*(++str));
  4004fa:	f814 3f01 	ldrb.w	r3, [r4, #1]!
  4004fe:	b16b      	cbz	r3, 40051c <gfx_mono_draw_string+0x40>
		if (*str == '\n') {
  400500:	7820      	ldrb	r0, [r4, #0]
  400502:	280a      	cmp	r0, #10
  400504:	d0f3      	beq.n	4004ee <gfx_mono_draw_string+0x12>
		} else if (*str == '\r') {
  400506:	280d      	cmp	r0, #13
  400508:	d0f7      	beq.n	4004fa <gfx_mono_draw_string+0x1e>
			gfx_mono_draw_char(*str, x, y, font);
  40050a:	462b      	mov	r3, r5
  40050c:	4642      	mov	r2, r8
  40050e:	4649      	mov	r1, r9
  400510:	47b8      	blx	r7
			x += font->width;
  400512:	7a2b      	ldrb	r3, [r5, #8]
  400514:	4499      	add	r9, r3
  400516:	fa5f f989 	uxtb.w	r9, r9
  40051a:	e7ee      	b.n	4004fa <gfx_mono_draw_string+0x1e>
}
  40051c:	e8bd 83f8 	ldmia.w	sp!, {r3, r4, r5, r6, r7, r8, r9, pc}
  400520:	00400431 	.word	0x00400431

00400524 <gfx_mono_ssd1306_put_byte>:
	gfx_mono_ssd1306_put_byte(0, 0, 0xFF, false);
\endcode
  */
 void gfx_mono_ssd1306_put_byte(gfx_coord_t page, gfx_coord_t column,
		uint8_t data, bool force)
{
  400524:	b570      	push	{r4, r5, r6, lr}
  400526:	4604      	mov	r4, r0
  400528:	460d      	mov	r5, r1
  40052a:	4616      	mov	r6, r2
#ifdef CONFIG_SSD1306_FRAMEBUFFER
	if (!force && data == gfx_mono_framebuffer_get_byte(page, column)) {
  40052c:	b91b      	cbnz	r3, 400536 <gfx_mono_ssd1306_put_byte+0x12>
  40052e:	4b0d      	ldr	r3, [pc, #52]	; (400564 <gfx_mono_ssd1306_put_byte+0x40>)
  400530:	4798      	blx	r3
  400532:	42b0      	cmp	r0, r6
  400534:	d015      	beq.n	400562 <gfx_mono_ssd1306_put_byte+0x3e>
		return;
	}
	gfx_mono_framebuffer_put_byte(page, column, data);
  400536:	4632      	mov	r2, r6
  400538:	4629      	mov	r1, r5
  40053a:	4620      	mov	r0, r4
  40053c:	4b0a      	ldr	r3, [pc, #40]	; (400568 <gfx_mono_ssd1306_put_byte+0x44>)
  40053e:	4798      	blx	r3
 * \param address the page address
 */
static inline void ssd1306_set_page_address(uint8_t address)
{
	// Make sure that the address is 4 bits (only 8 pages)
	address &= 0x0F;
  400540:	f004 000f 	and.w	r0, r4, #15
	ssd1306_write_command(SSD1306_CMD_SET_PAGE_START_ADDRESS(address));
  400544:	f040 00b0 	orr.w	r0, r0, #176	; 0xb0
  400548:	4c08      	ldr	r4, [pc, #32]	; (40056c <gfx_mono_ssd1306_put_byte+0x48>)
  40054a:	47a0      	blx	r4
 */
static inline void ssd1306_set_column_address(uint8_t address)
{
	// Make sure the address is 7 bits
	address &= 0x7F;
	ssd1306_write_command(SSD1306_CMD_COL_ADD_SET_MSB(address >> 4));
  40054c:	f3c5 1002 	ubfx	r0, r5, #4, #3
  400550:	f040 0010 	orr.w	r0, r0, #16
  400554:	47a0      	blx	r4
	ssd1306_write_command(SSD1306_CMD_COL_ADD_SET_LSB(address & 0x0F));
  400556:	f005 000f 	and.w	r0, r5, #15
  40055a:	47a0      	blx	r4
#endif

	ssd1306_set_page_address(page);
	ssd1306_set_column_address(column);

	ssd1306_write_data(data);
  40055c:	4630      	mov	r0, r6
  40055e:	4b04      	ldr	r3, [pc, #16]	; (400570 <gfx_mono_ssd1306_put_byte+0x4c>)
  400560:	4798      	blx	r3
  400562:	bd70      	pop	{r4, r5, r6, pc}
  400564:	00400319 	.word	0x00400319
  400568:	00400309 	.word	0x00400309
  40056c:	00400635 	.word	0x00400635
  400570:	00400855 	.word	0x00400855

00400574 <gfx_mono_ssd1306_init>:
{
  400574:	e92d 41f0 	stmdb	sp!, {r4, r5, r6, r7, r8, lr}
	gfx_mono_set_framebuffer(framebuffer);
  400578:	480d      	ldr	r0, [pc, #52]	; (4005b0 <gfx_mono_ssd1306_init+0x3c>)
  40057a:	4b0e      	ldr	r3, [pc, #56]	; (4005b4 <gfx_mono_ssd1306_init+0x40>)
  40057c:	4798      	blx	r3
	ssd1306_init();
  40057e:	4b0e      	ldr	r3, [pc, #56]	; (4005b8 <gfx_mono_ssd1306_init+0x44>)
  400580:	4798      	blx	r3
 */
static inline void ssd1306_set_display_start_line_address(uint8_t address)
{
	// Make sure address is 6 bits
	address &= 0x3F;
	ssd1306_write_command(SSD1306_CMD_SET_DISPLAY_START_LINE(address));
  400582:	2040      	movs	r0, #64	; 0x40
  400584:	4b0d      	ldr	r3, [pc, #52]	; (4005bc <gfx_mono_ssd1306_init+0x48>)
  400586:	4798      	blx	r3
	for (page = 0; page < GFX_MONO_LCD_PAGES; page++) {
  400588:	2500      	movs	r5, #0
			gfx_mono_ssd1306_put_byte(page, column, 0x00, true);
  40058a:	f04f 0801 	mov.w	r8, #1
  40058e:	462f      	mov	r7, r5
  400590:	4e0b      	ldr	r6, [pc, #44]	; (4005c0 <gfx_mono_ssd1306_init+0x4c>)
{
  400592:	2400      	movs	r4, #0
			gfx_mono_ssd1306_put_byte(page, column, 0x00, true);
  400594:	4643      	mov	r3, r8
  400596:	463a      	mov	r2, r7
  400598:	b2e1      	uxtb	r1, r4
  40059a:	4628      	mov	r0, r5
  40059c:	47b0      	blx	r6
  40059e:	3401      	adds	r4, #1
		for (column = 0; column < GFX_MONO_LCD_WIDTH; column++) {
  4005a0:	2c80      	cmp	r4, #128	; 0x80
  4005a2:	d1f7      	bne.n	400594 <gfx_mono_ssd1306_init+0x20>
	for (page = 0; page < GFX_MONO_LCD_PAGES; page++) {
  4005a4:	3501      	adds	r5, #1
  4005a6:	b2ed      	uxtb	r5, r5
  4005a8:	2d04      	cmp	r5, #4
  4005aa:	d1f2      	bne.n	400592 <gfx_mono_ssd1306_init+0x1e>
  4005ac:	e8bd 81f0 	ldmia.w	sp!, {r4, r5, r6, r7, r8, pc}
  4005b0:	204009f0 	.word	0x204009f0
  4005b4:	004002fd 	.word	0x004002fd
  4005b8:	00400675 	.word	0x00400675
  4005bc:	00400635 	.word	0x00400635
  4005c0:	00400525 	.word	0x00400525

004005c4 <gfx_mono_ssd1306_draw_pixel>:
	if ((x > GFX_MONO_LCD_WIDTH - 1) || (y > GFX_MONO_LCD_HEIGHT - 1)) {
  4005c4:	09c3      	lsrs	r3, r0, #7
  4005c6:	d12a      	bne.n	40061e <gfx_mono_ssd1306_draw_pixel+0x5a>
  4005c8:	291f      	cmp	r1, #31
  4005ca:	d828      	bhi.n	40061e <gfx_mono_ssd1306_draw_pixel+0x5a>
{
  4005cc:	e92d 41f0 	stmdb	sp!, {r4, r5, r6, r7, r8, lr}
  4005d0:	4614      	mov	r4, r2
  4005d2:	4605      	mov	r5, r0
	page = y / GFX_MONO_LCD_PIXELS_PER_BYTE;
  4005d4:	08ce      	lsrs	r6, r1, #3
	pixel_mask = (1 << (y - (page * 8)));
  4005d6:	eba1 01c6 	sub.w	r1, r1, r6, lsl #3
  4005da:	2201      	movs	r2, #1
  4005dc:	fa02 f701 	lsl.w	r7, r2, r1
  4005e0:	fa5f f887 	uxtb.w	r8, r7
\endcode
 */
uint8_t gfx_mono_ssd1306_get_byte(gfx_coord_t page, gfx_coord_t column)
{
#ifdef CONFIG_SSD1306_FRAMEBUFFER
	return gfx_mono_framebuffer_get_byte(page, column);
  4005e4:	4601      	mov	r1, r0
  4005e6:	4630      	mov	r0, r6
  4005e8:	4b0d      	ldr	r3, [pc, #52]	; (400620 <gfx_mono_ssd1306_draw_pixel+0x5c>)
  4005ea:	4798      	blx	r3
  4005ec:	4602      	mov	r2, r0
	switch (color) {
  4005ee:	2c01      	cmp	r4, #1
  4005f0:	d009      	beq.n	400606 <gfx_mono_ssd1306_draw_pixel+0x42>
  4005f2:	b164      	cbz	r4, 40060e <gfx_mono_ssd1306_draw_pixel+0x4a>
  4005f4:	2c02      	cmp	r4, #2
  4005f6:	d00e      	beq.n	400616 <gfx_mono_ssd1306_draw_pixel+0x52>
	gfx_mono_put_byte(page, x, pixel_value);
  4005f8:	2300      	movs	r3, #0
  4005fa:	4629      	mov	r1, r5
  4005fc:	4630      	mov	r0, r6
  4005fe:	4c09      	ldr	r4, [pc, #36]	; (400624 <gfx_mono_ssd1306_draw_pixel+0x60>)
  400600:	47a0      	blx	r4
  400602:	e8bd 81f0 	ldmia.w	sp!, {r4, r5, r6, r7, r8, pc}
		pixel_value |= pixel_mask;
  400606:	ea48 0200 	orr.w	r2, r8, r0
  40060a:	b2d2      	uxtb	r2, r2
		break;
  40060c:	e7f4      	b.n	4005f8 <gfx_mono_ssd1306_draw_pixel+0x34>
		pixel_value &= ~pixel_mask;
  40060e:	ea20 0207 	bic.w	r2, r0, r7
  400612:	b2d2      	uxtb	r2, r2
		break;
  400614:	e7f0      	b.n	4005f8 <gfx_mono_ssd1306_draw_pixel+0x34>
		pixel_value ^= pixel_mask;
  400616:	ea88 0200 	eor.w	r2, r8, r0
  40061a:	b2d2      	uxtb	r2, r2
		break;
  40061c:	e7ec      	b.n	4005f8 <gfx_mono_ssd1306_draw_pixel+0x34>
  40061e:	4770      	bx	lr
  400620:	00400319 	.word	0x00400319
  400624:	00400525 	.word	0x00400525

00400628 <gfx_mono_ssd1306_get_byte>:
{
  400628:	b508      	push	{r3, lr}
	return gfx_mono_framebuffer_get_byte(page, column);
  40062a:	4b01      	ldr	r3, [pc, #4]	; (400630 <gfx_mono_ssd1306_get_byte+0x8>)
  40062c:	4798      	blx	r3
	ssd1306_set_column_address(column);

	return ssd1306_read_data();

#endif
}
  40062e:	bd08      	pop	{r3, pc}
  400630:	00400319 	.word	0x00400319

00400634 <ssd1306_write_command>:
 * data write function is called based on the selected interface.
 *
 * \param command the command to write
 */
void ssd1306_write_command(uint8_t command)
{
  400634:	b538      	push	{r3, r4, r5, lr}
  400636:	4605      	mov	r5, r0
	Pio *base = arch_ioport_pin_to_base(pin);

	if (level) {
		base->PIO_SODR = arch_ioport_pin_to_mask(pin);
	} else {
		base->PIO_CODR = arch_ioport_pin_to_mask(pin);
  400638:	2208      	movs	r2, #8
  40063a:	4b09      	ldr	r3, [pc, #36]	; (400660 <ssd1306_write_command+0x2c>)
  40063c:	635a      	str	r2, [r3, #52]	; 0x34
	ioport_set_pin_level(SSD1306_DC_PIN, false);
	
	spi_set_peripheral_chip_select_value(SPI0, 1);
  40063e:	4c09      	ldr	r4, [pc, #36]	; (400664 <ssd1306_write_command+0x30>)
  400640:	2101      	movs	r1, #1
  400642:	4620      	mov	r0, r4
  400644:	4b08      	ldr	r3, [pc, #32]	; (400668 <ssd1306_write_command+0x34>)
  400646:	4798      	blx	r3
	spi_write(SPI0, command, 1, 1);
  400648:	2301      	movs	r3, #1
  40064a:	461a      	mov	r2, r3
  40064c:	4629      	mov	r1, r5
  40064e:	4620      	mov	r0, r4
  400650:	4c06      	ldr	r4, [pc, #24]	; (40066c <ssd1306_write_command+0x38>)
  400652:	47a0      	blx	r4
	delay_us(10);
  400654:	f44f 70fd 	mov.w	r0, #506	; 0x1fa
  400658:	4b05      	ldr	r3, [pc, #20]	; (400670 <ssd1306_write_command+0x3c>)
  40065a:	4798      	blx	r3
  40065c:	bd38      	pop	{r3, r4, r5, pc}
  40065e:	bf00      	nop
  400660:	400e1000 	.word	0x400e1000
  400664:	40008000 	.word	0x40008000
  400668:	004001dd 	.word	0x004001dd
  40066c:	004001f3 	.word	0x004001f3
  400670:	20400001 	.word	0x20400001

00400674 <ssd1306_init>:
{
  400674:	e92d 43f8 	stmdb	sp!, {r3, r4, r5, r6, r7, r8, r9, lr}
		base->PIO_OER = arch_ioport_pin_to_mask(pin);
  400678:	4d66      	ldr	r5, [pc, #408]	; (400814 <ssd1306_init+0x1a0>)
  40067a:	f44f 3600 	mov.w	r6, #131072	; 0x20000
  40067e:	612e      	str	r6, [r5, #16]
	base->PIO_OWER = arch_ioport_pin_to_mask(pin);
  400680:	f8c5 60a0 	str.w	r6, [r5, #160]	; 0xa0
		base->PIO_OER = arch_ioport_pin_to_mask(pin);
  400684:	4b64      	ldr	r3, [pc, #400]	; (400818 <ssd1306_init+0x1a4>)
  400686:	2708      	movs	r7, #8
  400688:	611f      	str	r7, [r3, #16]
	base->PIO_OWER = arch_ioport_pin_to_mask(pin);
  40068a:	f8c3 70a0 	str.w	r7, [r3, #160]	; 0xa0
		base->PIO_PUER = mask;
  40068e:	666e      	str	r6, [r5, #100]	; 0x64
		base->PIO_PPDDR = mask;
  400690:	f8c5 6090 	str.w	r6, [r5, #144]	; 0x90
		base->PIO_MDDR = mask;
  400694:	656e      	str	r6, [r5, #84]	; 0x54
		base->PIO_IFDR = mask;
  400696:	626e      	str	r6, [r5, #36]	; 0x24
		base->PIO_IFSCDR = mask;
  400698:	f8c5 6080 	str.w	r6, [r5, #128]	; 0x80
		base->PIO_ABCDSR[0] &= ~mask;
  40069c:	6f2a      	ldr	r2, [r5, #112]	; 0x70
  40069e:	f422 3200 	bic.w	r2, r2, #131072	; 0x20000
  4006a2:	672a      	str	r2, [r5, #112]	; 0x70
		base->PIO_ABCDSR[1] &= ~mask;
  4006a4:	6f6a      	ldr	r2, [r5, #116]	; 0x74
  4006a6:	f422 3200 	bic.w	r2, r2, #131072	; 0x20000
  4006aa:	676a      	str	r2, [r5, #116]	; 0x74
		base->PIO_PUER = mask;
  4006ac:	665f      	str	r7, [r3, #100]	; 0x64
		base->PIO_PPDDR = mask;
  4006ae:	f8c3 7090 	str.w	r7, [r3, #144]	; 0x90
		base->PIO_MDDR = mask;
  4006b2:	655f      	str	r7, [r3, #84]	; 0x54
		base->PIO_IFDR = mask;
  4006b4:	625f      	str	r7, [r3, #36]	; 0x24
		base->PIO_IFSCDR = mask;
  4006b6:	f8c3 7080 	str.w	r7, [r3, #128]	; 0x80
		base->PIO_ABCDSR[0] &= ~mask;
  4006ba:	6f1a      	ldr	r2, [r3, #112]	; 0x70
  4006bc:	f022 0208 	bic.w	r2, r2, #8
  4006c0:	671a      	str	r2, [r3, #112]	; 0x70
		base->PIO_ABCDSR[1] &= ~mask;
  4006c2:	6f5a      	ldr	r2, [r3, #116]	; 0x74
  4006c4:	f022 0208 	bic.w	r2, r2, #8
  4006c8:	675a      	str	r2, [r3, #116]	; 0x74
	arch_ioport_port_to_base(port)->PIO_PER = mask;
  4006ca:	601f      	str	r7, [r3, #0]
  4006cc:	602e      	str	r6, [r5, #0]
		base->PIO_SODR = arch_ioport_pin_to_mask(pin);
  4006ce:	631f      	str	r7, [r3, #48]	; 0x30
  4006d0:	632e      	str	r6, [r5, #48]	; 0x30
	pio_configure(PIOD, PIO_PERIPH_B, 1 << SPI_CLK_MASK, PIO_DEFAULT);
  4006d2:	f8df 817c 	ldr.w	r8, [pc, #380]	; 400850 <ssd1306_init+0x1dc>
  4006d6:	2300      	movs	r3, #0
  4006d8:	f44f 0280 	mov.w	r2, #4194304	; 0x400000
  4006dc:	f04f 5180 	mov.w	r1, #268435456	; 0x10000000
  4006e0:	4640      	mov	r0, r8
  4006e2:	4c4e      	ldr	r4, [pc, #312]	; (40081c <ssd1306_init+0x1a8>)
  4006e4:	47a0      	blx	r4
	pio_configure(PIOD, PIO_PERIPH_B, 1 << SPI_MOSI_MASK, PIO_DEFAULT);
  4006e6:	2300      	movs	r3, #0
  4006e8:	f44f 1200 	mov.w	r2, #2097152	; 0x200000
  4006ec:	f04f 5180 	mov.w	r1, #268435456	; 0x10000000
  4006f0:	4640      	mov	r0, r8
  4006f2:	47a0      	blx	r4
	pio_configure(PIOD, PIO_PERIPH_B, 1 << SPI_CS_MASK, PIO_DEFAULT);
  4006f4:	2300      	movs	r3, #0
  4006f6:	f04f 7200 	mov.w	r2, #33554432	; 0x2000000
  4006fa:	f04f 5180 	mov.w	r1, #268435456	; 0x10000000
  4006fe:	4640      	mov	r0, r8
  400700:	47a0      	blx	r4
		pio_configure(PIOD, PIO_PERIPH_B, 1 << SPI_CLK_MASK, PIO_DEFAULT);
  400702:	2300      	movs	r3, #0
  400704:	f44f 0280 	mov.w	r2, #4194304	; 0x400000
  400708:	f04f 5180 	mov.w	r1, #268435456	; 0x10000000
  40070c:	4640      	mov	r0, r8
  40070e:	47a0      	blx	r4
		pio_configure(PIOD, PIO_PERIPH_B, 1 << SPI_MOSI_MASK, PIO_DEFAULT);
  400710:	2300      	movs	r3, #0
  400712:	f44f 1200 	mov.w	r2, #2097152	; 0x200000
  400716:	f04f 5180 	mov.w	r1, #268435456	; 0x10000000
  40071a:	4640      	mov	r0, r8
  40071c:	47a0      	blx	r4
		pio_configure(PIOD, PIO_PERIPH_B, 1 << SPI_CS_MASK, PIO_DEFAULT);
  40071e:	2300      	movs	r3, #0
  400720:	f04f 7200 	mov.w	r2, #33554432	; 0x2000000
  400724:	f04f 5180 	mov.w	r1, #268435456	; 0x10000000
  400728:	4640      	mov	r0, r8
  40072a:	47a0      	blx	r4
	p_spi->SPI_CR = SPI_CR_SPIDIS;
  40072c:	4c3c      	ldr	r4, [pc, #240]	; (400820 <ssd1306_init+0x1ac>)
  40072e:	f04f 0902 	mov.w	r9, #2
  400732:	f8c4 9000 	str.w	r9, [r4]
	p_spi->SPI_CR = SPI_CR_SWRST;
  400736:	f04f 0880 	mov.w	r8, #128	; 0x80
  40073a:	f8c4 8000 	str.w	r8, [r4]
	p_spi->SPI_MR |= SPI_MR_MSTR;
  40073e:	6863      	ldr	r3, [r4, #4]
  400740:	f043 0301 	orr.w	r3, r3, #1
  400744:	6063      	str	r3, [r4, #4]
		spi_configure_cs_behavior(SPI0, 1, SPI_CS_KEEP_LOW);
  400746:	463a      	mov	r2, r7
  400748:	2101      	movs	r1, #1
  40074a:	4620      	mov	r0, r4
  40074c:	4b35      	ldr	r3, [pc, #212]	; (400824 <ssd1306_init+0x1b0>)
  40074e:	4798      	blx	r3
		spi_set_clock_polarity(SPI0, 1, 0);
  400750:	2200      	movs	r2, #0
  400752:	2101      	movs	r1, #1
  400754:	4620      	mov	r0, r4
  400756:	4b34      	ldr	r3, [pc, #208]	; (400828 <ssd1306_init+0x1b4>)
  400758:	4798      	blx	r3
		spi_set_clock_phase(SPI0, 1, 0);
  40075a:	2200      	movs	r2, #0
  40075c:	2101      	movs	r1, #1
  40075e:	4620      	mov	r0, r4
  400760:	4b32      	ldr	r3, [pc, #200]	; (40082c <ssd1306_init+0x1b8>)
  400762:	4798      	blx	r3
	p_spi->SPI_MR &= (~SPI_MR_PS);
  400764:	6863      	ldr	r3, [r4, #4]
  400766:	f023 0302 	bic.w	r3, r3, #2
  40076a:	6063      	str	r3, [r4, #4]
		spi_set_bits_per_transfer(SPI0, 1, SPI_CSR_BITS_8_BIT);
  40076c:	2200      	movs	r2, #0
  40076e:	2101      	movs	r1, #1
  400770:	4620      	mov	r0, r4
  400772:	4b2f      	ldr	r3, [pc, #188]	; (400830 <ssd1306_init+0x1bc>)
  400774:	4798      	blx	r3
 *
 * \param p_spi Pointer to an SPI instance.
 */
static inline void spi_disable_loopback(Spi *p_spi)
{
	p_spi->SPI_MR &= (~SPI_MR_LLB);
  400776:	6863      	ldr	r3, [r4, #4]
  400778:	f023 0380 	bic.w	r3, r3, #128	; 0x80
  40077c:	6063      	str	r3, [r4, #4]
	p_spi->SPI_MR |= SPI_MR_MODFDIS;
  40077e:	6863      	ldr	r3, [r4, #4]
  400780:	f043 0310 	orr.w	r3, r3, #16
  400784:	6063      	str	r3, [r4, #4]
		int div = spi_calc_baudrate_div(2000000, sysclk_get_peripheral_hz());
  400786:	492b      	ldr	r1, [pc, #172]	; (400834 <ssd1306_init+0x1c0>)
  400788:	482b      	ldr	r0, [pc, #172]	; (400838 <ssd1306_init+0x1c4>)
  40078a:	4b2c      	ldr	r3, [pc, #176]	; (40083c <ssd1306_init+0x1c8>)
  40078c:	4798      	blx	r3
		spi_set_baudrate_div(SPI0,1, div);
  40078e:	b2c2      	uxtb	r2, r0
  400790:	2101      	movs	r1, #1
  400792:	4620      	mov	r0, r4
  400794:	4b2a      	ldr	r3, [pc, #168]	; (400840 <ssd1306_init+0x1cc>)
  400796:	4798      	blx	r3
		spi_enable_clock(SPI0);
  400798:	4620      	mov	r0, r4
  40079a:	4b2a      	ldr	r3, [pc, #168]	; (400844 <ssd1306_init+0x1d0>)
  40079c:	4798      	blx	r3
	p_spi->SPI_CR = SPI_CR_SPIEN;
  40079e:	2301      	movs	r3, #1
  4007a0:	6023      	str	r3, [r4, #0]
		base->PIO_CODR = arch_ioport_pin_to_mask(pin);
  4007a2:	636e      	str	r6, [r5, #52]	; 0x34
	delay_cycles(delay_10us); // At lest 10us
  4007a4:	f640 30b8 	movw	r0, #3000	; 0xbb8
  4007a8:	4c27      	ldr	r4, [pc, #156]	; (400848 <ssd1306_init+0x1d4>)
  4007aa:	47a0      	blx	r4
		base->PIO_SODR = arch_ioport_pin_to_mask(pin);
  4007ac:	632e      	str	r6, [r5, #48]	; 0x30
	delay_cycles(delay_10us); // At lest 10us
  4007ae:	f640 30b8 	movw	r0, #3000	; 0xbb8
  4007b2:	47a0      	blx	r4
  4007b4:	632e      	str	r6, [r5, #48]	; 0x30
	ssd1306_write_command(SSD1306_CMD_SET_MULTIPLEX_RATIO);
  4007b6:	20a8      	movs	r0, #168	; 0xa8
  4007b8:	4c24      	ldr	r4, [pc, #144]	; (40084c <ssd1306_init+0x1d8>)
  4007ba:	47a0      	blx	r4
	ssd1306_write_command(0x1F);
  4007bc:	201f      	movs	r0, #31
  4007be:	47a0      	blx	r4
	ssd1306_write_command(SSD1306_CMD_SET_DISPLAY_OFFSET);
  4007c0:	20d3      	movs	r0, #211	; 0xd3
  4007c2:	47a0      	blx	r4
	ssd1306_write_command(0x00);
  4007c4:	2000      	movs	r0, #0
  4007c6:	47a0      	blx	r4
	ssd1306_write_command(SSD1306_CMD_SET_DISPLAY_START_LINE(0x00));
  4007c8:	2040      	movs	r0, #64	; 0x40
  4007ca:	47a0      	blx	r4
	ssd1306_write_command(SSD1306_CMD_SET_SEGMENT_RE_MAP_COL127_SEG0);
  4007cc:	20a1      	movs	r0, #161	; 0xa1
  4007ce:	47a0      	blx	r4
	ssd1306_write_command(SSD1306_CMD_SET_COM_OUTPUT_SCAN_DOWN);
  4007d0:	20c8      	movs	r0, #200	; 0xc8
  4007d2:	47a0      	blx	r4
	ssd1306_write_command(SSD1306_CMD_SET_COM_PINS);
  4007d4:	20da      	movs	r0, #218	; 0xda
  4007d6:	47a0      	blx	r4
	ssd1306_write_command(0x02);
  4007d8:	4648      	mov	r0, r9
  4007da:	47a0      	blx	r4
 *
 * \retval contrast the contrast value written to the OLED controller
 */
static inline uint8_t ssd1306_set_contrast(uint8_t contrast)
{
	ssd1306_write_command(SSD1306_CMD_SET_CONTRAST_CONTROL_FOR_BANK0);
  4007dc:	2081      	movs	r0, #129	; 0x81
  4007de:	47a0      	blx	r4
	ssd1306_write_command(contrast);
  4007e0:	208f      	movs	r0, #143	; 0x8f
  4007e2:	47a0      	blx	r4
	ssd1306_write_command(SSD1306_CMD_ENTIRE_DISPLAY_AND_GDDRAM_ON);
  4007e4:	20a4      	movs	r0, #164	; 0xa4
  4007e6:	47a0      	blx	r4
 * This function will disable invert on all pixels on the OLED
 *
 */
static inline void ssd1306_display_invert_disable(void)
{
	ssd1306_write_command(SSD1306_CMD_SET_NORMAL_DISPLAY);
  4007e8:	20a6      	movs	r0, #166	; 0xa6
  4007ea:	47a0      	blx	r4
	ssd1306_write_command(SSD1306_CMD_SET_DISPLAY_CLOCK_DIVIDE_RATIO);
  4007ec:	20d5      	movs	r0, #213	; 0xd5
  4007ee:	47a0      	blx	r4
	ssd1306_write_command(0x80);
  4007f0:	4640      	mov	r0, r8
  4007f2:	47a0      	blx	r4
	ssd1306_write_command(SSD1306_CMD_SET_CHARGE_PUMP_SETTING);
  4007f4:	208d      	movs	r0, #141	; 0x8d
  4007f6:	47a0      	blx	r4
	ssd1306_write_command(0x14);
  4007f8:	2014      	movs	r0, #20
  4007fa:	47a0      	blx	r4
	ssd1306_write_command(SSD1306_CMD_SET_VCOMH_DESELECT_LEVEL);
  4007fc:	20db      	movs	r0, #219	; 0xdb
  4007fe:	47a0      	blx	r4
	ssd1306_write_command(0x40); // Default => 0x20 (0.77*VCC)
  400800:	2040      	movs	r0, #64	; 0x40
  400802:	47a0      	blx	r4
	ssd1306_write_command(SSD1306_CMD_SET_PRE_CHARGE_PERIOD);
  400804:	20d9      	movs	r0, #217	; 0xd9
  400806:	47a0      	blx	r4
	ssd1306_write_command(0xF1);
  400808:	20f1      	movs	r0, #241	; 0xf1
  40080a:	47a0      	blx	r4
	ssd1306_write_command(SSD1306_CMD_SET_DISPLAY_ON);
  40080c:	20af      	movs	r0, #175	; 0xaf
  40080e:	47a0      	blx	r4
  400810:	e8bd 83f8 	ldmia.w	sp!, {r3, r4, r5, r6, r7, r8, r9, pc}
  400814:	400e1200 	.word	0x400e1200
  400818:	400e1000 	.word	0x400e1000
  40081c:	00400c3d 	.word	0x00400c3d
  400820:	40008000 	.word	0x40008000
  400824:	00400263 	.word	0x00400263
  400828:	00400227 	.word	0x00400227
  40082c:	00400245 	.word	0x00400245
  400830:	004002a9 	.word	0x004002a9
  400834:	08f0d180 	.word	0x08f0d180
  400838:	001e8480 	.word	0x001e8480
  40083c:	004002bd 	.word	0x004002bd
  400840:	004002d3 	.word	0x004002d3
  400844:	004001b1 	.word	0x004001b1
  400848:	20400001 	.word	0x20400001
  40084c:	00400635 	.word	0x00400635
  400850:	400e1400 	.word	0x400e1400

00400854 <ssd1306_write_data>:
 * data write function is called based on the selected interface.
 *
 * \param data the data to write
 */
void ssd1306_write_data(uint8_t data)
{
  400854:	b538      	push	{r3, r4, r5, lr}
  400856:	4605      	mov	r5, r0
  400858:	2208      	movs	r2, #8
  40085a:	4b09      	ldr	r3, [pc, #36]	; (400880 <ssd1306_write_data+0x2c>)
  40085c:	631a      	str	r2, [r3, #48]	; 0x30
	ioport_set_pin_level(SSD1306_DC_PIN, true);
	
	spi_set_peripheral_chip_select_value(SPI0, 1);
  40085e:	4c09      	ldr	r4, [pc, #36]	; (400884 <ssd1306_write_data+0x30>)
  400860:	2101      	movs	r1, #1
  400862:	4620      	mov	r0, r4
  400864:	4b08      	ldr	r3, [pc, #32]	; (400888 <ssd1306_write_data+0x34>)
  400866:	4798      	blx	r3
	spi_write(SPI0, data, 1, 1);
  400868:	2301      	movs	r3, #1
  40086a:	461a      	mov	r2, r3
  40086c:	4629      	mov	r1, r5
  40086e:	4620      	mov	r0, r4
  400870:	4c06      	ldr	r4, [pc, #24]	; (40088c <ssd1306_write_data+0x38>)
  400872:	47a0      	blx	r4
	delay_us(10);
  400874:	f44f 70fd 	mov.w	r0, #506	; 0x1fa
  400878:	4b05      	ldr	r3, [pc, #20]	; (400890 <ssd1306_write_data+0x3c>)
  40087a:	4798      	blx	r3
  40087c:	bd38      	pop	{r3, r4, r5, pc}
  40087e:	bf00      	nop
  400880:	400e1000 	.word	0x400e1000
  400884:	40008000 	.word	0x40008000
  400888:	004001dd 	.word	0x004001dd
  40088c:	004001f3 	.word	0x004001f3
  400890:	20400001 	.word	0x20400001

00400894 <sysclk_init>:
	pmc_disable_udpck();
}
#endif // CONFIG_USBCLK_SOURCE

void sysclk_init(void)
{
  400894:	b510      	push	{r4, lr}
	struct pll_config pllcfg;

	/* Set flash wait state to max in case the below clock switching. */
	system_init_flash(CHIP_FREQ_CPU_MAX);
  400896:	4810      	ldr	r0, [pc, #64]	; (4008d8 <sysclk_init+0x44>)
  400898:	4b10      	ldr	r3, [pc, #64]	; (4008dc <sysclk_init+0x48>)
  40089a:	4798      	blx	r3
		pmc_switch_mainck_to_fastrc(CKGR_MOR_MOSCRCF_12_MHz);
		break;


	case OSC_MAINCK_XTAL:
		pmc_switch_mainck_to_xtal(PMC_OSC_XTAL,
  40089c:	213e      	movs	r1, #62	; 0x3e
  40089e:	2000      	movs	r0, #0
  4008a0:	4b0f      	ldr	r3, [pc, #60]	; (4008e0 <sysclk_init+0x4c>)
  4008a2:	4798      	blx	r3
	case OSC_MAINCK_4M_RC:
	case OSC_MAINCK_8M_RC:
	case OSC_MAINCK_12M_RC:
	case OSC_MAINCK_XTAL:
	case OSC_MAINCK_BYPASS:
		return pmc_osc_is_ready_mainck();
  4008a4:	4c0f      	ldr	r4, [pc, #60]	; (4008e4 <sysclk_init+0x50>)
  4008a6:	47a0      	blx	r4
 *
 * \param id A number identifying the oscillator to wait for.
 */
static inline void osc_wait_ready(uint8_t id)
{
	while (!osc_is_ready(id)) {
  4008a8:	2800      	cmp	r0, #0
  4008aa:	d0fc      	beq.n	4008a6 <sysclk_init+0x12>
static inline void pll_enable(const struct pll_config *p_cfg, uint32_t ul_pll_id)
{
	Assert(ul_pll_id < NR_PLLS);

	if (ul_pll_id == PLLA_ID) {
		pmc_disable_pllack(); // Always stop PLL first!
  4008ac:	4b0e      	ldr	r3, [pc, #56]	; (4008e8 <sysclk_init+0x54>)
  4008ae:	4798      	blx	r3
		PMC->CKGR_PLLAR = CKGR_PLLAR_ONE | p_cfg->ctrl;
  4008b0:	4a0e      	ldr	r2, [pc, #56]	; (4008ec <sysclk_init+0x58>)
  4008b2:	4b0f      	ldr	r3, [pc, #60]	; (4008f0 <sysclk_init+0x5c>)
  4008b4:	629a      	str	r2, [r3, #40]	; 0x28
static inline uint32_t pll_is_locked(uint32_t ul_pll_id)
{
	Assert(ul_pll_id < NR_PLLS);

	if (ul_pll_id == PLLA_ID) {
	return pmc_is_locked_pllack();
  4008b6:	4c0f      	ldr	r4, [pc, #60]	; (4008f4 <sysclk_init+0x60>)
  4008b8:	47a0      	blx	r4
 */
static inline int pll_wait_for_lock(unsigned int pll_id)
{
	Assert(pll_id < NR_PLLS);

	while (!pll_is_locked(pll_id)) {
  4008ba:	2800      	cmp	r0, #0
  4008bc:	d0fc      	beq.n	4008b8 <sysclk_init+0x24>
	else if (CONFIG_SYSCLK_SOURCE == SYSCLK_SRC_PLLACK) {
		pll_enable_source(CONFIG_PLL0_SOURCE);
		pll_config_defaults(&pllcfg, 0);
		pll_enable(&pllcfg, 0);
		pll_wait_for_lock(0);
		pmc_mck_set_division(CONFIG_SYSCLK_DIV);
  4008be:	2002      	movs	r0, #2
  4008c0:	4b0d      	ldr	r3, [pc, #52]	; (4008f8 <sysclk_init+0x64>)
  4008c2:	4798      	blx	r3
		pmc_switch_mck_to_pllack(CONFIG_SYSCLK_PRES);
  4008c4:	2000      	movs	r0, #0
  4008c6:	4b0d      	ldr	r3, [pc, #52]	; (4008fc <sysclk_init+0x68>)
  4008c8:	4798      	blx	r3
		pll_wait_for_lock(1);
		pmc_mck_set_division(CONFIG_SYSCLK_DIV);
		pmc_switch_mck_to_upllck(CONFIG_SYSCLK_PRES);
	}
	/* Update the SystemFrequency variable */
	SystemCoreClockUpdate();
  4008ca:	4b0d      	ldr	r3, [pc, #52]	; (400900 <sysclk_init+0x6c>)
  4008cc:	4798      	blx	r3

	/* Set a flash wait state depending on the new cpu frequency */
	system_init_flash(sysclk_get_cpu_hz());
  4008ce:	4802      	ldr	r0, [pc, #8]	; (4008d8 <sysclk_init+0x44>)
  4008d0:	4b02      	ldr	r3, [pc, #8]	; (4008dc <sysclk_init+0x48>)
  4008d2:	4798      	blx	r3
  4008d4:	bd10      	pop	{r4, pc}
  4008d6:	bf00      	nop
  4008d8:	11e1a300 	.word	0x11e1a300
  4008dc:	004012b1 	.word	0x004012b1
  4008e0:	00400ecd 	.word	0x00400ecd
  4008e4:	00400f21 	.word	0x00400f21
  4008e8:	00400f31 	.word	0x00400f31
  4008ec:	20183f01 	.word	0x20183f01
  4008f0:	400e0600 	.word	0x400e0600
  4008f4:	00400f41 	.word	0x00400f41
  4008f8:	00400e31 	.word	0x00400e31
  4008fc:	00400e69 	.word	0x00400e69
  400900:	004011a5 	.word	0x004011a5

00400904 <_read>:
int __attribute__((weak))
_read (int file, char * ptr, int len); // Remove GCC compiler warning

int __attribute__((weak))
_read (int file, char * ptr, int len)
{
  400904:	e92d 41f0 	stmdb	sp!, {r4, r5, r6, r7, r8, lr}
	int nChars = 0;

	if (file != 0) {
  400908:	b980      	cbnz	r0, 40092c <_read+0x28>
  40090a:	460c      	mov	r4, r1
  40090c:	4690      	mov	r8, r2
		return -1;
	}

	for (; len > 0; --len) {
  40090e:	2a00      	cmp	r2, #0
  400910:	dd0f      	ble.n	400932 <_read+0x2e>
  400912:	188f      	adds	r7, r1, r2
		ptr_get(stdio_base, ptr);
  400914:	4e08      	ldr	r6, [pc, #32]	; (400938 <_read+0x34>)
  400916:	4d09      	ldr	r5, [pc, #36]	; (40093c <_read+0x38>)
  400918:	6830      	ldr	r0, [r6, #0]
  40091a:	4621      	mov	r1, r4
  40091c:	682b      	ldr	r3, [r5, #0]
  40091e:	4798      	blx	r3
		ptr++;
  400920:	3401      	adds	r4, #1
	for (; len > 0; --len) {
  400922:	42bc      	cmp	r4, r7
  400924:	d1f8      	bne.n	400918 <_read+0x14>
		nChars++;
	}
	return nChars;
}
  400926:	4640      	mov	r0, r8
  400928:	e8bd 81f0 	ldmia.w	sp!, {r4, r5, r6, r7, r8, pc}
		return -1;
  40092c:	f04f 38ff 	mov.w	r8, #4294967295
  400930:	e7f9      	b.n	400926 <_read+0x22>
	for (; len > 0; --len) {
  400932:	4680      	mov	r8, r0
  400934:	e7f7      	b.n	400926 <_read+0x22>
  400936:	bf00      	nop
  400938:	20400de8 	.word	0x20400de8
  40093c:	20400de0 	.word	0x20400de0

00400940 <_write>:
int __attribute__((weak))
_write (int file, const char *ptr, int len)
{
	int nChars = 0;

	if ((file != 1) && (file != 2) && (file!=3)) {
  400940:	3801      	subs	r0, #1
  400942:	2802      	cmp	r0, #2
  400944:	d815      	bhi.n	400972 <_write+0x32>
{
  400946:	e92d 41f0 	stmdb	sp!, {r4, r5, r6, r7, r8, lr}
  40094a:	460e      	mov	r6, r1
  40094c:	4614      	mov	r4, r2
		return -1;
	}

	for (; len != 0; --len) {
  40094e:	b19a      	cbz	r2, 400978 <_write+0x38>
  400950:	460d      	mov	r5, r1
		if (ptr_put(stdio_base, *ptr++) < 0) {
  400952:	f8df 8038 	ldr.w	r8, [pc, #56]	; 40098c <_write+0x4c>
  400956:	4f0c      	ldr	r7, [pc, #48]	; (400988 <_write+0x48>)
  400958:	f8d8 0000 	ldr.w	r0, [r8]
  40095c:	f815 1b01 	ldrb.w	r1, [r5], #1
  400960:	683b      	ldr	r3, [r7, #0]
  400962:	4798      	blx	r3
  400964:	2800      	cmp	r0, #0
  400966:	db0a      	blt.n	40097e <_write+0x3e>
  400968:	1ba8      	subs	r0, r5, r6
	for (; len != 0; --len) {
  40096a:	3c01      	subs	r4, #1
  40096c:	d1f4      	bne.n	400958 <_write+0x18>
  40096e:	e8bd 81f0 	ldmia.w	sp!, {r4, r5, r6, r7, r8, pc}
		return -1;
  400972:	f04f 30ff 	mov.w	r0, #4294967295
  400976:	4770      	bx	lr
	for (; len != 0; --len) {
  400978:	4610      	mov	r0, r2
  40097a:	e8bd 81f0 	ldmia.w	sp!, {r4, r5, r6, r7, r8, pc}
			return -1;
  40097e:	f04f 30ff 	mov.w	r0, #4294967295
		}
		++nChars;
	}
	return nChars;
}
  400982:	e8bd 81f0 	ldmia.w	sp!, {r4, r5, r6, r7, r8, pc}
  400986:	bf00      	nop
  400988:	20400de4 	.word	0x20400de4
  40098c:	20400de8 	.word	0x20400de8

00400990 <board_init>:
	__ISB();
}
#endif

void board_init(void)
{
  400990:	b5f8      	push	{r3, r4, r5, r6, r7, lr}
#ifndef CONF_BOARD_KEEP_WATCHDOG_AT_INIT
	/* Disable the watchdog */
	WDT->WDT_MR = WDT_MR_WDDIS;
  400992:	f44f 4200 	mov.w	r2, #32768	; 0x8000
  400996:	4b5c      	ldr	r3, [pc, #368]	; (400b08 <board_init+0x178>)
  400998:	605a      	str	r2, [r3, #4]
    This function acts as a special kind of Data Memory Barrier.
    It completes when all explicit memory accesses before this instruction complete.
 */
__attribute__( ( always_inline ) ) __STATIC_INLINE void __DSB(void)
{
  __ASM volatile ("dsb");
  40099a:	f3bf 8f4f 	dsb	sy
  __ASM volatile ("isb");
  40099e:	f3bf 8f6f 	isb	sy
__STATIC_INLINE void SCB_EnableICache(void)
{
  #if (__ICACHE_PRESENT == 1)
    __DSB();
    __ISB();
    SCB->ICIALLU = 0;                       // invalidate I-Cache
  4009a2:	4b5a      	ldr	r3, [pc, #360]	; (400b0c <board_init+0x17c>)
  4009a4:	2200      	movs	r2, #0
  4009a6:	f8c3 2250 	str.w	r2, [r3, #592]	; 0x250
    SCB->CCR |=  SCB_CCR_IC_Msk;            // enable I-Cache
  4009aa:	695a      	ldr	r2, [r3, #20]
  4009ac:	f442 3200 	orr.w	r2, r2, #131072	; 0x20000
  4009b0:	615a      	str	r2, [r3, #20]
  __ASM volatile ("dsb");
  4009b2:	f3bf 8f4f 	dsb	sy
  __ASM volatile ("isb");
  4009b6:	f3bf 8f6f 	isb	sy
{
  #if (__DCACHE_PRESENT == 1)
    uint32_t ccsidr, sshift, wshift, sw;
    uint32_t sets, ways;

    ccsidr  = SCB->CCSIDR;
  4009ba:	f8d3 7080 	ldr.w	r7, [r3, #128]	; 0x80
    sets    = CCSIDR_SETS(ccsidr);
  4009be:	f3c7 364e 	ubfx	r6, r7, #13, #15
    sshift  = CCSIDR_LSSHIFT(ccsidr) + 4;
  4009c2:	f007 0007 	and.w	r0, r7, #7
  4009c6:	3004      	adds	r0, #4
    ways    = CCSIDR_WAYS(ccsidr);
  4009c8:	f3c7 07c9 	ubfx	r7, r7, #3, #10
 */
__attribute__( ( always_inline ) ) __STATIC_INLINE uint8_t __CLZ(uint32_t value)
{
  uint32_t result;

  __ASM volatile ("clz %0, %1" : "=r" (result) : "r" (value) );
  4009cc:	fab7 fe87 	clz	lr, r7
    wshift  = __CLZ(ways) & 0x1f;
  4009d0:	f00e 0e1f 	and.w	lr, lr, #31
  __ASM volatile ("dsb");
  4009d4:	f3bf 8f4f 	dsb	sy
  4009d8:	f04f 34ff 	mov.w	r4, #4294967295
  4009dc:	fa04 fc00 	lsl.w	ip, r4, r0
  4009e0:	fa06 f000 	lsl.w	r0, r6, r0
  4009e4:	fa04 f40e 	lsl.w	r4, r4, lr
  4009e8:	fa07 fe0e 	lsl.w	lr, r7, lr

    do {                                    // invalidate D-Cache
         int32_t tmpways = ways;
         do {
              sw = ((tmpways << wshift) | (sets << sshift));
              SCB->DCISW = sw;
  4009ec:	461d      	mov	r5, r3
         int32_t tmpways = ways;
  4009ee:	463a      	mov	r2, r7
  4009f0:	4673      	mov	r3, lr
              sw = ((tmpways << wshift) | (sets << sshift));
  4009f2:	ea40 0103 	orr.w	r1, r0, r3
              SCB->DCISW = sw;
  4009f6:	f8c5 1260 	str.w	r1, [r5, #608]	; 0x260
            } while(tmpways--);
  4009fa:	3a01      	subs	r2, #1
  4009fc:	4423      	add	r3, r4
  4009fe:	f1b2 3fff 	cmp.w	r2, #4294967295
  400a02:	d1f6      	bne.n	4009f2 <board_init+0x62>
        } while(sets--);
  400a04:	3e01      	subs	r6, #1
  400a06:	4460      	add	r0, ip
  400a08:	f1b6 3fff 	cmp.w	r6, #4294967295
  400a0c:	d1ef      	bne.n	4009ee <board_init+0x5e>
  400a0e:	f3bf 8f4f 	dsb	sy
    __DSB();

    SCB->CCR |=  SCB_CCR_DC_Msk;            // enable D-Cache
  400a12:	4b3e      	ldr	r3, [pc, #248]	; (400b0c <board_init+0x17c>)
  400a14:	695a      	ldr	r2, [r3, #20]
  400a16:	f442 3280 	orr.w	r2, r2, #65536	; 0x10000
  400a1a:	615a      	str	r2, [r3, #20]
  400a1c:	f3bf 8f4f 	dsb	sy
  __ASM volatile ("isb");
  400a20:	f3bf 8f6f 	isb	sy
		*dst++ = *src++;
	}
#endif
#else
	/* TCM Configuration */
	EFC->EEFC_FCR = (EEFC_FCR_FKEY_PASSWD | EEFC_FCR_FCMD_CGPB 
  400a24:	4a3a      	ldr	r2, [pc, #232]	; (400b10 <board_init+0x180>)
  400a26:	493b      	ldr	r1, [pc, #236]	; (400b14 <board_init+0x184>)
  400a28:	6051      	str	r1, [r2, #4]
					| EEFC_FCR_FARG(8));
	EFC->EEFC_FCR = (EEFC_FCR_FKEY_PASSWD | EEFC_FCR_FCMD_CGPB 
  400a2a:	f5a1 7180 	sub.w	r1, r1, #256	; 0x100
  400a2e:	6051      	str	r1, [r2, #4]
  __ASM volatile ("dsb");
  400a30:	f3bf 8f4f 	dsb	sy
  __ASM volatile ("isb");
  400a34:	f3bf 8f6f 	isb	sy
	SCB->ITCMCR &= ~(uint32_t)(1UL);
  400a38:	f8d3 2290 	ldr.w	r2, [r3, #656]	; 0x290
  400a3c:	f022 0201 	bic.w	r2, r2, #1
  400a40:	f8c3 2290 	str.w	r2, [r3, #656]	; 0x290
	SCB->DTCMCR &= ~(uint32_t)SCB_DTCMCR_EN_Msk;
  400a44:	f8d3 2294 	ldr.w	r2, [r3, #660]	; 0x294
  400a48:	f022 0201 	bic.w	r2, r2, #1
  400a4c:	f8c3 2294 	str.w	r2, [r3, #660]	; 0x294
  __ASM volatile ("dsb");
  400a50:	f3bf 8f4f 	dsb	sy
  __ASM volatile ("isb");
  400a54:	f3bf 8f6f 	isb	sy
  400a58:	200a      	movs	r0, #10
  400a5a:	4c2f      	ldr	r4, [pc, #188]	; (400b18 <board_init+0x188>)
  400a5c:	47a0      	blx	r4
  400a5e:	200b      	movs	r0, #11
  400a60:	47a0      	blx	r4
  400a62:	200c      	movs	r0, #12
  400a64:	47a0      	blx	r4
  400a66:	2010      	movs	r0, #16
  400a68:	47a0      	blx	r4
  400a6a:	2011      	movs	r0, #17
  400a6c:	47a0      	blx	r4
		base->PIO_OER = arch_ioport_pin_to_mask(pin);
  400a6e:	4b2b      	ldr	r3, [pc, #172]	; (400b1c <board_init+0x18c>)
  400a70:	f44f 7280 	mov.w	r2, #256	; 0x100
  400a74:	611a      	str	r2, [r3, #16]
	base->PIO_OWER = arch_ioport_pin_to_mask(pin);
  400a76:	f8c3 20a0 	str.w	r2, [r3, #160]	; 0xa0
		base->PIO_SODR = arch_ioport_pin_to_mask(pin);
  400a7a:	631a      	str	r2, [r3, #48]	; 0x30
		base->PIO_ODR = arch_ioport_pin_to_mask(pin);
  400a7c:	f5a3 6380 	sub.w	r3, r3, #1024	; 0x400
  400a80:	f44f 6200 	mov.w	r2, #2048	; 0x800
  400a84:	615a      	str	r2, [r3, #20]
	base->PIO_OWER = arch_ioport_pin_to_mask(pin);
  400a86:	f8c3 20a0 	str.w	r2, [r3, #160]	; 0xa0
		base->PIO_PUER = mask;
  400a8a:	665a      	str	r2, [r3, #100]	; 0x64
		base->PIO_PPDDR = mask;
  400a8c:	f8c3 2090 	str.w	r2, [r3, #144]	; 0x90
		base->PIO_MDDR = mask;
  400a90:	655a      	str	r2, [r3, #84]	; 0x54
		base->PIO_IFER = mask;
  400a92:	621a      	str	r2, [r3, #32]
		base->PIO_IFSCER = mask;
  400a94:	f8c3 2084 	str.w	r2, [r3, #132]	; 0x84
		base->PIO_ABCDSR[0] &= ~mask;
  400a98:	6f19      	ldr	r1, [r3, #112]	; 0x70
  400a9a:	f421 6100 	bic.w	r1, r1, #2048	; 0x800
  400a9e:	6719      	str	r1, [r3, #112]	; 0x70
		base->PIO_ABCDSR[1] &= ~mask;
  400aa0:	6f59      	ldr	r1, [r3, #116]	; 0x74
  400aa2:	f421 6100 	bic.w	r1, r1, #2048	; 0x800
  400aa6:	6759      	str	r1, [r3, #116]	; 0x74
	case IOPORT_SENSE_FALLING:
		base->PIO_ESR = mask;
		base->PIO_FELLSR = mask;
		break;
	case IOPORT_SENSE_RISING:
		base->PIO_ESR = mask;
  400aa8:	f8c3 20c0 	str.w	r2, [r3, #192]	; 0xc0
		base->PIO_REHLSR = mask;
  400aac:	f8c3 20d4 	str.w	r2, [r3, #212]	; 0xd4
		break;
	default:
		base->PIO_AIMDR = mask;
		return;
	}
	base->PIO_AIMER = mask;
  400ab0:	f8c3 20b0 	str.w	r2, [r3, #176]	; 0xb0
		base->PIO_PUDR = mask;
  400ab4:	f44f 1200 	mov.w	r2, #2097152	; 0x200000
  400ab8:	661a      	str	r2, [r3, #96]	; 0x60
		base->PIO_PPDDR = mask;
  400aba:	f8c3 2090 	str.w	r2, [r3, #144]	; 0x90
		base->PIO_MDDR = mask;
  400abe:	655a      	str	r2, [r3, #84]	; 0x54
		base->PIO_IFDR = mask;
  400ac0:	625a      	str	r2, [r3, #36]	; 0x24
		base->PIO_IFSCDR = mask;
  400ac2:	f8c3 2080 	str.w	r2, [r3, #128]	; 0x80
		base->PIO_ABCDSR[0] &= ~mask;
  400ac6:	6f19      	ldr	r1, [r3, #112]	; 0x70
  400ac8:	f421 1100 	bic.w	r1, r1, #2097152	; 0x200000
  400acc:	6719      	str	r1, [r3, #112]	; 0x70
		base->PIO_ABCDSR[1] &= ~mask;
  400ace:	6f59      	ldr	r1, [r3, #116]	; 0x74
  400ad0:	f421 1100 	bic.w	r1, r1, #2097152	; 0x200000
  400ad4:	6759      	str	r1, [r3, #116]	; 0x74
	arch_ioport_port_to_base(port)->PIO_PDR = mask;
  400ad6:	605a      	str	r2, [r3, #4]
			GPIO_PUSH_BUTTON_1_SENSE);

#ifdef CONF_BOARD_UART_CONSOLE
	/* Configure UART pins */
	ioport_set_pin_peripheral_mode(USART1_RXD_GPIO, USART1_RXD_FLAGS);
	MATRIX->CCFG_SYSIO |= CCFG_SYSIO_SYSIO4;
  400ad8:	4a11      	ldr	r2, [pc, #68]	; (400b20 <board_init+0x190>)
  400ada:	f8d2 3114 	ldr.w	r3, [r2, #276]	; 0x114
  400ade:	f043 0310 	orr.w	r3, r3, #16
  400ae2:	f8c2 3114 	str.w	r3, [r2, #276]	; 0x114
		base->PIO_PUDR = mask;
  400ae6:	4b0f      	ldr	r3, [pc, #60]	; (400b24 <board_init+0x194>)
  400ae8:	2210      	movs	r2, #16
  400aea:	661a      	str	r2, [r3, #96]	; 0x60
		base->PIO_PPDDR = mask;
  400aec:	f8c3 2090 	str.w	r2, [r3, #144]	; 0x90
		base->PIO_MDDR = mask;
  400af0:	655a      	str	r2, [r3, #84]	; 0x54
		base->PIO_IFDR = mask;
  400af2:	625a      	str	r2, [r3, #36]	; 0x24
		base->PIO_IFSCDR = mask;
  400af4:	f8c3 2080 	str.w	r2, [r3, #128]	; 0x80
		base->PIO_ABCDSR[0] |= mask;
  400af8:	6f19      	ldr	r1, [r3, #112]	; 0x70
  400afa:	4311      	orrs	r1, r2
  400afc:	6719      	str	r1, [r3, #112]	; 0x70
		base->PIO_ABCDSR[1] |= mask;
  400afe:	6f59      	ldr	r1, [r3, #116]	; 0x74
  400b00:	4311      	orrs	r1, r2
  400b02:	6759      	str	r1, [r3, #116]	; 0x74
	arch_ioport_port_to_base(port)->PIO_PDR = mask;
  400b04:	605a      	str	r2, [r3, #4]
  400b06:	bdf8      	pop	{r3, r4, r5, r6, r7, pc}
  400b08:	400e1850 	.word	0x400e1850
  400b0c:	e000ed00 	.word	0xe000ed00
  400b10:	400e0c00 	.word	0x400e0c00
  400b14:	5a00080c 	.word	0x5a00080c
  400b18:	00400f51 	.word	0x00400f51
  400b1c:	400e1200 	.word	0x400e1200
  400b20:	40088000 	.word	0x40088000
  400b24:	400e1000 	.word	0x400e1000

00400b28 <pio_set_debounce_filter>:
void pio_set_debounce_filter(Pio *p_pio, const uint32_t ul_mask,
		const uint32_t ul_cut_off)
{
#if (SAM3S || SAM3N || SAM4S || SAM4E || SAM4N || SAM4C || SAMG || SAM4CP || SAM4CM || SAMV71 || SAMV70 || SAME70 || SAMS70)
	/* Set Debouncing, 0 bit field no effect */
	p_pio->PIO_IFSCER = ul_mask;
  400b28:	f8c0 1084 	str.w	r1, [r0, #132]	; 0x84
	/*
	 * The debouncing filter can filter a pulse of less than 1/2 Period of a
	 * programmable Divided Slow Clock:
	 * Tdiv_slclk = ((DIV+1)*2).Tslow_clock
	 */
	p_pio->PIO_SCDR = PIO_SCDR_DIV((FREQ_SLOW_CLOCK_EXT /
  400b2c:	0053      	lsls	r3, r2, #1
  400b2e:	f44f 4200 	mov.w	r2, #32768	; 0x8000
  400b32:	fbb2 f2f3 	udiv	r2, r2, r3
  400b36:	3a01      	subs	r2, #1
  400b38:	f3c2 020d 	ubfx	r2, r2, #0, #14
  400b3c:	f8c0 208c 	str.w	r2, [r0, #140]	; 0x8c
  400b40:	4770      	bx	lr

00400b42 <pio_set>:
 * \param p_pio Pointer to a PIO instance.
 * \param ul_mask Bitmask of one or more pin(s) to configure.
 */
void pio_set(Pio *p_pio, const uint32_t ul_mask)
{
	p_pio->PIO_SODR = ul_mask;
  400b42:	6301      	str	r1, [r0, #48]	; 0x30
  400b44:	4770      	bx	lr

00400b46 <pio_clear>:
 * \param p_pio Pointer to a PIO instance.
 * \param ul_mask Bitmask of one or more pin(s) to configure.
 */
void pio_clear(Pio *p_pio, const uint32_t ul_mask)
{
	p_pio->PIO_CODR = ul_mask;
  400b46:	6341      	str	r1, [r0, #52]	; 0x34
  400b48:	4770      	bx	lr

00400b4a <pio_set_peripheral>:
		const uint32_t ul_mask)
{
	uint32_t ul_sr;

	/* Disable interrupts on the pin(s) */
	p_pio->PIO_IDR = ul_mask;
  400b4a:	6442      	str	r2, [r0, #68]	; 0x44

#if (SAM3S || SAM3N || SAM4S || SAM4E || SAM4N || SAM4C || SAMG || SAM4CP || SAM4CM || SAMV71 || SAMV70 || SAME70 || SAMS70)
	switch (ul_type) {
  400b4c:	f1b1 5fc0 	cmp.w	r1, #402653184	; 0x18000000
  400b50:	d03a      	beq.n	400bc8 <pio_set_peripheral+0x7e>
  400b52:	d813      	bhi.n	400b7c <pio_set_peripheral+0x32>
  400b54:	f1b1 6f00 	cmp.w	r1, #134217728	; 0x8000000
  400b58:	d025      	beq.n	400ba6 <pio_set_peripheral+0x5c>
  400b5a:	f1b1 5f80 	cmp.w	r1, #268435456	; 0x10000000
  400b5e:	d10a      	bne.n	400b76 <pio_set_peripheral+0x2c>

		ul_sr = p_pio->PIO_ABCDSR[1];
		p_pio->PIO_ABCDSR[1] &= (~ul_mask & ul_sr);
		break;
	case PIO_PERIPH_B:
		ul_sr = p_pio->PIO_ABCDSR[0];
  400b60:	6f03      	ldr	r3, [r0, #112]	; 0x70
		p_pio->PIO_ABCDSR[0] = (ul_mask | ul_sr);
  400b62:	4313      	orrs	r3, r2
  400b64:	6703      	str	r3, [r0, #112]	; 0x70

		ul_sr = p_pio->PIO_ABCDSR[1];
  400b66:	6f43      	ldr	r3, [r0, #116]	; 0x74
		p_pio->PIO_ABCDSR[1] &= (~ul_mask & ul_sr);
  400b68:	6f41      	ldr	r1, [r0, #116]	; 0x74
  400b6a:	400b      	ands	r3, r1
  400b6c:	ea23 0302 	bic.w	r3, r3, r2
  400b70:	6743      	str	r3, [r0, #116]	; 0x74
#else
#error "Unsupported device"
#endif

	/* Remove the pins from under the control of PIO */
	p_pio->PIO_PDR = ul_mask;
  400b72:	6042      	str	r2, [r0, #4]
  400b74:	4770      	bx	lr
	switch (ul_type) {
  400b76:	2900      	cmp	r1, #0
  400b78:	d1fb      	bne.n	400b72 <pio_set_peripheral+0x28>
  400b7a:	4770      	bx	lr
  400b7c:	f1b1 5f20 	cmp.w	r1, #671088640	; 0x28000000
  400b80:	d021      	beq.n	400bc6 <pio_set_peripheral+0x7c>
  400b82:	d809      	bhi.n	400b98 <pio_set_peripheral+0x4e>
  400b84:	f1b1 5f00 	cmp.w	r1, #536870912	; 0x20000000
  400b88:	d1f3      	bne.n	400b72 <pio_set_peripheral+0x28>
		ul_sr = p_pio->PIO_ABCDSR[0];
  400b8a:	6f03      	ldr	r3, [r0, #112]	; 0x70
		p_pio->PIO_ABCDSR[0] = (ul_mask | ul_sr);
  400b8c:	4313      	orrs	r3, r2
  400b8e:	6703      	str	r3, [r0, #112]	; 0x70
		ul_sr = p_pio->PIO_ABCDSR[1];
  400b90:	6f43      	ldr	r3, [r0, #116]	; 0x74
		p_pio->PIO_ABCDSR[1] = (ul_mask | ul_sr);
  400b92:	4313      	orrs	r3, r2
  400b94:	6743      	str	r3, [r0, #116]	; 0x74
		break;
  400b96:	e7ec      	b.n	400b72 <pio_set_peripheral+0x28>
	switch (ul_type) {
  400b98:	f1b1 5f40 	cmp.w	r1, #805306368	; 0x30000000
  400b9c:	d013      	beq.n	400bc6 <pio_set_peripheral+0x7c>
  400b9e:	f1b1 5f60 	cmp.w	r1, #939524096	; 0x38000000
  400ba2:	d010      	beq.n	400bc6 <pio_set_peripheral+0x7c>
  400ba4:	e7e5      	b.n	400b72 <pio_set_peripheral+0x28>
{
  400ba6:	b410      	push	{r4}
		ul_sr = p_pio->PIO_ABCDSR[0];
  400ba8:	6f01      	ldr	r1, [r0, #112]	; 0x70
		p_pio->PIO_ABCDSR[0] &= (~ul_mask & ul_sr);
  400baa:	6f04      	ldr	r4, [r0, #112]	; 0x70
  400bac:	43d3      	mvns	r3, r2
  400bae:	4021      	ands	r1, r4
  400bb0:	461c      	mov	r4, r3
  400bb2:	4019      	ands	r1, r3
  400bb4:	6701      	str	r1, [r0, #112]	; 0x70
		ul_sr = p_pio->PIO_ABCDSR[1];
  400bb6:	6f43      	ldr	r3, [r0, #116]	; 0x74
		p_pio->PIO_ABCDSR[1] &= (~ul_mask & ul_sr);
  400bb8:	6f41      	ldr	r1, [r0, #116]	; 0x74
  400bba:	400b      	ands	r3, r1
  400bbc:	4023      	ands	r3, r4
  400bbe:	6743      	str	r3, [r0, #116]	; 0x74
	p_pio->PIO_PDR = ul_mask;
  400bc0:	6042      	str	r2, [r0, #4]
}
  400bc2:	f85d 4b04 	ldr.w	r4, [sp], #4
  400bc6:	4770      	bx	lr
		ul_sr = p_pio->PIO_ABCDSR[0];
  400bc8:	6f03      	ldr	r3, [r0, #112]	; 0x70
		p_pio->PIO_ABCDSR[0] &= (~ul_mask & ul_sr);
  400bca:	6f01      	ldr	r1, [r0, #112]	; 0x70
  400bcc:	400b      	ands	r3, r1
  400bce:	ea23 0302 	bic.w	r3, r3, r2
  400bd2:	6703      	str	r3, [r0, #112]	; 0x70
		ul_sr = p_pio->PIO_ABCDSR[1];
  400bd4:	6f43      	ldr	r3, [r0, #116]	; 0x74
		p_pio->PIO_ABCDSR[1] = (ul_mask | ul_sr);
  400bd6:	4313      	orrs	r3, r2
  400bd8:	6743      	str	r3, [r0, #116]	; 0x74
		break;
  400bda:	e7ca      	b.n	400b72 <pio_set_peripheral+0x28>

00400bdc <pio_set_input>:
 * \param p_pio Pointer to a PIO instance.
 * \param ul_mask Interrupt sources bit map.
 */
void pio_disable_interrupt(Pio *p_pio, const uint32_t ul_mask)
{
	p_pio->PIO_IDR = ul_mask;
  400bdc:	6441      	str	r1, [r0, #68]	; 0x44
	if (ul_pull_up_enable) {
  400bde:	f012 0f01 	tst.w	r2, #1
  400be2:	d10d      	bne.n	400c00 <pio_set_input+0x24>
		p_pio->PIO_PUDR = ul_mask;
  400be4:	6601      	str	r1, [r0, #96]	; 0x60
	if (ul_attribute & (PIO_DEGLITCH | PIO_DEBOUNCE)) {
  400be6:	f012 0f0a 	tst.w	r2, #10
  400bea:	d00b      	beq.n	400c04 <pio_set_input+0x28>
		p_pio->PIO_IFER = ul_mask;
  400bec:	6201      	str	r1, [r0, #32]
	if (ul_attribute & PIO_DEGLITCH) {
  400bee:	f012 0f02 	tst.w	r2, #2
  400bf2:	d109      	bne.n	400c08 <pio_set_input+0x2c>
		if (ul_attribute & PIO_DEBOUNCE) {
  400bf4:	f012 0f08 	tst.w	r2, #8
  400bf8:	d008      	beq.n	400c0c <pio_set_input+0x30>
			p_pio->PIO_IFSCER = ul_mask;
  400bfa:	f8c0 1084 	str.w	r1, [r0, #132]	; 0x84
  400bfe:	e005      	b.n	400c0c <pio_set_input+0x30>
		p_pio->PIO_PUER = ul_mask;
  400c00:	6641      	str	r1, [r0, #100]	; 0x64
  400c02:	e7f0      	b.n	400be6 <pio_set_input+0xa>
		p_pio->PIO_IFDR = ul_mask;
  400c04:	6241      	str	r1, [r0, #36]	; 0x24
  400c06:	e7f2      	b.n	400bee <pio_set_input+0x12>
		p_pio->PIO_IFSCDR = ul_mask;
  400c08:	f8c0 1080 	str.w	r1, [r0, #128]	; 0x80
	p_pio->PIO_ODR = ul_mask;
  400c0c:	6141      	str	r1, [r0, #20]
	p_pio->PIO_PER = ul_mask;
  400c0e:	6001      	str	r1, [r0, #0]
  400c10:	4770      	bx	lr

00400c12 <pio_set_output>:
{
  400c12:	b410      	push	{r4}
  400c14:	9c01      	ldr	r4, [sp, #4]
	p_pio->PIO_IDR = ul_mask;
  400c16:	6441      	str	r1, [r0, #68]	; 0x44
	if (ul_pull_up_enable) {
  400c18:	b94c      	cbnz	r4, 400c2e <pio_set_output+0x1c>
		p_pio->PIO_PUDR = ul_mask;
  400c1a:	6601      	str	r1, [r0, #96]	; 0x60
	if (ul_multidrive_enable) {
  400c1c:	b14b      	cbz	r3, 400c32 <pio_set_output+0x20>
		p_pio->PIO_MDER = ul_mask;
  400c1e:	6501      	str	r1, [r0, #80]	; 0x50
	if (ul_default_level) {
  400c20:	b94a      	cbnz	r2, 400c36 <pio_set_output+0x24>
		p_pio->PIO_CODR = ul_mask;
  400c22:	6341      	str	r1, [r0, #52]	; 0x34
	p_pio->PIO_OER = ul_mask;
  400c24:	6101      	str	r1, [r0, #16]
	p_pio->PIO_PER = ul_mask;
  400c26:	6001      	str	r1, [r0, #0]
}
  400c28:	f85d 4b04 	ldr.w	r4, [sp], #4
  400c2c:	4770      	bx	lr
		p_pio->PIO_PUER = ul_mask;
  400c2e:	6641      	str	r1, [r0, #100]	; 0x64
  400c30:	e7f4      	b.n	400c1c <pio_set_output+0xa>
		p_pio->PIO_MDDR = ul_mask;
  400c32:	6541      	str	r1, [r0, #84]	; 0x54
  400c34:	e7f4      	b.n	400c20 <pio_set_output+0xe>
		p_pio->PIO_SODR = ul_mask;
  400c36:	6301      	str	r1, [r0, #48]	; 0x30
  400c38:	e7f4      	b.n	400c24 <pio_set_output+0x12>
	...

00400c3c <pio_configure>:
{
  400c3c:	b570      	push	{r4, r5, r6, lr}
  400c3e:	b082      	sub	sp, #8
  400c40:	4605      	mov	r5, r0
  400c42:	4616      	mov	r6, r2
  400c44:	461c      	mov	r4, r3
	switch (ul_type) {
  400c46:	f1b1 5f00 	cmp.w	r1, #536870912	; 0x20000000
  400c4a:	d014      	beq.n	400c76 <pio_configure+0x3a>
  400c4c:	d90a      	bls.n	400c64 <pio_configure+0x28>
  400c4e:	f1b1 5f40 	cmp.w	r1, #805306368	; 0x30000000
  400c52:	d024      	beq.n	400c9e <pio_configure+0x62>
  400c54:	f1b1 5f60 	cmp.w	r1, #939524096	; 0x38000000
  400c58:	d021      	beq.n	400c9e <pio_configure+0x62>
  400c5a:	f1b1 5f20 	cmp.w	r1, #671088640	; 0x28000000
  400c5e:	d017      	beq.n	400c90 <pio_configure+0x54>
		return 0;
  400c60:	2000      	movs	r0, #0
  400c62:	e01a      	b.n	400c9a <pio_configure+0x5e>
	switch (ul_type) {
  400c64:	f1b1 5f80 	cmp.w	r1, #268435456	; 0x10000000
  400c68:	d005      	beq.n	400c76 <pio_configure+0x3a>
  400c6a:	f1b1 5fc0 	cmp.w	r1, #402653184	; 0x18000000
  400c6e:	d002      	beq.n	400c76 <pio_configure+0x3a>
  400c70:	f1b1 6f00 	cmp.w	r1, #134217728	; 0x8000000
  400c74:	d1f4      	bne.n	400c60 <pio_configure+0x24>
		pio_set_peripheral(p_pio, ul_type, ul_mask);
  400c76:	4632      	mov	r2, r6
  400c78:	4628      	mov	r0, r5
  400c7a:	4b11      	ldr	r3, [pc, #68]	; (400cc0 <pio_configure+0x84>)
  400c7c:	4798      	blx	r3
	if (ul_pull_up_enable) {
  400c7e:	f014 0f01 	tst.w	r4, #1
  400c82:	d102      	bne.n	400c8a <pio_configure+0x4e>
		p_pio->PIO_PUDR = ul_mask;
  400c84:	662e      	str	r6, [r5, #96]	; 0x60
	return 1;
  400c86:	2001      	movs	r0, #1
  400c88:	e007      	b.n	400c9a <pio_configure+0x5e>
		p_pio->PIO_PUER = ul_mask;
  400c8a:	666e      	str	r6, [r5, #100]	; 0x64
	return 1;
  400c8c:	2001      	movs	r0, #1
  400c8e:	e004      	b.n	400c9a <pio_configure+0x5e>
		pio_set_input(p_pio, ul_mask, ul_attribute);
  400c90:	461a      	mov	r2, r3
  400c92:	4631      	mov	r1, r6
  400c94:	4b0b      	ldr	r3, [pc, #44]	; (400cc4 <pio_configure+0x88>)
  400c96:	4798      	blx	r3
	return 1;
  400c98:	2001      	movs	r0, #1
}
  400c9a:	b002      	add	sp, #8
  400c9c:	bd70      	pop	{r4, r5, r6, pc}
		pio_set_output(p_pio, ul_mask, (ul_type == PIO_OUTPUT_1),
  400c9e:	f004 0301 	and.w	r3, r4, #1
  400ca2:	9300      	str	r3, [sp, #0]
  400ca4:	f3c4 0380 	ubfx	r3, r4, #2, #1
  400ca8:	f1b1 5f60 	cmp.w	r1, #939524096	; 0x38000000
  400cac:	bf14      	ite	ne
  400cae:	2200      	movne	r2, #0
  400cb0:	2201      	moveq	r2, #1
  400cb2:	4631      	mov	r1, r6
  400cb4:	4628      	mov	r0, r5
  400cb6:	4c04      	ldr	r4, [pc, #16]	; (400cc8 <pio_configure+0x8c>)
  400cb8:	47a0      	blx	r4
	return 1;
  400cba:	2001      	movs	r0, #1
		break;
  400cbc:	e7ed      	b.n	400c9a <pio_configure+0x5e>
  400cbe:	bf00      	nop
  400cc0:	00400b4b 	.word	0x00400b4b
  400cc4:	00400bdd 	.word	0x00400bdd
  400cc8:	00400c13 	.word	0x00400c13

00400ccc <pio_configure_interrupt>:
	if (ul_attr & PIO_IT_AIME) {
  400ccc:	f012 0f10 	tst.w	r2, #16
  400cd0:	d012      	beq.n	400cf8 <pio_configure_interrupt+0x2c>
		p_pio->PIO_AIMER = ul_mask;
  400cd2:	f8c0 10b0 	str.w	r1, [r0, #176]	; 0xb0
		if (ul_attr & PIO_IT_RE_OR_HL) {
  400cd6:	f012 0f20 	tst.w	r2, #32
  400cda:	d007      	beq.n	400cec <pio_configure_interrupt+0x20>
			p_pio->PIO_REHLSR = ul_mask;
  400cdc:	f8c0 10d4 	str.w	r1, [r0, #212]	; 0xd4
		if (ul_attr & PIO_IT_EDGE) {
  400ce0:	f012 0f40 	tst.w	r2, #64	; 0x40
  400ce4:	d005      	beq.n	400cf2 <pio_configure_interrupt+0x26>
			p_pio->PIO_ESR = ul_mask;
  400ce6:	f8c0 10c0 	str.w	r1, [r0, #192]	; 0xc0
  400cea:	4770      	bx	lr
			p_pio->PIO_FELLSR = ul_mask;
  400cec:	f8c0 10d0 	str.w	r1, [r0, #208]	; 0xd0
  400cf0:	e7f6      	b.n	400ce0 <pio_configure_interrupt+0x14>
			p_pio->PIO_LSR = ul_mask;
  400cf2:	f8c0 10c4 	str.w	r1, [r0, #196]	; 0xc4
  400cf6:	4770      	bx	lr
		p_pio->PIO_AIMDR = ul_mask;
  400cf8:	f8c0 10b4 	str.w	r1, [r0, #180]	; 0xb4
  400cfc:	4770      	bx	lr

00400cfe <pio_enable_interrupt>:
	p_pio->PIO_IER = ul_mask;
  400cfe:	6401      	str	r1, [r0, #64]	; 0x40
  400d00:	4770      	bx	lr

00400d02 <pio_get_interrupt_status>:
 *
 * \return The interrupt status value.
 */
uint32_t pio_get_interrupt_status(const Pio *p_pio)
{
	return p_pio->PIO_ISR;
  400d02:	6cc0      	ldr	r0, [r0, #76]	; 0x4c
}
  400d04:	4770      	bx	lr

00400d06 <pio_get_interrupt_mask>:
 *
 * \return The interrupt mask value.
 */
uint32_t pio_get_interrupt_mask(const Pio *p_pio)
{
	return p_pio->PIO_IMR;
  400d06:	6c80      	ldr	r0, [r0, #72]	; 0x48
}
  400d08:	4770      	bx	lr
	...

00400d0c <pio_handler_process>:
 *
 * \param p_pio PIO controller base address.
 * \param ul_id PIO controller ID.
 */
void pio_handler_process(Pio *p_pio, uint32_t ul_id)
{
  400d0c:	e92d 41f0 	stmdb	sp!, {r4, r5, r6, r7, r8, lr}
  400d10:	4604      	mov	r4, r0
  400d12:	4688      	mov	r8, r1
	uint32_t status;
	uint32_t i;

	/* Read PIO controller status */
	status = pio_get_interrupt_status(p_pio);
  400d14:	4b0e      	ldr	r3, [pc, #56]	; (400d50 <pio_handler_process+0x44>)
  400d16:	4798      	blx	r3
  400d18:	4605      	mov	r5, r0
	status &= pio_get_interrupt_mask(p_pio);
  400d1a:	4620      	mov	r0, r4
  400d1c:	4b0d      	ldr	r3, [pc, #52]	; (400d54 <pio_handler_process+0x48>)
  400d1e:	4798      	blx	r3

	/* Check pending events */
	if (status != 0) {
  400d20:	4005      	ands	r5, r0
  400d22:	d013      	beq.n	400d4c <pio_handler_process+0x40>
  400d24:	4c0c      	ldr	r4, [pc, #48]	; (400d58 <pio_handler_process+0x4c>)
  400d26:	f104 0660 	add.w	r6, r4, #96	; 0x60
  400d2a:	e003      	b.n	400d34 <pio_handler_process+0x28>
							gs_interrupt_sources[i].mask);
					status &= ~(gs_interrupt_sources[i].mask);
				}
			}
			i++;
			if (i >= MAX_INTERRUPT_SOURCES) {
  400d2c:	42b4      	cmp	r4, r6
  400d2e:	d00d      	beq.n	400d4c <pio_handler_process+0x40>
  400d30:	3410      	adds	r4, #16
		while (status != 0) {
  400d32:	b15d      	cbz	r5, 400d4c <pio_handler_process+0x40>
			if (gs_interrupt_sources[i].id == ul_id) {
  400d34:	6820      	ldr	r0, [r4, #0]
  400d36:	4540      	cmp	r0, r8
  400d38:	d1f8      	bne.n	400d2c <pio_handler_process+0x20>
				if ((status & gs_interrupt_sources[i].mask) != 0) {
  400d3a:	6861      	ldr	r1, [r4, #4]
  400d3c:	4229      	tst	r1, r5
  400d3e:	d0f5      	beq.n	400d2c <pio_handler_process+0x20>
					gs_interrupt_sources[i].handler(gs_interrupt_sources[i].id,
  400d40:	68e3      	ldr	r3, [r4, #12]
  400d42:	4798      	blx	r3
					status &= ~(gs_interrupt_sources[i].mask);
  400d44:	6863      	ldr	r3, [r4, #4]
  400d46:	ea25 0503 	bic.w	r5, r5, r3
  400d4a:	e7ef      	b.n	400d2c <pio_handler_process+0x20>
  400d4c:	e8bd 81f0 	ldmia.w	sp!, {r4, r5, r6, r7, r8, pc}
  400d50:	00400d03 	.word	0x00400d03
  400d54:	00400d07 	.word	0x00400d07
  400d58:	20400bf0 	.word	0x20400bf0

00400d5c <pio_handler_set>:
 *
 * \return 0 if successful, 1 if the maximum number of sources has been defined.
 */
uint32_t pio_handler_set(Pio *p_pio, uint32_t ul_id, uint32_t ul_mask,
		uint32_t ul_attr, void (*p_handler) (uint32_t, uint32_t))
{
  400d5c:	b5f8      	push	{r3, r4, r5, r6, r7, lr}
    uint8_t i;
	struct s_interrupt_source *pSource;

	if (gs_ul_nb_sources >= MAX_INTERRUPT_SOURCES)
  400d5e:	4c18      	ldr	r4, [pc, #96]	; (400dc0 <pio_handler_set+0x64>)
  400d60:	6826      	ldr	r6, [r4, #0]
  400d62:	2e06      	cmp	r6, #6
  400d64:	d82a      	bhi.n	400dbc <pio_handler_set+0x60>
  400d66:	f04f 0c00 	mov.w	ip, #0
  400d6a:	4664      	mov	r4, ip
		return 1;

    /* Check interrupt for this pin, if already defined, redefine it. */
	for (i = 0; i <= gs_ul_nb_sources; i++) {
		pSource = &(gs_interrupt_sources[i]);
		if (pSource->id == ul_id && pSource->mask == ul_mask) {
  400d6c:	4f15      	ldr	r7, [pc, #84]	; (400dc4 <pio_handler_set+0x68>)
  400d6e:	e004      	b.n	400d7a <pio_handler_set+0x1e>
	for (i = 0; i <= gs_ul_nb_sources; i++) {
  400d70:	3401      	adds	r4, #1
  400d72:	b2e4      	uxtb	r4, r4
  400d74:	46a4      	mov	ip, r4
  400d76:	42a6      	cmp	r6, r4
  400d78:	d309      	bcc.n	400d8e <pio_handler_set+0x32>
		pSource = &(gs_interrupt_sources[i]);
  400d7a:	46a6      	mov	lr, r4
		if (pSource->id == ul_id && pSource->mask == ul_mask) {
  400d7c:	0125      	lsls	r5, r4, #4
  400d7e:	597d      	ldr	r5, [r7, r5]
  400d80:	428d      	cmp	r5, r1
  400d82:	d1f5      	bne.n	400d70 <pio_handler_set+0x14>
  400d84:	eb07 1504 	add.w	r5, r7, r4, lsl #4
  400d88:	686d      	ldr	r5, [r5, #4]
  400d8a:	4295      	cmp	r5, r2
  400d8c:	d1f0      	bne.n	400d70 <pio_handler_set+0x14>
			break;
		}
	}

	/* Define new source */
	pSource->id = ul_id;
  400d8e:	4d0d      	ldr	r5, [pc, #52]	; (400dc4 <pio_handler_set+0x68>)
  400d90:	ea4f 1e0e 	mov.w	lr, lr, lsl #4
  400d94:	eb05 040e 	add.w	r4, r5, lr
  400d98:	f845 100e 	str.w	r1, [r5, lr]
	pSource->mask = ul_mask;
  400d9c:	6062      	str	r2, [r4, #4]
	pSource->attr = ul_attr;
  400d9e:	60a3      	str	r3, [r4, #8]
	pSource->handler = p_handler;
  400da0:	9906      	ldr	r1, [sp, #24]
  400da2:	60e1      	str	r1, [r4, #12]
	if (i == gs_ul_nb_sources + 1) {
  400da4:	3601      	adds	r6, #1
  400da6:	4566      	cmp	r6, ip
  400da8:	d005      	beq.n	400db6 <pio_handler_set+0x5a>
  400daa:	4611      	mov	r1, r2
		gs_ul_nb_sources++;
	}

	/* Configure interrupt mode */
	pio_configure_interrupt(p_pio, ul_mask, ul_attr);
  400dac:	461a      	mov	r2, r3
  400dae:	4b06      	ldr	r3, [pc, #24]	; (400dc8 <pio_handler_set+0x6c>)
  400db0:	4798      	blx	r3

	return 0;
  400db2:	2000      	movs	r0, #0
  400db4:	bdf8      	pop	{r3, r4, r5, r6, r7, pc}
		gs_ul_nb_sources++;
  400db6:	4902      	ldr	r1, [pc, #8]	; (400dc0 <pio_handler_set+0x64>)
  400db8:	600e      	str	r6, [r1, #0]
  400dba:	e7f6      	b.n	400daa <pio_handler_set+0x4e>
		return 1;
  400dbc:	2001      	movs	r0, #1
}
  400dbe:	bdf8      	pop	{r3, r4, r5, r6, r7, pc}
  400dc0:	20400c60 	.word	0x20400c60
  400dc4:	20400bf0 	.word	0x20400bf0
  400dc8:	00400ccd 	.word	0x00400ccd

00400dcc <PIOA_Handler>:
/**
 * \brief Parallel IO Controller A interrupt handler.
 * Redefined PIOA interrupt handler for NVIC interrupt table.
 */
void PIOA_Handler(void)
{
  400dcc:	b508      	push	{r3, lr}
	pio_handler_process(PIOA, ID_PIOA);
  400dce:	210a      	movs	r1, #10
  400dd0:	4801      	ldr	r0, [pc, #4]	; (400dd8 <PIOA_Handler+0xc>)
  400dd2:	4b02      	ldr	r3, [pc, #8]	; (400ddc <PIOA_Handler+0x10>)
  400dd4:	4798      	blx	r3
  400dd6:	bd08      	pop	{r3, pc}
  400dd8:	400e0e00 	.word	0x400e0e00
  400ddc:	00400d0d 	.word	0x00400d0d

00400de0 <PIOB_Handler>:
/**
 * \brief Parallel IO Controller B interrupt handler
 * Redefined PIOB interrupt handler for NVIC interrupt table.
 */
void PIOB_Handler(void)
{
  400de0:	b508      	push	{r3, lr}
    pio_handler_process(PIOB, ID_PIOB);
  400de2:	210b      	movs	r1, #11
  400de4:	4801      	ldr	r0, [pc, #4]	; (400dec <PIOB_Handler+0xc>)
  400de6:	4b02      	ldr	r3, [pc, #8]	; (400df0 <PIOB_Handler+0x10>)
  400de8:	4798      	blx	r3
  400dea:	bd08      	pop	{r3, pc}
  400dec:	400e1000 	.word	0x400e1000
  400df0:	00400d0d 	.word	0x00400d0d

00400df4 <PIOC_Handler>:
/**
 * \brief Parallel IO Controller C interrupt handler.
 * Redefined PIOC interrupt handler for NVIC interrupt table.
 */
void PIOC_Handler(void)
{
  400df4:	b508      	push	{r3, lr}
	pio_handler_process(PIOC, ID_PIOC);
  400df6:	210c      	movs	r1, #12
  400df8:	4801      	ldr	r0, [pc, #4]	; (400e00 <PIOC_Handler+0xc>)
  400dfa:	4b02      	ldr	r3, [pc, #8]	; (400e04 <PIOC_Handler+0x10>)
  400dfc:	4798      	blx	r3
  400dfe:	bd08      	pop	{r3, pc}
  400e00:	400e1200 	.word	0x400e1200
  400e04:	00400d0d 	.word	0x00400d0d

00400e08 <PIOD_Handler>:
/**
 * \brief Parallel IO Controller D interrupt handler.
 * Redefined PIOD interrupt handler for NVIC interrupt table.
 */
void PIOD_Handler(void)
{
  400e08:	b508      	push	{r3, lr}
	pio_handler_process(PIOD, ID_PIOD);
  400e0a:	2110      	movs	r1, #16
  400e0c:	4801      	ldr	r0, [pc, #4]	; (400e14 <PIOD_Handler+0xc>)
  400e0e:	4b02      	ldr	r3, [pc, #8]	; (400e18 <PIOD_Handler+0x10>)
  400e10:	4798      	blx	r3
  400e12:	bd08      	pop	{r3, pc}
  400e14:	400e1400 	.word	0x400e1400
  400e18:	00400d0d 	.word	0x00400d0d

00400e1c <PIOE_Handler>:
/**
 * \brief Parallel IO Controller E interrupt handler.
 * Redefined PIOE interrupt handler for NVIC interrupt table.
 */
void PIOE_Handler(void)
{
  400e1c:	b508      	push	{r3, lr}
	pio_handler_process(PIOE, ID_PIOE);
  400e1e:	2111      	movs	r1, #17
  400e20:	4801      	ldr	r0, [pc, #4]	; (400e28 <PIOE_Handler+0xc>)
  400e22:	4b02      	ldr	r3, [pc, #8]	; (400e2c <PIOE_Handler+0x10>)
  400e24:	4798      	blx	r3
  400e26:	bd08      	pop	{r3, pc}
  400e28:	400e1600 	.word	0x400e1600
  400e2c:	00400d0d 	.word	0x00400d0d

00400e30 <pmc_mck_set_division>:
 *
 * \param ul_div Division value.
 */
void pmc_mck_set_division(uint32_t ul_div)
{
	switch (ul_div) {
  400e30:	2803      	cmp	r0, #3
  400e32:	d011      	beq.n	400e58 <pmc_mck_set_division+0x28>
  400e34:	2804      	cmp	r0, #4
  400e36:	d012      	beq.n	400e5e <pmc_mck_set_division+0x2e>
		case 1:
			ul_div = PMC_MCKR_MDIV_EQ_PCK;
  400e38:	2802      	cmp	r0, #2
  400e3a:	bf0c      	ite	eq
  400e3c:	f44f 7180 	moveq.w	r1, #256	; 0x100
  400e40:	2100      	movne	r1, #0
		default:
			ul_div = PMC_MCKR_MDIV_EQ_PCK;
			break;
	}
	PMC->PMC_MCKR =
			(PMC->PMC_MCKR & (~PMC_MCKR_MDIV_Msk)) | ul_div;
  400e42:	4a08      	ldr	r2, [pc, #32]	; (400e64 <pmc_mck_set_division+0x34>)
  400e44:	6b13      	ldr	r3, [r2, #48]	; 0x30
  400e46:	f423 7340 	bic.w	r3, r3, #768	; 0x300
  400e4a:	430b      	orrs	r3, r1
	PMC->PMC_MCKR =
  400e4c:	6313      	str	r3, [r2, #48]	; 0x30
	while (!(PMC->PMC_SR & PMC_SR_MCKRDY));
  400e4e:	6e93      	ldr	r3, [r2, #104]	; 0x68
  400e50:	f013 0f08 	tst.w	r3, #8
  400e54:	d0fb      	beq.n	400e4e <pmc_mck_set_division+0x1e>
}
  400e56:	4770      	bx	lr
			ul_div = PMC_MCKR_MDIV_PCK_DIV3;
  400e58:	f44f 7140 	mov.w	r1, #768	; 0x300
			break;
  400e5c:	e7f1      	b.n	400e42 <pmc_mck_set_division+0x12>
			ul_div = PMC_MCKR_MDIV_PCK_DIV4;
  400e5e:	f44f 7100 	mov.w	r1, #512	; 0x200
			break;
  400e62:	e7ee      	b.n	400e42 <pmc_mck_set_division+0x12>
  400e64:	400e0600 	.word	0x400e0600

00400e68 <pmc_switch_mck_to_pllack>:
 */
uint32_t pmc_switch_mck_to_pllack(uint32_t ul_pres)
{
	uint32_t ul_timeout;

	PMC->PMC_MCKR = (PMC->PMC_MCKR & (~PMC_MCKR_PRES_Msk)) | ul_pres;
  400e68:	4a17      	ldr	r2, [pc, #92]	; (400ec8 <pmc_switch_mck_to_pllack+0x60>)
  400e6a:	6b13      	ldr	r3, [r2, #48]	; 0x30
  400e6c:	f023 0370 	bic.w	r3, r3, #112	; 0x70
  400e70:	4318      	orrs	r0, r3
  400e72:	6310      	str	r0, [r2, #48]	; 0x30
	for (ul_timeout = PMC_TIMEOUT; !(PMC->PMC_SR & PMC_SR_MCKRDY);
  400e74:	6e93      	ldr	r3, [r2, #104]	; 0x68
  400e76:	f013 0f08 	tst.w	r3, #8
  400e7a:	d10a      	bne.n	400e92 <pmc_switch_mck_to_pllack+0x2a>
  400e7c:	f44f 5380 	mov.w	r3, #4096	; 0x1000
  400e80:	4911      	ldr	r1, [pc, #68]	; (400ec8 <pmc_switch_mck_to_pllack+0x60>)
  400e82:	6e8a      	ldr	r2, [r1, #104]	; 0x68
  400e84:	f012 0f08 	tst.w	r2, #8
  400e88:	d103      	bne.n	400e92 <pmc_switch_mck_to_pllack+0x2a>
			--ul_timeout) {
		if (ul_timeout == 0) {
  400e8a:	3b01      	subs	r3, #1
  400e8c:	d1f9      	bne.n	400e82 <pmc_switch_mck_to_pllack+0x1a>
			return 1;
  400e8e:	2001      	movs	r0, #1
  400e90:	4770      	bx	lr
		}
	}

	PMC->PMC_MCKR = (PMC->PMC_MCKR & (~PMC_MCKR_CSS_Msk)) |
  400e92:	4a0d      	ldr	r2, [pc, #52]	; (400ec8 <pmc_switch_mck_to_pllack+0x60>)
  400e94:	6b13      	ldr	r3, [r2, #48]	; 0x30
  400e96:	f023 0303 	bic.w	r3, r3, #3
  400e9a:	f043 0302 	orr.w	r3, r3, #2
  400e9e:	6313      	str	r3, [r2, #48]	; 0x30
			PMC_MCKR_CSS_PLLA_CLK;

	for (ul_timeout = PMC_TIMEOUT; !(PMC->PMC_SR & PMC_SR_MCKRDY);
  400ea0:	6e93      	ldr	r3, [r2, #104]	; 0x68
  400ea2:	f013 0f08 	tst.w	r3, #8
  400ea6:	d10a      	bne.n	400ebe <pmc_switch_mck_to_pllack+0x56>
  400ea8:	f44f 5380 	mov.w	r3, #4096	; 0x1000
  400eac:	4906      	ldr	r1, [pc, #24]	; (400ec8 <pmc_switch_mck_to_pllack+0x60>)
  400eae:	6e8a      	ldr	r2, [r1, #104]	; 0x68
  400eb0:	f012 0f08 	tst.w	r2, #8
  400eb4:	d105      	bne.n	400ec2 <pmc_switch_mck_to_pllack+0x5a>
			--ul_timeout) {
		if (ul_timeout == 0) {
  400eb6:	3b01      	subs	r3, #1
  400eb8:	d1f9      	bne.n	400eae <pmc_switch_mck_to_pllack+0x46>
			return 1;
  400eba:	2001      	movs	r0, #1
		}
	}

	return 0;
}
  400ebc:	4770      	bx	lr
	return 0;
  400ebe:	2000      	movs	r0, #0
  400ec0:	4770      	bx	lr
  400ec2:	2000      	movs	r0, #0
  400ec4:	4770      	bx	lr
  400ec6:	bf00      	nop
  400ec8:	400e0600 	.word	0x400e0600

00400ecc <pmc_switch_mainck_to_xtal>:
 */
void pmc_switch_mainck_to_xtal(uint32_t ul_bypass,
		uint32_t ul_xtal_startup_time)
{
	/* Enable Main Xtal oscillator */
	if (ul_bypass) {
  400ecc:	b9a0      	cbnz	r0, 400ef8 <pmc_switch_mainck_to_xtal+0x2c>
		PMC->CKGR_MOR = (PMC->CKGR_MOR & ~CKGR_MOR_MOSCXTEN) |
				CKGR_MOR_KEY_PASSWD | CKGR_MOR_MOSCXTBY |
				CKGR_MOR_MOSCSEL;
	} else {
		PMC->CKGR_MOR = (PMC->CKGR_MOR & ~CKGR_MOR_MOSCXTBY) |
  400ece:	480e      	ldr	r0, [pc, #56]	; (400f08 <pmc_switch_mainck_to_xtal+0x3c>)
  400ed0:	6a03      	ldr	r3, [r0, #32]
				CKGR_MOR_KEY_PASSWD | CKGR_MOR_MOSCXTEN |
				CKGR_MOR_MOSCXTST(ul_xtal_startup_time);
  400ed2:	0209      	lsls	r1, r1, #8
  400ed4:	b289      	uxth	r1, r1
				CKGR_MOR_KEY_PASSWD | CKGR_MOR_MOSCXTEN |
  400ed6:	4a0d      	ldr	r2, [pc, #52]	; (400f0c <pmc_switch_mainck_to_xtal+0x40>)
  400ed8:	401a      	ands	r2, r3
  400eda:	4b0d      	ldr	r3, [pc, #52]	; (400f10 <pmc_switch_mainck_to_xtal+0x44>)
  400edc:	4313      	orrs	r3, r2
  400ede:	4319      	orrs	r1, r3
		PMC->CKGR_MOR = (PMC->CKGR_MOR & ~CKGR_MOR_MOSCXTBY) |
  400ee0:	6201      	str	r1, [r0, #32]
		/* Wait the Xtal to stabilize */
		while (!(PMC->PMC_SR & PMC_SR_MOSCXTS));
  400ee2:	4602      	mov	r2, r0
  400ee4:	6e93      	ldr	r3, [r2, #104]	; 0x68
  400ee6:	f013 0f01 	tst.w	r3, #1
  400eea:	d0fb      	beq.n	400ee4 <pmc_switch_mainck_to_xtal+0x18>

		PMC->CKGR_MOR |= CKGR_MOR_KEY_PASSWD | CKGR_MOR_MOSCSEL;
  400eec:	4a06      	ldr	r2, [pc, #24]	; (400f08 <pmc_switch_mainck_to_xtal+0x3c>)
  400eee:	6a11      	ldr	r1, [r2, #32]
  400ef0:	4b08      	ldr	r3, [pc, #32]	; (400f14 <pmc_switch_mainck_to_xtal+0x48>)
  400ef2:	430b      	orrs	r3, r1
  400ef4:	6213      	str	r3, [r2, #32]
  400ef6:	4770      	bx	lr
		PMC->CKGR_MOR = (PMC->CKGR_MOR & ~CKGR_MOR_MOSCXTEN) |
  400ef8:	4903      	ldr	r1, [pc, #12]	; (400f08 <pmc_switch_mainck_to_xtal+0x3c>)
  400efa:	6a0b      	ldr	r3, [r1, #32]
				CKGR_MOR_KEY_PASSWD | CKGR_MOR_MOSCXTBY |
  400efc:	4a06      	ldr	r2, [pc, #24]	; (400f18 <pmc_switch_mainck_to_xtal+0x4c>)
  400efe:	401a      	ands	r2, r3
  400f00:	4b06      	ldr	r3, [pc, #24]	; (400f1c <pmc_switch_mainck_to_xtal+0x50>)
  400f02:	4313      	orrs	r3, r2
		PMC->CKGR_MOR = (PMC->CKGR_MOR & ~CKGR_MOR_MOSCXTEN) |
  400f04:	620b      	str	r3, [r1, #32]
  400f06:	4770      	bx	lr
  400f08:	400e0600 	.word	0x400e0600
  400f0c:	ffc8fffc 	.word	0xffc8fffc
  400f10:	00370001 	.word	0x00370001
  400f14:	01370000 	.word	0x01370000
  400f18:	fec8fffc 	.word	0xfec8fffc
  400f1c:	01370002 	.word	0x01370002

00400f20 <pmc_osc_is_ready_mainck>:
 * \retval 1 Xtal is ready.
 * \retval 0 Xtal is not ready.
 */
uint32_t pmc_osc_is_ready_mainck(void)
{
	return PMC->PMC_SR & PMC_SR_MOSCSELS;
  400f20:	4b02      	ldr	r3, [pc, #8]	; (400f2c <pmc_osc_is_ready_mainck+0xc>)
  400f22:	6e98      	ldr	r0, [r3, #104]	; 0x68
}
  400f24:	f400 3080 	and.w	r0, r0, #65536	; 0x10000
  400f28:	4770      	bx	lr
  400f2a:	bf00      	nop
  400f2c:	400e0600 	.word	0x400e0600

00400f30 <pmc_disable_pllack>:
void pmc_disable_pllack(void)
{
#if (SAM4C || SAM4CM || SAM4CP || SAMG)
	PMC->CKGR_PLLAR = CKGR_PLLAR_MULA(0);
#else
	PMC->CKGR_PLLAR = CKGR_PLLAR_ONE | CKGR_PLLAR_MULA(0);
  400f30:	f04f 5200 	mov.w	r2, #536870912	; 0x20000000
  400f34:	4b01      	ldr	r3, [pc, #4]	; (400f3c <pmc_disable_pllack+0xc>)
  400f36:	629a      	str	r2, [r3, #40]	; 0x28
  400f38:	4770      	bx	lr
  400f3a:	bf00      	nop
  400f3c:	400e0600 	.word	0x400e0600

00400f40 <pmc_is_locked_pllack>:
 * \retval 0 Not locked.
 * \retval 1 Locked.
 */
uint32_t pmc_is_locked_pllack(void)
{
	return (PMC->PMC_SR & PMC_SR_LOCKA);
  400f40:	4b02      	ldr	r3, [pc, #8]	; (400f4c <pmc_is_locked_pllack+0xc>)
  400f42:	6e98      	ldr	r0, [r3, #104]	; 0x68
}
  400f44:	f000 0002 	and.w	r0, r0, #2
  400f48:	4770      	bx	lr
  400f4a:	bf00      	nop
  400f4c:	400e0600 	.word	0x400e0600

00400f50 <pmc_enable_periph_clk>:
 * \retval 0 Success.
 * \retval 1 Invalid parameter.
 */
uint32_t pmc_enable_periph_clk(uint32_t ul_id)
{
	if (ul_id > MAX_PERIPH_ID) {
  400f50:	283f      	cmp	r0, #63	; 0x3f
  400f52:	d81e      	bhi.n	400f92 <pmc_enable_periph_clk+0x42>
		return 1;
	}

	if (ul_id < 32) {
  400f54:	281f      	cmp	r0, #31
  400f56:	d80c      	bhi.n	400f72 <pmc_enable_periph_clk+0x22>
		if ((PMC->PMC_PCSR0 & (1u << ul_id)) != (1u << ul_id)) {
  400f58:	4b11      	ldr	r3, [pc, #68]	; (400fa0 <pmc_enable_periph_clk+0x50>)
  400f5a:	699a      	ldr	r2, [r3, #24]
  400f5c:	2301      	movs	r3, #1
  400f5e:	4083      	lsls	r3, r0
  400f60:	4393      	bics	r3, r2
  400f62:	d018      	beq.n	400f96 <pmc_enable_periph_clk+0x46>
			PMC->PMC_PCER0 = 1 << ul_id;
  400f64:	2301      	movs	r3, #1
  400f66:	fa03 f000 	lsl.w	r0, r3, r0
  400f6a:	4b0d      	ldr	r3, [pc, #52]	; (400fa0 <pmc_enable_periph_clk+0x50>)
  400f6c:	6118      	str	r0, [r3, #16]
			PMC->PMC_PCER1 = 1 << ul_id;
		}
#endif
	}

	return 0;
  400f6e:	2000      	movs	r0, #0
  400f70:	4770      	bx	lr
		ul_id -= 32;
  400f72:	3820      	subs	r0, #32
		if ((PMC->PMC_PCSR1 & (1u << ul_id)) != (1u << ul_id)) {
  400f74:	4b0a      	ldr	r3, [pc, #40]	; (400fa0 <pmc_enable_periph_clk+0x50>)
  400f76:	f8d3 2108 	ldr.w	r2, [r3, #264]	; 0x108
  400f7a:	2301      	movs	r3, #1
  400f7c:	4083      	lsls	r3, r0
  400f7e:	4393      	bics	r3, r2
  400f80:	d00b      	beq.n	400f9a <pmc_enable_periph_clk+0x4a>
			PMC->PMC_PCER1 = 1 << ul_id;
  400f82:	2301      	movs	r3, #1
  400f84:	fa03 f000 	lsl.w	r0, r3, r0
  400f88:	4b05      	ldr	r3, [pc, #20]	; (400fa0 <pmc_enable_periph_clk+0x50>)
  400f8a:	f8c3 0100 	str.w	r0, [r3, #256]	; 0x100
	return 0;
  400f8e:	2000      	movs	r0, #0
  400f90:	4770      	bx	lr
		return 1;
  400f92:	2001      	movs	r0, #1
  400f94:	4770      	bx	lr
	return 0;
  400f96:	2000      	movs	r0, #0
  400f98:	4770      	bx	lr
  400f9a:	2000      	movs	r0, #0
}
  400f9c:	4770      	bx	lr
  400f9e:	bf00      	nop
  400fa0:	400e0600 	.word	0x400e0600

00400fa4 <uart_write>:
 * \retval 1 I/O Failure, UART is not ready.
 */
uint32_t uart_write(Uart *p_uart, const uint8_t uc_data)
{
	/* Check if the transmitter is ready */
	if (!(p_uart->UART_SR & UART_SR_TXRDY))
  400fa4:	6943      	ldr	r3, [r0, #20]
  400fa6:	f013 0f02 	tst.w	r3, #2
  400faa:	d002      	beq.n	400fb2 <uart_write+0xe>
		return 1;

	/* Send character */
	p_uart->UART_THR = uc_data;
  400fac:	61c1      	str	r1, [r0, #28]
	return 0;
  400fae:	2000      	movs	r0, #0
  400fb0:	4770      	bx	lr
		return 1;
  400fb2:	2001      	movs	r0, #1
}
  400fb4:	4770      	bx	lr

00400fb6 <uart_read>:
 * \retval 1 I/O Failure, UART is not ready.
 */
uint32_t uart_read(Uart *p_uart, uint8_t *puc_data)
{
	/* Check if the receiver is ready */
	if ((p_uart->UART_SR & UART_SR_RXRDY) == 0)
  400fb6:	6943      	ldr	r3, [r0, #20]
  400fb8:	f013 0f01 	tst.w	r3, #1
  400fbc:	d003      	beq.n	400fc6 <uart_read+0x10>
		return 1;

	/* Read character */
	*puc_data = (uint8_t) p_uart->UART_RHR;
  400fbe:	6983      	ldr	r3, [r0, #24]
  400fc0:	700b      	strb	r3, [r1, #0]
	return 0;
  400fc2:	2000      	movs	r0, #0
  400fc4:	4770      	bx	lr
		return 1;
  400fc6:	2001      	movs	r0, #1
}
  400fc8:	4770      	bx	lr

00400fca <usart_set_async_baudrate>:
 * \retval 1 Baud rate set point is out of range for the given input clock
 * frequency.
 */
uint32_t usart_set_async_baudrate(Usart *p_usart,
		uint32_t baudrate, uint32_t ul_mck)
{
  400fca:	b410      	push	{r4}
	uint32_t cd_fp;
	uint32_t cd;
	uint32_t fp;

	/* Calculate the receiver sampling divide of baudrate clock. */
	if (ul_mck >= HIGH_FRQ_SAMPLE_DIV * baudrate) {
  400fcc:	010b      	lsls	r3, r1, #4
  400fce:	4293      	cmp	r3, r2
  400fd0:	d914      	bls.n	400ffc <usart_set_async_baudrate+0x32>
	} else {
		over = LOW_FRQ_SAMPLE_DIV;
	}

	/* Calculate clock divider according to the fraction calculated formula. */
	cd_fp = (8 * ul_mck + (over * baudrate) / 2) / (over * baudrate);
  400fd2:	00c9      	lsls	r1, r1, #3
  400fd4:	084b      	lsrs	r3, r1, #1
  400fd6:	eb03 02c2 	add.w	r2, r3, r2, lsl #3
  400fda:	fbb2 f2f1 	udiv	r2, r2, r1
	cd = cd_fp >> 3;
  400fde:	08d3      	lsrs	r3, r2, #3
	fp = cd_fp & 0x07;
	if (cd < MIN_CD_VALUE || cd > MAX_CD_VALUE) {
  400fe0:	1e5c      	subs	r4, r3, #1
  400fe2:	f64f 71fe 	movw	r1, #65534	; 0xfffe
  400fe6:	428c      	cmp	r4, r1
  400fe8:	d901      	bls.n	400fee <usart_set_async_baudrate+0x24>
		return 1;
  400fea:	2001      	movs	r0, #1
  400fec:	e017      	b.n	40101e <usart_set_async_baudrate+0x54>
	}

	/* Configure the OVER bit in MR register. */
	if (over == 8) {
		p_usart->US_MR |= US_MR_OVER;
  400fee:	6841      	ldr	r1, [r0, #4]
  400ff0:	f441 2100 	orr.w	r1, r1, #524288	; 0x80000
  400ff4:	6041      	str	r1, [r0, #4]
  400ff6:	e00c      	b.n	401012 <usart_set_async_baudrate+0x48>
		return 1;
  400ff8:	2001      	movs	r0, #1
  400ffa:	e010      	b.n	40101e <usart_set_async_baudrate+0x54>
	cd_fp = (8 * ul_mck + (over * baudrate) / 2) / (over * baudrate);
  400ffc:	0859      	lsrs	r1, r3, #1
  400ffe:	eb01 02c2 	add.w	r2, r1, r2, lsl #3
  401002:	fbb2 f2f3 	udiv	r2, r2, r3
	cd = cd_fp >> 3;
  401006:	08d3      	lsrs	r3, r2, #3
	if (cd < MIN_CD_VALUE || cd > MAX_CD_VALUE) {
  401008:	1e5c      	subs	r4, r3, #1
  40100a:	f64f 71fe 	movw	r1, #65534	; 0xfffe
  40100e:	428c      	cmp	r4, r1
  401010:	d8f2      	bhi.n	400ff8 <usart_set_async_baudrate+0x2e>
	}

	/* Configure the baudrate generate register. */
	p_usart->US_BRGR = (cd << US_BRGR_CD_Pos) | (fp << US_BRGR_FP_Pos);
  401012:	0412      	lsls	r2, r2, #16
  401014:	f402 22e0 	and.w	r2, r2, #458752	; 0x70000
  401018:	431a      	orrs	r2, r3
  40101a:	6202      	str	r2, [r0, #32]

	return 0;
  40101c:	2000      	movs	r0, #0
}
  40101e:	f85d 4b04 	ldr.w	r4, [sp], #4
  401022:	4770      	bx	lr

00401024 <usart_reset>:
 *
 * \param p_usart Pointer to a USART instance.
 */
void usart_disable_writeprotect(Usart *p_usart)
{
	p_usart->US_WPMR = US_WPMR_WPKEY_PASSWD;
  401024:	4b08      	ldr	r3, [pc, #32]	; (401048 <usart_reset+0x24>)
  401026:	f8c0 30e4 	str.w	r3, [r0, #228]	; 0xe4
	p_usart->US_MR = 0;
  40102a:	2300      	movs	r3, #0
  40102c:	6043      	str	r3, [r0, #4]
	p_usart->US_RTOR = 0;
  40102e:	6243      	str	r3, [r0, #36]	; 0x24
	p_usart->US_TTGR = 0;
  401030:	6283      	str	r3, [r0, #40]	; 0x28
	p_usart->US_CR = US_CR_RSTTX | US_CR_TXDIS;
  401032:	2388      	movs	r3, #136	; 0x88
  401034:	6003      	str	r3, [r0, #0]
	p_usart->US_CR = US_CR_RSTRX | US_CR_RXDIS;
  401036:	2324      	movs	r3, #36	; 0x24
  401038:	6003      	str	r3, [r0, #0]
	p_usart->US_CR = US_CR_RSTSTA;
  40103a:	f44f 7380 	mov.w	r3, #256	; 0x100
  40103e:	6003      	str	r3, [r0, #0]
	p_usart->US_CR = US_CR_RTSDIS;
  401040:	f44f 2300 	mov.w	r3, #524288	; 0x80000
  401044:	6003      	str	r3, [r0, #0]
  401046:	4770      	bx	lr
  401048:	55534100 	.word	0x55534100

0040104c <usart_init_rs232>:
{
  40104c:	b570      	push	{r4, r5, r6, lr}
  40104e:	4605      	mov	r5, r0
  401050:	460c      	mov	r4, r1
  401052:	4616      	mov	r6, r2
	usart_reset(p_usart);
  401054:	4b0f      	ldr	r3, [pc, #60]	; (401094 <usart_init_rs232+0x48>)
  401056:	4798      	blx	r3
	ul_reg_val = 0;
  401058:	2200      	movs	r2, #0
  40105a:	4b0f      	ldr	r3, [pc, #60]	; (401098 <usart_init_rs232+0x4c>)
  40105c:	601a      	str	r2, [r3, #0]
	if (!p_usart_opt || usart_set_async_baudrate(p_usart,
  40105e:	b1a4      	cbz	r4, 40108a <usart_init_rs232+0x3e>
  401060:	4632      	mov	r2, r6
  401062:	6821      	ldr	r1, [r4, #0]
  401064:	4628      	mov	r0, r5
  401066:	4b0d      	ldr	r3, [pc, #52]	; (40109c <usart_init_rs232+0x50>)
  401068:	4798      	blx	r3
  40106a:	4602      	mov	r2, r0
  40106c:	b978      	cbnz	r0, 40108e <usart_init_rs232+0x42>
	ul_reg_val |= p_usart_opt->char_length | p_usart_opt->parity_type |
  40106e:	6863      	ldr	r3, [r4, #4]
  401070:	68a1      	ldr	r1, [r4, #8]
  401072:	430b      	orrs	r3, r1
  401074:	6921      	ldr	r1, [r4, #16]
  401076:	430b      	orrs	r3, r1
			p_usart_opt->channel_mode | p_usart_opt->stop_bits;
  401078:	68e1      	ldr	r1, [r4, #12]
  40107a:	430b      	orrs	r3, r1
	ul_reg_val |= p_usart_opt->char_length | p_usart_opt->parity_type |
  40107c:	4906      	ldr	r1, [pc, #24]	; (401098 <usart_init_rs232+0x4c>)
  40107e:	600b      	str	r3, [r1, #0]
	p_usart->US_MR |= ul_reg_val;
  401080:	6869      	ldr	r1, [r5, #4]
  401082:	430b      	orrs	r3, r1
  401084:	606b      	str	r3, [r5, #4]
}
  401086:	4610      	mov	r0, r2
  401088:	bd70      	pop	{r4, r5, r6, pc}
		return 1;
  40108a:	2201      	movs	r2, #1
  40108c:	e7fb      	b.n	401086 <usart_init_rs232+0x3a>
  40108e:	2201      	movs	r2, #1
  401090:	e7f9      	b.n	401086 <usart_init_rs232+0x3a>
  401092:	bf00      	nop
  401094:	00401025 	.word	0x00401025
  401098:	20400c64 	.word	0x20400c64
  40109c:	00400fcb 	.word	0x00400fcb

004010a0 <usart_enable_tx>:
	p_usart->US_CR = US_CR_TXEN;
  4010a0:	2340      	movs	r3, #64	; 0x40
  4010a2:	6003      	str	r3, [r0, #0]
  4010a4:	4770      	bx	lr

004010a6 <usart_enable_rx>:
	p_usart->US_CR = US_CR_RXEN;
  4010a6:	2310      	movs	r3, #16
  4010a8:	6003      	str	r3, [r0, #0]
  4010aa:	4770      	bx	lr

004010ac <usart_write>:
	if (!(p_usart->US_CSR & US_CSR_TXRDY)) {
  4010ac:	6943      	ldr	r3, [r0, #20]
  4010ae:	f013 0f02 	tst.w	r3, #2
  4010b2:	d004      	beq.n	4010be <usart_write+0x12>
	p_usart->US_THR = US_THR_TXCHR(c);
  4010b4:	f3c1 0108 	ubfx	r1, r1, #0, #9
  4010b8:	61c1      	str	r1, [r0, #28]
	return 0;
  4010ba:	2000      	movs	r0, #0
  4010bc:	4770      	bx	lr
		return 1;
  4010be:	2001      	movs	r0, #1
}
  4010c0:	4770      	bx	lr

004010c2 <usart_read>:
	if (!(p_usart->US_CSR & US_CSR_RXRDY)) {
  4010c2:	6943      	ldr	r3, [r0, #20]
  4010c4:	f013 0f01 	tst.w	r3, #1
  4010c8:	d005      	beq.n	4010d6 <usart_read+0x14>
	*c = p_usart->US_RHR & US_RHR_RXCHR_Msk;
  4010ca:	6983      	ldr	r3, [r0, #24]
  4010cc:	f3c3 0308 	ubfx	r3, r3, #0, #9
  4010d0:	600b      	str	r3, [r1, #0]
	return 0;
  4010d2:	2000      	movs	r0, #0
  4010d4:	4770      	bx	lr
		return 1;
  4010d6:	2001      	movs	r0, #1
}
  4010d8:	4770      	bx	lr

004010da <Dummy_Handler>:

/**
 * \brief Default interrupt handler for unused IRQs.
 */
void Dummy_Handler(void)
{
  4010da:	e7fe      	b.n	4010da <Dummy_Handler>

004010dc <Reset_Handler>:
{
  4010dc:	b500      	push	{lr}
  4010de:	b083      	sub	sp, #12
        if (pSrc != pDest) {
  4010e0:	4b25      	ldr	r3, [pc, #148]	; (401178 <Reset_Handler+0x9c>)
  4010e2:	4a26      	ldr	r2, [pc, #152]	; (40117c <Reset_Handler+0xa0>)
  4010e4:	429a      	cmp	r2, r3
  4010e6:	d010      	beq.n	40110a <Reset_Handler+0x2e>
                for (; pDest < &_erelocate;) {
  4010e8:	4b25      	ldr	r3, [pc, #148]	; (401180 <Reset_Handler+0xa4>)
  4010ea:	4a23      	ldr	r2, [pc, #140]	; (401178 <Reset_Handler+0x9c>)
  4010ec:	429a      	cmp	r2, r3
  4010ee:	d20c      	bcs.n	40110a <Reset_Handler+0x2e>
  4010f0:	3b01      	subs	r3, #1
  4010f2:	1a9b      	subs	r3, r3, r2
  4010f4:	f023 0303 	bic.w	r3, r3, #3
  4010f8:	3304      	adds	r3, #4
  4010fa:	4413      	add	r3, r2
  4010fc:	491f      	ldr	r1, [pc, #124]	; (40117c <Reset_Handler+0xa0>)
                        *pDest++ = *pSrc++;
  4010fe:	f851 0b04 	ldr.w	r0, [r1], #4
  401102:	f842 0b04 	str.w	r0, [r2], #4
                for (; pDest < &_erelocate;) {
  401106:	429a      	cmp	r2, r3
  401108:	d1f9      	bne.n	4010fe <Reset_Handler+0x22>
        for (pDest = &_szero; pDest < &_ezero;) {
  40110a:	4b1e      	ldr	r3, [pc, #120]	; (401184 <Reset_Handler+0xa8>)
  40110c:	4a1e      	ldr	r2, [pc, #120]	; (401188 <Reset_Handler+0xac>)
  40110e:	429a      	cmp	r2, r3
  401110:	d20a      	bcs.n	401128 <Reset_Handler+0x4c>
  401112:	3b01      	subs	r3, #1
  401114:	1a9b      	subs	r3, r3, r2
  401116:	f023 0303 	bic.w	r3, r3, #3
  40111a:	3304      	adds	r3, #4
  40111c:	4413      	add	r3, r2
                *pDest++ = 0;
  40111e:	2100      	movs	r1, #0
  401120:	f842 1b04 	str.w	r1, [r2], #4
        for (pDest = &_szero; pDest < &_ezero;) {
  401124:	4293      	cmp	r3, r2
  401126:	d1fb      	bne.n	401120 <Reset_Handler+0x44>
        SCB->VTOR = ((uint32_t) pSrc & SCB_VTOR_TBLOFF_Msk);
  401128:	4a18      	ldr	r2, [pc, #96]	; (40118c <Reset_Handler+0xb0>)
  40112a:	4b19      	ldr	r3, [pc, #100]	; (401190 <Reset_Handler+0xb4>)
  40112c:	f023 037f 	bic.w	r3, r3, #127	; 0x7f
  401130:	6093      	str	r3, [r2, #8]
 */
__attribute__( ( always_inline ) ) __STATIC_INLINE uint32_t __get_PRIMASK(void)
{
  uint32_t result;

  __ASM volatile ("MRS %0, primask" : "=r" (result) );
  401132:	f3ef 8310 	mrs	r3, PRIMASK
static volatile uint32_t cpu_irq_critical_section_counter;
static volatile bool     cpu_irq_prev_interrupt_state;

static inline irqflags_t cpu_irq_save(void)
{
	volatile irqflags_t flags = cpu_irq_is_enabled();
  401136:	fab3 f383 	clz	r3, r3
  40113a:	095b      	lsrs	r3, r3, #5
  40113c:	9301      	str	r3, [sp, #4]
  __ASM volatile ("cpsid i" : : : "memory");
  40113e:	b672      	cpsid	i
  __ASM volatile ("dmb");
  401140:	f3bf 8f5f 	dmb	sy
	cpu_irq_disable();
  401144:	2200      	movs	r2, #0
  401146:	4b13      	ldr	r3, [pc, #76]	; (401194 <Reset_Handler+0xb8>)
  401148:	701a      	strb	r2, [r3, #0]
	return flags;
  40114a:	9901      	ldr	r1, [sp, #4]
 */
__always_inline static void fpu_enable(void)
{
	irqflags_t flags;
	flags = cpu_irq_save();
	REG_CPACR |=  (0xFu << 20);
  40114c:	4a12      	ldr	r2, [pc, #72]	; (401198 <Reset_Handler+0xbc>)
  40114e:	6813      	ldr	r3, [r2, #0]
  401150:	f443 0370 	orr.w	r3, r3, #15728640	; 0xf00000
  401154:	6013      	str	r3, [r2, #0]
  __ASM volatile ("dsb");
  401156:	f3bf 8f4f 	dsb	sy
  __ASM volatile ("isb");
  40115a:	f3bf 8f6f 	isb	sy
	return (flags);
}

static inline void cpu_irq_restore(irqflags_t flags)
{
	if (cpu_irq_is_enabled_flags(flags))
  40115e:	b129      	cbz	r1, 40116c <Reset_Handler+0x90>
		cpu_irq_enable();
  401160:	2201      	movs	r2, #1
  401162:	4b0c      	ldr	r3, [pc, #48]	; (401194 <Reset_Handler+0xb8>)
  401164:	701a      	strb	r2, [r3, #0]
  __ASM volatile ("dmb");
  401166:	f3bf 8f5f 	dmb	sy
  __ASM volatile ("cpsie i" : : : "memory");
  40116a:	b662      	cpsie	i
        __libc_init_array();
  40116c:	4b0b      	ldr	r3, [pc, #44]	; (40119c <Reset_Handler+0xc0>)
  40116e:	4798      	blx	r3
        main();
  401170:	4b0b      	ldr	r3, [pc, #44]	; (4011a0 <Reset_Handler+0xc4>)
  401172:	4798      	blx	r3
  401174:	e7fe      	b.n	401174 <Reset_Handler+0x98>
  401176:	bf00      	nop
  401178:	20400000 	.word	0x20400000
  40117c:	0040a20c 	.word	0x0040a20c
  401180:	204009d0 	.word	0x204009d0
  401184:	20400e60 	.word	0x20400e60
  401188:	204009d0 	.word	0x204009d0
  40118c:	e000ed00 	.word	0xe000ed00
  401190:	00400000 	.word	0x00400000
  401194:	20400018 	.word	0x20400018
  401198:	e000ed88 	.word	0xe000ed88
  40119c:	0040371d 	.word	0x0040371d
  4011a0:	00403455 	.word	0x00403455

004011a4 <SystemCoreClockUpdate>:
}

void SystemCoreClockUpdate( void )
{
  /* Determine clock frequency according to clock register values */
  switch (PMC->PMC_MCKR & (uint32_t) PMC_MCKR_CSS_Msk)
  4011a4:	4b3b      	ldr	r3, [pc, #236]	; (401294 <SystemCoreClockUpdate+0xf0>)
  4011a6:	6b1b      	ldr	r3, [r3, #48]	; 0x30
  4011a8:	f003 0303 	and.w	r3, r3, #3
  4011ac:	2b01      	cmp	r3, #1
  4011ae:	d01d      	beq.n	4011ec <SystemCoreClockUpdate+0x48>
  4011b0:	b183      	cbz	r3, 4011d4 <SystemCoreClockUpdate+0x30>
  4011b2:	2b02      	cmp	r3, #2
  4011b4:	d036      	beq.n	401224 <SystemCoreClockUpdate+0x80>

    default:
    break;
  }

  if ( (PMC->PMC_MCKR & PMC_MCKR_PRES_Msk) == PMC_MCKR_PRES_CLK_3 )
  4011b6:	4b37      	ldr	r3, [pc, #220]	; (401294 <SystemCoreClockUpdate+0xf0>)
  4011b8:	6b1b      	ldr	r3, [r3, #48]	; 0x30
  4011ba:	f003 0370 	and.w	r3, r3, #112	; 0x70
  4011be:	2b70      	cmp	r3, #112	; 0x70
  4011c0:	d05f      	beq.n	401282 <SystemCoreClockUpdate+0xde>
  {
    SystemCoreClock /= 3U;
  }
  else
  {
    SystemCoreClock >>= ((PMC->PMC_MCKR & PMC_MCKR_PRES_Msk) >> PMC_MCKR_PRES_Pos);
  4011c2:	4b34      	ldr	r3, [pc, #208]	; (401294 <SystemCoreClockUpdate+0xf0>)
  4011c4:	6b1a      	ldr	r2, [r3, #48]	; 0x30
  4011c6:	4934      	ldr	r1, [pc, #208]	; (401298 <SystemCoreClockUpdate+0xf4>)
  4011c8:	f3c2 1202 	ubfx	r2, r2, #4, #3
  4011cc:	680b      	ldr	r3, [r1, #0]
  4011ce:	40d3      	lsrs	r3, r2
  4011d0:	600b      	str	r3, [r1, #0]
  4011d2:	4770      	bx	lr
      if ( SUPC->SUPC_SR & SUPC_SR_OSCSEL )
  4011d4:	4b31      	ldr	r3, [pc, #196]	; (40129c <SystemCoreClockUpdate+0xf8>)
  4011d6:	695b      	ldr	r3, [r3, #20]
  4011d8:	f013 0f80 	tst.w	r3, #128	; 0x80
        SystemCoreClock = CHIP_FREQ_XTAL_32K;
  4011dc:	bf14      	ite	ne
  4011de:	f44f 4200 	movne.w	r2, #32768	; 0x8000
        SystemCoreClock = CHIP_FREQ_SLCK_RC;
  4011e2:	f44f 42fa 	moveq.w	r2, #32000	; 0x7d00
  4011e6:	4b2c      	ldr	r3, [pc, #176]	; (401298 <SystemCoreClockUpdate+0xf4>)
  4011e8:	601a      	str	r2, [r3, #0]
  4011ea:	e7e4      	b.n	4011b6 <SystemCoreClockUpdate+0x12>
      if ( PMC->CKGR_MOR & CKGR_MOR_MOSCSEL )
  4011ec:	4b29      	ldr	r3, [pc, #164]	; (401294 <SystemCoreClockUpdate+0xf0>)
  4011ee:	6a1b      	ldr	r3, [r3, #32]
  4011f0:	f013 7f80 	tst.w	r3, #16777216	; 0x1000000
  4011f4:	d003      	beq.n	4011fe <SystemCoreClockUpdate+0x5a>
        SystemCoreClock = CHIP_FREQ_XTAL_12M;
  4011f6:	4a2a      	ldr	r2, [pc, #168]	; (4012a0 <SystemCoreClockUpdate+0xfc>)
  4011f8:	4b27      	ldr	r3, [pc, #156]	; (401298 <SystemCoreClockUpdate+0xf4>)
  4011fa:	601a      	str	r2, [r3, #0]
  4011fc:	e7db      	b.n	4011b6 <SystemCoreClockUpdate+0x12>
        SystemCoreClock = CHIP_FREQ_MAINCK_RC_4MHZ;
  4011fe:	4a29      	ldr	r2, [pc, #164]	; (4012a4 <SystemCoreClockUpdate+0x100>)
  401200:	4b25      	ldr	r3, [pc, #148]	; (401298 <SystemCoreClockUpdate+0xf4>)
  401202:	601a      	str	r2, [r3, #0]
        switch ( PMC->CKGR_MOR & CKGR_MOR_MOSCRCF_Msk )
  401204:	4b23      	ldr	r3, [pc, #140]	; (401294 <SystemCoreClockUpdate+0xf0>)
  401206:	6a1b      	ldr	r3, [r3, #32]
  401208:	f003 0370 	and.w	r3, r3, #112	; 0x70
  40120c:	2b10      	cmp	r3, #16
  40120e:	d005      	beq.n	40121c <SystemCoreClockUpdate+0x78>
  401210:	2b20      	cmp	r3, #32
  401212:	d1d0      	bne.n	4011b6 <SystemCoreClockUpdate+0x12>
            SystemCoreClock *= 3U;
  401214:	4a22      	ldr	r2, [pc, #136]	; (4012a0 <SystemCoreClockUpdate+0xfc>)
  401216:	4b20      	ldr	r3, [pc, #128]	; (401298 <SystemCoreClockUpdate+0xf4>)
  401218:	601a      	str	r2, [r3, #0]
          break;
  40121a:	e7cc      	b.n	4011b6 <SystemCoreClockUpdate+0x12>
            SystemCoreClock *= 2U;
  40121c:	4a22      	ldr	r2, [pc, #136]	; (4012a8 <SystemCoreClockUpdate+0x104>)
  40121e:	4b1e      	ldr	r3, [pc, #120]	; (401298 <SystemCoreClockUpdate+0xf4>)
  401220:	601a      	str	r2, [r3, #0]
          break;
  401222:	e7c8      	b.n	4011b6 <SystemCoreClockUpdate+0x12>
      if ( PMC->CKGR_MOR & CKGR_MOR_MOSCSEL )
  401224:	4b1b      	ldr	r3, [pc, #108]	; (401294 <SystemCoreClockUpdate+0xf0>)
  401226:	6a1b      	ldr	r3, [r3, #32]
  401228:	f013 7f80 	tst.w	r3, #16777216	; 0x1000000
  40122c:	d016      	beq.n	40125c <SystemCoreClockUpdate+0xb8>
        SystemCoreClock = CHIP_FREQ_XTAL_12M ;
  40122e:	4a1c      	ldr	r2, [pc, #112]	; (4012a0 <SystemCoreClockUpdate+0xfc>)
  401230:	4b19      	ldr	r3, [pc, #100]	; (401298 <SystemCoreClockUpdate+0xf4>)
  401232:	601a      	str	r2, [r3, #0]
      if ( (uint32_t) (PMC->PMC_MCKR & (uint32_t) PMC_MCKR_CSS_Msk) == PMC_MCKR_CSS_PLLA_CLK )
  401234:	4b17      	ldr	r3, [pc, #92]	; (401294 <SystemCoreClockUpdate+0xf0>)
  401236:	6b1b      	ldr	r3, [r3, #48]	; 0x30
  401238:	f003 0303 	and.w	r3, r3, #3
  40123c:	2b02      	cmp	r3, #2
  40123e:	d1ba      	bne.n	4011b6 <SystemCoreClockUpdate+0x12>
        SystemCoreClock *= ((((PMC->CKGR_PLLAR) & CKGR_PLLAR_MULA_Msk) >> CKGR_PLLAR_MULA_Pos) + 1U);
  401240:	4a14      	ldr	r2, [pc, #80]	; (401294 <SystemCoreClockUpdate+0xf0>)
  401242:	6a91      	ldr	r1, [r2, #40]	; 0x28
        SystemCoreClock /= ((((PMC->CKGR_PLLAR) & CKGR_PLLAR_DIVA_Msk) >> CKGR_PLLAR_DIVA_Pos));
  401244:	6a92      	ldr	r2, [r2, #40]	; 0x28
  401246:	4814      	ldr	r0, [pc, #80]	; (401298 <SystemCoreClockUpdate+0xf4>)
        SystemCoreClock *= ((((PMC->CKGR_PLLAR) & CKGR_PLLAR_MULA_Msk) >> CKGR_PLLAR_MULA_Pos) + 1U);
  401248:	f3c1 410a 	ubfx	r1, r1, #16, #11
  40124c:	6803      	ldr	r3, [r0, #0]
  40124e:	fb01 3303 	mla	r3, r1, r3, r3
        SystemCoreClock /= ((((PMC->CKGR_PLLAR) & CKGR_PLLAR_DIVA_Msk) >> CKGR_PLLAR_DIVA_Pos));
  401252:	b2d2      	uxtb	r2, r2
  401254:	fbb3 f3f2 	udiv	r3, r3, r2
  401258:	6003      	str	r3, [r0, #0]
  40125a:	e7ac      	b.n	4011b6 <SystemCoreClockUpdate+0x12>
        SystemCoreClock = CHIP_FREQ_MAINCK_RC_4MHZ;
  40125c:	4a11      	ldr	r2, [pc, #68]	; (4012a4 <SystemCoreClockUpdate+0x100>)
  40125e:	4b0e      	ldr	r3, [pc, #56]	; (401298 <SystemCoreClockUpdate+0xf4>)
  401260:	601a      	str	r2, [r3, #0]
        switch ( PMC->CKGR_MOR & CKGR_MOR_MOSCRCF_Msk )
  401262:	4b0c      	ldr	r3, [pc, #48]	; (401294 <SystemCoreClockUpdate+0xf0>)
  401264:	6a1b      	ldr	r3, [r3, #32]
  401266:	f003 0370 	and.w	r3, r3, #112	; 0x70
  40126a:	2b10      	cmp	r3, #16
  40126c:	d005      	beq.n	40127a <SystemCoreClockUpdate+0xd6>
  40126e:	2b20      	cmp	r3, #32
  401270:	d1e0      	bne.n	401234 <SystemCoreClockUpdate+0x90>
            SystemCoreClock *= 3U;
  401272:	4a0b      	ldr	r2, [pc, #44]	; (4012a0 <SystemCoreClockUpdate+0xfc>)
  401274:	4b08      	ldr	r3, [pc, #32]	; (401298 <SystemCoreClockUpdate+0xf4>)
  401276:	601a      	str	r2, [r3, #0]
          break;
  401278:	e7dc      	b.n	401234 <SystemCoreClockUpdate+0x90>
            SystemCoreClock *= 2U;
  40127a:	4a0b      	ldr	r2, [pc, #44]	; (4012a8 <SystemCoreClockUpdate+0x104>)
  40127c:	4b06      	ldr	r3, [pc, #24]	; (401298 <SystemCoreClockUpdate+0xf4>)
  40127e:	601a      	str	r2, [r3, #0]
          break;
  401280:	e7d8      	b.n	401234 <SystemCoreClockUpdate+0x90>
    SystemCoreClock /= 3U;
  401282:	4a05      	ldr	r2, [pc, #20]	; (401298 <SystemCoreClockUpdate+0xf4>)
  401284:	6813      	ldr	r3, [r2, #0]
  401286:	4909      	ldr	r1, [pc, #36]	; (4012ac <SystemCoreClockUpdate+0x108>)
  401288:	fba1 1303 	umull	r1, r3, r1, r3
  40128c:	085b      	lsrs	r3, r3, #1
  40128e:	6013      	str	r3, [r2, #0]
  401290:	4770      	bx	lr
  401292:	bf00      	nop
  401294:	400e0600 	.word	0x400e0600
  401298:	2040001c 	.word	0x2040001c
  40129c:	400e1810 	.word	0x400e1810
  4012a0:	00b71b00 	.word	0x00b71b00
  4012a4:	003d0900 	.word	0x003d0900
  4012a8:	007a1200 	.word	0x007a1200
  4012ac:	aaaaaaab 	.word	0xaaaaaaab

004012b0 <system_init_flash>:
 * Initialize flash.
 */
void system_init_flash( uint32_t ul_clk )
{
  /* Set FWS for embedded Flash access according to operating frequency */
  if ( ul_clk < CHIP_FREQ_FWS_0 )
  4012b0:	4b16      	ldr	r3, [pc, #88]	; (40130c <system_init_flash+0x5c>)
  4012b2:	4298      	cmp	r0, r3
  4012b4:	d913      	bls.n	4012de <system_init_flash+0x2e>
  {
    EFC->EEFC_FMR = EEFC_FMR_FWS(0)|EEFC_FMR_CLOE;
  }
  else
  {
    if (ul_clk < CHIP_FREQ_FWS_1)
  4012b6:	4b16      	ldr	r3, [pc, #88]	; (401310 <system_init_flash+0x60>)
  4012b8:	4298      	cmp	r0, r3
  4012ba:	d915      	bls.n	4012e8 <system_init_flash+0x38>
    {
      EFC->EEFC_FMR = EEFC_FMR_FWS(1)|EEFC_FMR_CLOE;
    }
    else
    {
      if (ul_clk < CHIP_FREQ_FWS_2)
  4012bc:	4b15      	ldr	r3, [pc, #84]	; (401314 <system_init_flash+0x64>)
  4012be:	4298      	cmp	r0, r3
  4012c0:	d916      	bls.n	4012f0 <system_init_flash+0x40>
      {
        EFC->EEFC_FMR = EEFC_FMR_FWS(2)|EEFC_FMR_CLOE;
      }
      else
      {
        if ( ul_clk < CHIP_FREQ_FWS_3 )
  4012c2:	4b15      	ldr	r3, [pc, #84]	; (401318 <system_init_flash+0x68>)
  4012c4:	4298      	cmp	r0, r3
  4012c6:	d917      	bls.n	4012f8 <system_init_flash+0x48>
        {
          EFC->EEFC_FMR = EEFC_FMR_FWS(3)|EEFC_FMR_CLOE;
        }
        else
        {
          if ( ul_clk < CHIP_FREQ_FWS_4 )
  4012c8:	4b14      	ldr	r3, [pc, #80]	; (40131c <system_init_flash+0x6c>)
  4012ca:	4298      	cmp	r0, r3
  4012cc:	d918      	bls.n	401300 <system_init_flash+0x50>
          {
            EFC->EEFC_FMR = EEFC_FMR_FWS(4)|EEFC_FMR_CLOE;
          }
          else
          {
            if ( ul_clk < CHIP_FREQ_FWS_5 )
  4012ce:	4b14      	ldr	r3, [pc, #80]	; (401320 <system_init_flash+0x70>)
  4012d0:	4298      	cmp	r0, r3
            {
              EFC->EEFC_FMR = EEFC_FMR_FWS(5)|EEFC_FMR_CLOE;
  4012d2:	bf94      	ite	ls
  4012d4:	4a13      	ldrls	r2, [pc, #76]	; (401324 <system_init_flash+0x74>)
            }
            else
            {
              EFC->EEFC_FMR = EEFC_FMR_FWS(6)|EEFC_FMR_CLOE;
  4012d6:	4a14      	ldrhi	r2, [pc, #80]	; (401328 <system_init_flash+0x78>)
  4012d8:	4b14      	ldr	r3, [pc, #80]	; (40132c <system_init_flash+0x7c>)
  4012da:	601a      	str	r2, [r3, #0]
  4012dc:	4770      	bx	lr
    EFC->EEFC_FMR = EEFC_FMR_FWS(0)|EEFC_FMR_CLOE;
  4012de:	f04f 6280 	mov.w	r2, #67108864	; 0x4000000
  4012e2:	4b12      	ldr	r3, [pc, #72]	; (40132c <system_init_flash+0x7c>)
  4012e4:	601a      	str	r2, [r3, #0]
  4012e6:	4770      	bx	lr
      EFC->EEFC_FMR = EEFC_FMR_FWS(1)|EEFC_FMR_CLOE;
  4012e8:	4a11      	ldr	r2, [pc, #68]	; (401330 <system_init_flash+0x80>)
  4012ea:	4b10      	ldr	r3, [pc, #64]	; (40132c <system_init_flash+0x7c>)
  4012ec:	601a      	str	r2, [r3, #0]
  4012ee:	4770      	bx	lr
        EFC->EEFC_FMR = EEFC_FMR_FWS(2)|EEFC_FMR_CLOE;
  4012f0:	4a10      	ldr	r2, [pc, #64]	; (401334 <system_init_flash+0x84>)
  4012f2:	4b0e      	ldr	r3, [pc, #56]	; (40132c <system_init_flash+0x7c>)
  4012f4:	601a      	str	r2, [r3, #0]
  4012f6:	4770      	bx	lr
          EFC->EEFC_FMR = EEFC_FMR_FWS(3)|EEFC_FMR_CLOE;
  4012f8:	4a0f      	ldr	r2, [pc, #60]	; (401338 <system_init_flash+0x88>)
  4012fa:	4b0c      	ldr	r3, [pc, #48]	; (40132c <system_init_flash+0x7c>)
  4012fc:	601a      	str	r2, [r3, #0]
  4012fe:	4770      	bx	lr
            EFC->EEFC_FMR = EEFC_FMR_FWS(4)|EEFC_FMR_CLOE;
  401300:	f04f 2204 	mov.w	r2, #67109888	; 0x4000400
  401304:	4b09      	ldr	r3, [pc, #36]	; (40132c <system_init_flash+0x7c>)
  401306:	601a      	str	r2, [r3, #0]
  401308:	4770      	bx	lr
  40130a:	bf00      	nop
  40130c:	015ef3bf 	.word	0x015ef3bf
  401310:	02bde77f 	.word	0x02bde77f
  401314:	041cdb3f 	.word	0x041cdb3f
  401318:	057bceff 	.word	0x057bceff
  40131c:	06dac2bf 	.word	0x06dac2bf
  401320:	0839b67f 	.word	0x0839b67f
  401324:	04000500 	.word	0x04000500
  401328:	04000600 	.word	0x04000600
  40132c:	400e0c00 	.word	0x400e0c00
  401330:	04000100 	.word	0x04000100
  401334:	04000200 	.word	0x04000200
  401338:	04000300 	.word	0x04000300

0040133c <_sbrk>:
{
	static unsigned char *heap = NULL;
	unsigned char *prev_heap;
	int ramend = (int)&__ram_end__;

	if (heap == NULL) {
  40133c:	4b0a      	ldr	r3, [pc, #40]	; (401368 <_sbrk+0x2c>)
  40133e:	681b      	ldr	r3, [r3, #0]
  401340:	b153      	cbz	r3, 401358 <_sbrk+0x1c>
		heap = (unsigned char *)&_end;
	}
	prev_heap = heap;
  401342:	4b09      	ldr	r3, [pc, #36]	; (401368 <_sbrk+0x2c>)
  401344:	681b      	ldr	r3, [r3, #0]

	if (((int)prev_heap + incr) > ramend) {
  401346:	181a      	adds	r2, r3, r0
  401348:	4908      	ldr	r1, [pc, #32]	; (40136c <_sbrk+0x30>)
  40134a:	4291      	cmp	r1, r2
  40134c:	db08      	blt.n	401360 <_sbrk+0x24>
		return (caddr_t) -1;	
	}

	heap += incr;
  40134e:	4610      	mov	r0, r2
  401350:	4a05      	ldr	r2, [pc, #20]	; (401368 <_sbrk+0x2c>)
  401352:	6010      	str	r0, [r2, #0]

	return (caddr_t) prev_heap;
  401354:	4618      	mov	r0, r3
  401356:	4770      	bx	lr
		heap = (unsigned char *)&_end;
  401358:	4a05      	ldr	r2, [pc, #20]	; (401370 <_sbrk+0x34>)
  40135a:	4b03      	ldr	r3, [pc, #12]	; (401368 <_sbrk+0x2c>)
  40135c:	601a      	str	r2, [r3, #0]
  40135e:	e7f0      	b.n	401342 <_sbrk+0x6>
		return (caddr_t) -1;	
  401360:	f04f 30ff 	mov.w	r0, #4294967295
}
  401364:	4770      	bx	lr
  401366:	bf00      	nop
  401368:	20400c68 	.word	0x20400c68
  40136c:	2045fffc 	.word	0x2045fffc
  401370:	20403060 	.word	0x20403060

00401374 <_close>:
}

extern int _close(int file)
{
	return -1;
}
  401374:	f04f 30ff 	mov.w	r0, #4294967295
  401378:	4770      	bx	lr

0040137a <_fstat>:

extern int _fstat(int file, struct stat *st)
{
	st->st_mode = S_IFCHR;
  40137a:	f44f 5300 	mov.w	r3, #8192	; 0x2000
  40137e:	604b      	str	r3, [r1, #4]

	return 0;
}
  401380:	2000      	movs	r0, #0
  401382:	4770      	bx	lr

00401384 <_isatty>:

extern int _isatty(int file)
{
	return 1;
}
  401384:	2001      	movs	r0, #1
  401386:	4770      	bx	lr

00401388 <_lseek>:

extern int _lseek(int file, int ptr, int dir)
{
	return 0;
}
  401388:	2000      	movs	r0, #0
  40138a:	4770      	bx	lr

0040138c <vListInitialise>:
void vListInitialise( List_t * const pxList )
{
	/* The list structure contains a list item which is used to mark the
	end of the list.  To initialise the list the list end is inserted
	as the only list entry. */
	pxList->pxIndex = ( ListItem_t * ) &( pxList->xListEnd );			/*lint !e826 !e740 The mini list structure is used as the list end to save RAM.  This is checked and valid. */
  40138c:	f100 0308 	add.w	r3, r0, #8
  401390:	6043      	str	r3, [r0, #4]

	/* The list end value is the highest possible value in the list to
	ensure it remains at the end of the list. */
	pxList->xListEnd.xItemValue = portMAX_DELAY;
  401392:	f04f 32ff 	mov.w	r2, #4294967295
  401396:	6082      	str	r2, [r0, #8]

	/* The list end next and previous pointers point to itself so we know
	when the list is empty. */
	pxList->xListEnd.pxNext = ( ListItem_t * ) &( pxList->xListEnd );	/*lint !e826 !e740 The mini list structure is used as the list end to save RAM.  This is checked and valid. */
  401398:	60c3      	str	r3, [r0, #12]
	pxList->xListEnd.pxPrevious = ( ListItem_t * ) &( pxList->xListEnd );/*lint !e826 !e740 The mini list structure is used as the list end to save RAM.  This is checked and valid. */
  40139a:	6103      	str	r3, [r0, #16]

	pxList->uxNumberOfItems = ( UBaseType_t ) 0U;
  40139c:	2300      	movs	r3, #0
  40139e:	6003      	str	r3, [r0, #0]
  4013a0:	4770      	bx	lr

004013a2 <vListInitialiseItem>:
/*-----------------------------------------------------------*/

void vListInitialiseItem( ListItem_t * const pxItem )
{
	/* Make sure the list item is not recorded as being on a list. */
	pxItem->pvContainer = NULL;
  4013a2:	2300      	movs	r3, #0
  4013a4:	6103      	str	r3, [r0, #16]
  4013a6:	4770      	bx	lr

004013a8 <vListInsertEnd>:
}
/*-----------------------------------------------------------*/

void vListInsertEnd( List_t * const pxList, ListItem_t * const pxNewListItem )
{
ListItem_t * const pxIndex = pxList->pxIndex;
  4013a8:	6843      	ldr	r3, [r0, #4]
	listTEST_LIST_ITEM_INTEGRITY( pxNewListItem );

	/* Insert a new list item into pxList, but rather than sort the list,
	makes the new list item the last item to be removed by a call to
	listGET_OWNER_OF_NEXT_ENTRY(). */
	pxNewListItem->pxNext = pxIndex;
  4013aa:	604b      	str	r3, [r1, #4]
	pxNewListItem->pxPrevious = pxIndex->pxPrevious;
  4013ac:	689a      	ldr	r2, [r3, #8]
  4013ae:	608a      	str	r2, [r1, #8]

	/* Only used during decision coverage testing. */
	mtCOVERAGE_TEST_DELAY();

	pxIndex->pxPrevious->pxNext = pxNewListItem;
  4013b0:	689a      	ldr	r2, [r3, #8]
  4013b2:	6051      	str	r1, [r2, #4]
	pxIndex->pxPrevious = pxNewListItem;
  4013b4:	6099      	str	r1, [r3, #8]

	/* Remember which list the item is in. */
	pxNewListItem->pvContainer = ( void * ) pxList;
  4013b6:	6108      	str	r0, [r1, #16]

	( pxList->uxNumberOfItems )++;
  4013b8:	6803      	ldr	r3, [r0, #0]
  4013ba:	3301      	adds	r3, #1
  4013bc:	6003      	str	r3, [r0, #0]
  4013be:	4770      	bx	lr

004013c0 <vListInsert>:
}
/*-----------------------------------------------------------*/

void vListInsert( List_t * const pxList, ListItem_t * const pxNewListItem )
{
  4013c0:	b430      	push	{r4, r5}
ListItem_t *pxIterator;
const TickType_t xValueOfInsertion = pxNewListItem->xItemValue;
  4013c2:	680d      	ldr	r5, [r1, #0]
	new list item should be placed after it.  This ensures that TCB's which are
	stored in ready lists (all of which have the same xItemValue value) get a
	share of the CPU.  However, if the xItemValue is the same as the back marker
	the iteration loop below will not end.  Therefore the value is checked
	first, and the algorithm slightly modified if necessary. */
	if( xValueOfInsertion == portMAX_DELAY )
  4013c4:	f1b5 3fff 	cmp.w	r5, #4294967295
  4013c8:	d002      	beq.n	4013d0 <vListInsert+0x10>
			4) Using a queue or semaphore before it has been initialised or
			   before the scheduler has been started (are interrupts firing
			   before vTaskStartScheduler() has been called?).
		**********************************************************************/

		for( pxIterator = ( ListItem_t * ) &( pxList->xListEnd ); pxIterator->pxNext->xItemValue <= xValueOfInsertion; pxIterator = pxIterator->pxNext ) /*lint !e826 !e740 The mini list structure is used as the list end to save RAM.  This is checked and valid. */
  4013ca:	f100 0208 	add.w	r2, r0, #8
  4013ce:	e002      	b.n	4013d6 <vListInsert+0x16>
		pxIterator = pxList->xListEnd.pxPrevious;
  4013d0:	6902      	ldr	r2, [r0, #16]
  4013d2:	e004      	b.n	4013de <vListInsert+0x1e>
		for( pxIterator = ( ListItem_t * ) &( pxList->xListEnd ); pxIterator->pxNext->xItemValue <= xValueOfInsertion; pxIterator = pxIterator->pxNext ) /*lint !e826 !e740 The mini list structure is used as the list end to save RAM.  This is checked and valid. */
  4013d4:	461a      	mov	r2, r3
  4013d6:	6853      	ldr	r3, [r2, #4]
  4013d8:	681c      	ldr	r4, [r3, #0]
  4013da:	42a5      	cmp	r5, r4
  4013dc:	d2fa      	bcs.n	4013d4 <vListInsert+0x14>
			/* There is nothing to do here, just iterating to the wanted
			insertion position. */
		}
	}

	pxNewListItem->pxNext = pxIterator->pxNext;
  4013de:	6853      	ldr	r3, [r2, #4]
  4013e0:	604b      	str	r3, [r1, #4]
	pxNewListItem->pxNext->pxPrevious = pxNewListItem;
  4013e2:	6099      	str	r1, [r3, #8]
	pxNewListItem->pxPrevious = pxIterator;
  4013e4:	608a      	str	r2, [r1, #8]
	pxIterator->pxNext = pxNewListItem;
  4013e6:	6051      	str	r1, [r2, #4]

	/* Remember which list the item is in.  This allows fast removal of the
	item later. */
	pxNewListItem->pvContainer = ( void * ) pxList;
  4013e8:	6108      	str	r0, [r1, #16]

	( pxList->uxNumberOfItems )++;
  4013ea:	6803      	ldr	r3, [r0, #0]
  4013ec:	3301      	adds	r3, #1
  4013ee:	6003      	str	r3, [r0, #0]
}
  4013f0:	bc30      	pop	{r4, r5}
  4013f2:	4770      	bx	lr

004013f4 <uxListRemove>:

UBaseType_t uxListRemove( ListItem_t * const pxItemToRemove )
{
/* The list item knows which list it is in.  Obtain the list from the list
item. */
List_t * const pxList = ( List_t * ) pxItemToRemove->pvContainer;
  4013f4:	6903      	ldr	r3, [r0, #16]

	pxItemToRemove->pxNext->pxPrevious = pxItemToRemove->pxPrevious;
  4013f6:	6842      	ldr	r2, [r0, #4]
  4013f8:	6881      	ldr	r1, [r0, #8]
  4013fa:	6091      	str	r1, [r2, #8]
	pxItemToRemove->pxPrevious->pxNext = pxItemToRemove->pxNext;
  4013fc:	6882      	ldr	r2, [r0, #8]
  4013fe:	6841      	ldr	r1, [r0, #4]
  401400:	6051      	str	r1, [r2, #4]

	/* Only used during decision coverage testing. */
	mtCOVERAGE_TEST_DELAY();

	/* Make sure the index is left pointing to a valid item. */
	if( pxList->pxIndex == pxItemToRemove )
  401402:	685a      	ldr	r2, [r3, #4]
  401404:	4290      	cmp	r0, r2
  401406:	d005      	beq.n	401414 <uxListRemove+0x20>
	else
	{
		mtCOVERAGE_TEST_MARKER();
	}

	pxItemToRemove->pvContainer = NULL;
  401408:	2200      	movs	r2, #0
  40140a:	6102      	str	r2, [r0, #16]
	( pxList->uxNumberOfItems )--;
  40140c:	6818      	ldr	r0, [r3, #0]
  40140e:	3801      	subs	r0, #1
  401410:	6018      	str	r0, [r3, #0]

	return pxList->uxNumberOfItems;
}
  401412:	4770      	bx	lr
		pxList->pxIndex = pxItemToRemove->pxPrevious;
  401414:	6882      	ldr	r2, [r0, #8]
  401416:	605a      	str	r2, [r3, #4]
  401418:	e7f6      	b.n	401408 <uxListRemove+0x14>
	...

0040141c <prvTaskExitError>:
	its caller as there is nothing to return to.  If a task wants to exit it
	should instead call vTaskDelete( NULL ).

	Artificially force an assert() to be triggered if configASSERT() is
	defined, then stop here so application writers can catch the error. */
	configASSERT( uxCriticalNesting == ~0UL );
  40141c:	4b0d      	ldr	r3, [pc, #52]	; (401454 <prvTaskExitError+0x38>)
  40141e:	681b      	ldr	r3, [r3, #0]
  401420:	f1b3 3fff 	cmp.w	r3, #4294967295
  401424:	d00a      	beq.n	40143c <prvTaskExitError+0x20>

portFORCE_INLINE static void vPortRaiseBASEPRI( void )
{
uint32_t ulNewBASEPRI;

	__asm volatile
  401426:	f04f 0380 	mov.w	r3, #128	; 0x80
  40142a:	b672      	cpsid	i
  40142c:	f383 8811 	msr	BASEPRI, r3
  401430:	f3bf 8f6f 	isb	sy
  401434:	f3bf 8f4f 	dsb	sy
  401438:	b662      	cpsie	i
  40143a:	e7fe      	b.n	40143a <prvTaskExitError+0x1e>
  40143c:	f04f 0380 	mov.w	r3, #128	; 0x80
  401440:	b672      	cpsid	i
  401442:	f383 8811 	msr	BASEPRI, r3
  401446:	f3bf 8f6f 	isb	sy
  40144a:	f3bf 8f4f 	dsb	sy
  40144e:	b662      	cpsie	i
  401450:	e7fe      	b.n	401450 <prvTaskExitError+0x34>
  401452:	bf00      	nop
  401454:	20400020 	.word	0x20400020

00401458 <prvPortStartFirstTask>:
}
/*-----------------------------------------------------------*/

static void prvPortStartFirstTask( void )
{
	__asm volatile(
  401458:	4806      	ldr	r0, [pc, #24]	; (401474 <prvPortStartFirstTask+0x1c>)
  40145a:	6800      	ldr	r0, [r0, #0]
  40145c:	6800      	ldr	r0, [r0, #0]
  40145e:	f380 8808 	msr	MSP, r0
  401462:	b662      	cpsie	i
  401464:	b661      	cpsie	f
  401466:	f3bf 8f4f 	dsb	sy
  40146a:	f3bf 8f6f 	isb	sy
  40146e:	df00      	svc	0
  401470:	bf00      	nop
  401472:	0000      	.short	0x0000
  401474:	e000ed08 	.word	0xe000ed08

00401478 <vPortEnableVFP>:
/*-----------------------------------------------------------*/

/* This is a naked function. */
static void vPortEnableVFP( void )
{
	__asm volatile
  401478:	f8df 000c 	ldr.w	r0, [pc, #12]	; 401488 <vPortEnableVFP+0x10>
  40147c:	6801      	ldr	r1, [r0, #0]
  40147e:	f441 0170 	orr.w	r1, r1, #15728640	; 0xf00000
  401482:	6001      	str	r1, [r0, #0]
  401484:	4770      	bx	lr
  401486:	0000      	.short	0x0000
  401488:	e000ed88 	.word	0xe000ed88

0040148c <pxPortInitialiseStack>:
	*pxTopOfStack = portINITIAL_XPSR;	/* xPSR */
  40148c:	f04f 7380 	mov.w	r3, #16777216	; 0x1000000
  401490:	f840 3c04 	str.w	r3, [r0, #-4]
	*pxTopOfStack = ( StackType_t ) pxCode;	/* PC */
  401494:	f840 1c08 	str.w	r1, [r0, #-8]
	*pxTopOfStack = ( StackType_t ) portTASK_RETURN_ADDRESS;	/* LR */
  401498:	4b05      	ldr	r3, [pc, #20]	; (4014b0 <pxPortInitialiseStack+0x24>)
  40149a:	f840 3c0c 	str.w	r3, [r0, #-12]
	*pxTopOfStack = ( StackType_t ) pvParameters;	/* R0 */
  40149e:	f840 2c20 	str.w	r2, [r0, #-32]
	*pxTopOfStack = portINITIAL_EXEC_RETURN;
  4014a2:	f06f 0302 	mvn.w	r3, #2
  4014a6:	f840 3c24 	str.w	r3, [r0, #-36]
}
  4014aa:	3844      	subs	r0, #68	; 0x44
  4014ac:	4770      	bx	lr
  4014ae:	bf00      	nop
  4014b0:	0040141d 	.word	0x0040141d

004014b4 <SVC_Handler>:
	__asm volatile (
  4014b4:	4b06      	ldr	r3, [pc, #24]	; (4014d0 <pxCurrentTCBConst2>)
  4014b6:	6819      	ldr	r1, [r3, #0]
  4014b8:	6808      	ldr	r0, [r1, #0]
  4014ba:	e8b0 4ff0 	ldmia.w	r0!, {r4, r5, r6, r7, r8, r9, sl, fp, lr}
  4014be:	f380 8809 	msr	PSP, r0
  4014c2:	f3bf 8f6f 	isb	sy
  4014c6:	f04f 0000 	mov.w	r0, #0
  4014ca:	f380 8811 	msr	BASEPRI, r0
  4014ce:	4770      	bx	lr

004014d0 <pxCurrentTCBConst2>:
  4014d0:	20400c74 	.word	0x20400c74
  4014d4:	4770      	bx	lr
  4014d6:	bf00      	nop

004014d8 <vPortEnterCritical>:
  4014d8:	f04f 0380 	mov.w	r3, #128	; 0x80
  4014dc:	b672      	cpsid	i
  4014de:	f383 8811 	msr	BASEPRI, r3
  4014e2:	f3bf 8f6f 	isb	sy
  4014e6:	f3bf 8f4f 	dsb	sy
  4014ea:	b662      	cpsie	i
	uxCriticalNesting++;
  4014ec:	4a0b      	ldr	r2, [pc, #44]	; (40151c <vPortEnterCritical+0x44>)
  4014ee:	6813      	ldr	r3, [r2, #0]
  4014f0:	3301      	adds	r3, #1
  4014f2:	6013      	str	r3, [r2, #0]
	if( uxCriticalNesting == 1 )
  4014f4:	2b01      	cmp	r3, #1
  4014f6:	d10f      	bne.n	401518 <vPortEnterCritical+0x40>
		configASSERT( ( portNVIC_INT_CTRL_REG & portVECTACTIVE_MASK ) == 0 );
  4014f8:	4b09      	ldr	r3, [pc, #36]	; (401520 <vPortEnterCritical+0x48>)
  4014fa:	681b      	ldr	r3, [r3, #0]
  4014fc:	f013 0fff 	tst.w	r3, #255	; 0xff
  401500:	d00a      	beq.n	401518 <vPortEnterCritical+0x40>
  401502:	f04f 0380 	mov.w	r3, #128	; 0x80
  401506:	b672      	cpsid	i
  401508:	f383 8811 	msr	BASEPRI, r3
  40150c:	f3bf 8f6f 	isb	sy
  401510:	f3bf 8f4f 	dsb	sy
  401514:	b662      	cpsie	i
  401516:	e7fe      	b.n	401516 <vPortEnterCritical+0x3e>
  401518:	4770      	bx	lr
  40151a:	bf00      	nop
  40151c:	20400020 	.word	0x20400020
  401520:	e000ed04 	.word	0xe000ed04

00401524 <vPortExitCritical>:
	configASSERT( uxCriticalNesting );
  401524:	4b0a      	ldr	r3, [pc, #40]	; (401550 <vPortExitCritical+0x2c>)
  401526:	681b      	ldr	r3, [r3, #0]
  401528:	b953      	cbnz	r3, 401540 <vPortExitCritical+0x1c>
  40152a:	f04f 0380 	mov.w	r3, #128	; 0x80
  40152e:	b672      	cpsid	i
  401530:	f383 8811 	msr	BASEPRI, r3
  401534:	f3bf 8f6f 	isb	sy
  401538:	f3bf 8f4f 	dsb	sy
  40153c:	b662      	cpsie	i
  40153e:	e7fe      	b.n	40153e <vPortExitCritical+0x1a>
	uxCriticalNesting--;
  401540:	3b01      	subs	r3, #1
  401542:	4a03      	ldr	r2, [pc, #12]	; (401550 <vPortExitCritical+0x2c>)
  401544:	6013      	str	r3, [r2, #0]
	if( uxCriticalNesting == 0 )
  401546:	b90b      	cbnz	r3, 40154c <vPortExitCritical+0x28>
}
/*-----------------------------------------------------------*/

portFORCE_INLINE static void vPortSetBASEPRI( uint32_t ulNewMaskValue )
{
	__asm volatile
  401548:	f383 8811 	msr	BASEPRI, r3
  40154c:	4770      	bx	lr
  40154e:	bf00      	nop
  401550:	20400020 	.word	0x20400020

00401554 <PendSV_Handler>:
	__asm volatile
  401554:	f3ef 8009 	mrs	r0, PSP
  401558:	f3bf 8f6f 	isb	sy
  40155c:	4b15      	ldr	r3, [pc, #84]	; (4015b4 <pxCurrentTCBConst>)
  40155e:	681a      	ldr	r2, [r3, #0]
  401560:	f01e 0f10 	tst.w	lr, #16
  401564:	bf08      	it	eq
  401566:	ed20 8a10 	vstmdbeq	r0!, {s16-s31}
  40156a:	e920 4ff0 	stmdb	r0!, {r4, r5, r6, r7, r8, r9, sl, fp, lr}
  40156e:	6010      	str	r0, [r2, #0]
  401570:	f84d 3d04 	str.w	r3, [sp, #-4]!
  401574:	f04f 0080 	mov.w	r0, #128	; 0x80
  401578:	b672      	cpsid	i
  40157a:	f380 8811 	msr	BASEPRI, r0
  40157e:	f3bf 8f4f 	dsb	sy
  401582:	f3bf 8f6f 	isb	sy
  401586:	b662      	cpsie	i
  401588:	f001 f8b6 	bl	4026f8 <vTaskSwitchContext>
  40158c:	f04f 0000 	mov.w	r0, #0
  401590:	f380 8811 	msr	BASEPRI, r0
  401594:	bc08      	pop	{r3}
  401596:	6819      	ldr	r1, [r3, #0]
  401598:	6808      	ldr	r0, [r1, #0]
  40159a:	e8b0 4ff0 	ldmia.w	r0!, {r4, r5, r6, r7, r8, r9, sl, fp, lr}
  40159e:	f01e 0f10 	tst.w	lr, #16
  4015a2:	bf08      	it	eq
  4015a4:	ecb0 8a10 	vldmiaeq	r0!, {s16-s31}
  4015a8:	f380 8809 	msr	PSP, r0
  4015ac:	f3bf 8f6f 	isb	sy
  4015b0:	4770      	bx	lr
  4015b2:	bf00      	nop

004015b4 <pxCurrentTCBConst>:
  4015b4:	20400c74 	.word	0x20400c74
  4015b8:	4770      	bx	lr
  4015ba:	bf00      	nop

004015bc <SysTick_Handler>:
{
  4015bc:	b508      	push	{r3, lr}
	__asm volatile
  4015be:	f3ef 8311 	mrs	r3, BASEPRI
  4015c2:	f04f 0280 	mov.w	r2, #128	; 0x80
  4015c6:	b672      	cpsid	i
  4015c8:	f382 8811 	msr	BASEPRI, r2
  4015cc:	f3bf 8f6f 	isb	sy
  4015d0:	f3bf 8f4f 	dsb	sy
  4015d4:	b662      	cpsie	i
		if( xTaskIncrementTick() != pdFALSE )
  4015d6:	4b05      	ldr	r3, [pc, #20]	; (4015ec <SysTick_Handler+0x30>)
  4015d8:	4798      	blx	r3
  4015da:	b118      	cbz	r0, 4015e4 <SysTick_Handler+0x28>
			portNVIC_INT_CTRL_REG = portNVIC_PENDSVSET_BIT;
  4015dc:	f04f 5280 	mov.w	r2, #268435456	; 0x10000000
  4015e0:	4b03      	ldr	r3, [pc, #12]	; (4015f0 <SysTick_Handler+0x34>)
  4015e2:	601a      	str	r2, [r3, #0]
	__asm volatile
  4015e4:	2300      	movs	r3, #0
  4015e6:	f383 8811 	msr	BASEPRI, r3
  4015ea:	bd08      	pop	{r3, pc}
  4015ec:	004023f5 	.word	0x004023f5
  4015f0:	e000ed04 	.word	0xe000ed04

004015f4 <vPortSetupTimerInterrupt>:
	portNVIC_SYSTICK_LOAD_REG = ( configSYSTICK_CLOCK_HZ / configTICK_RATE_HZ ) - 1UL;
  4015f4:	4a03      	ldr	r2, [pc, #12]	; (401604 <vPortSetupTimerInterrupt+0x10>)
  4015f6:	4b04      	ldr	r3, [pc, #16]	; (401608 <vPortSetupTimerInterrupt+0x14>)
  4015f8:	601a      	str	r2, [r3, #0]
	portNVIC_SYSTICK_CTRL_REG = ( portNVIC_SYSTICK_CLK_BIT | portNVIC_SYSTICK_INT_BIT | portNVIC_SYSTICK_ENABLE_BIT );
  4015fa:	2207      	movs	r2, #7
  4015fc:	3b04      	subs	r3, #4
  4015fe:	601a      	str	r2, [r3, #0]
  401600:	4770      	bx	lr
  401602:	bf00      	nop
  401604:	000927bf 	.word	0x000927bf
  401608:	e000e014 	.word	0xe000e014

0040160c <xPortStartScheduler>:
{
  40160c:	b500      	push	{lr}
  40160e:	b083      	sub	sp, #12
		ulOriginalPriority = *pucFirstUserPriorityRegister;
  401610:	4b25      	ldr	r3, [pc, #148]	; (4016a8 <xPortStartScheduler+0x9c>)
  401612:	781a      	ldrb	r2, [r3, #0]
  401614:	b2d2      	uxtb	r2, r2
  401616:	9201      	str	r2, [sp, #4]
		*pucFirstUserPriorityRegister = portMAX_8_BIT_VALUE;
  401618:	22ff      	movs	r2, #255	; 0xff
  40161a:	701a      	strb	r2, [r3, #0]
		ucMaxPriorityValue = *pucFirstUserPriorityRegister;
  40161c:	781b      	ldrb	r3, [r3, #0]
  40161e:	b2db      	uxtb	r3, r3
  401620:	f88d 3003 	strb.w	r3, [sp, #3]
		ucMaxSysCallPriority = configMAX_SYSCALL_INTERRUPT_PRIORITY & ucMaxPriorityValue;
  401624:	f89d 3003 	ldrb.w	r3, [sp, #3]
  401628:	f003 0380 	and.w	r3, r3, #128	; 0x80
  40162c:	4a1f      	ldr	r2, [pc, #124]	; (4016ac <xPortStartScheduler+0xa0>)
  40162e:	7013      	strb	r3, [r2, #0]
		ulMaxPRIGROUPValue = portMAX_PRIGROUP_BITS;
  401630:	2207      	movs	r2, #7
  401632:	4b1f      	ldr	r3, [pc, #124]	; (4016b0 <xPortStartScheduler+0xa4>)
  401634:	601a      	str	r2, [r3, #0]
		while( ( ucMaxPriorityValue & portTOP_BIT_OF_BYTE ) == portTOP_BIT_OF_BYTE )
  401636:	f89d 3003 	ldrb.w	r3, [sp, #3]
  40163a:	f013 0f80 	tst.w	r3, #128	; 0x80
  40163e:	d010      	beq.n	401662 <xPortStartScheduler+0x56>
  401640:	2206      	movs	r2, #6
  401642:	e000      	b.n	401646 <xPortStartScheduler+0x3a>
  401644:	460a      	mov	r2, r1
			ucMaxPriorityValue <<= ( uint8_t ) 0x01;
  401646:	f89d 3003 	ldrb.w	r3, [sp, #3]
  40164a:	005b      	lsls	r3, r3, #1
  40164c:	b2db      	uxtb	r3, r3
  40164e:	f88d 3003 	strb.w	r3, [sp, #3]
		while( ( ucMaxPriorityValue & portTOP_BIT_OF_BYTE ) == portTOP_BIT_OF_BYTE )
  401652:	f89d 3003 	ldrb.w	r3, [sp, #3]
  401656:	1e51      	subs	r1, r2, #1
  401658:	f013 0f80 	tst.w	r3, #128	; 0x80
  40165c:	d1f2      	bne.n	401644 <xPortStartScheduler+0x38>
  40165e:	4b14      	ldr	r3, [pc, #80]	; (4016b0 <xPortStartScheduler+0xa4>)
  401660:	601a      	str	r2, [r3, #0]
		ulMaxPRIGROUPValue &= portPRIORITY_GROUP_MASK;
  401662:	4a13      	ldr	r2, [pc, #76]	; (4016b0 <xPortStartScheduler+0xa4>)
		ulMaxPRIGROUPValue <<= portPRIGROUP_SHIFT;
  401664:	6813      	ldr	r3, [r2, #0]
  401666:	021b      	lsls	r3, r3, #8
		ulMaxPRIGROUPValue &= portPRIORITY_GROUP_MASK;
  401668:	f403 63e0 	and.w	r3, r3, #1792	; 0x700
  40166c:	6013      	str	r3, [r2, #0]
		*pucFirstUserPriorityRegister = ulOriginalPriority;
  40166e:	9b01      	ldr	r3, [sp, #4]
  401670:	b2db      	uxtb	r3, r3
  401672:	4a0d      	ldr	r2, [pc, #52]	; (4016a8 <xPortStartScheduler+0x9c>)
  401674:	7013      	strb	r3, [r2, #0]
	portNVIC_SYSPRI2_REG |= portNVIC_PENDSV_PRI;
  401676:	4b0f      	ldr	r3, [pc, #60]	; (4016b4 <xPortStartScheduler+0xa8>)
  401678:	681a      	ldr	r2, [r3, #0]
  40167a:	f442 0260 	orr.w	r2, r2, #14680064	; 0xe00000
  40167e:	601a      	str	r2, [r3, #0]
	portNVIC_SYSPRI2_REG |= portNVIC_SYSTICK_PRI;
  401680:	681a      	ldr	r2, [r3, #0]
  401682:	f042 4260 	orr.w	r2, r2, #3758096384	; 0xe0000000
  401686:	601a      	str	r2, [r3, #0]
	vPortSetupTimerInterrupt();
  401688:	4b0b      	ldr	r3, [pc, #44]	; (4016b8 <xPortStartScheduler+0xac>)
  40168a:	4798      	blx	r3
	uxCriticalNesting = 0;
  40168c:	2200      	movs	r2, #0
  40168e:	4b0b      	ldr	r3, [pc, #44]	; (4016bc <xPortStartScheduler+0xb0>)
  401690:	601a      	str	r2, [r3, #0]
	vPortEnableVFP();
  401692:	4b0b      	ldr	r3, [pc, #44]	; (4016c0 <xPortStartScheduler+0xb4>)
  401694:	4798      	blx	r3
	*( portFPCCR ) |= portASPEN_AND_LSPEN_BITS;
  401696:	4a0b      	ldr	r2, [pc, #44]	; (4016c4 <xPortStartScheduler+0xb8>)
  401698:	6813      	ldr	r3, [r2, #0]
  40169a:	f043 4340 	orr.w	r3, r3, #3221225472	; 0xc0000000
  40169e:	6013      	str	r3, [r2, #0]
	prvPortStartFirstTask();
  4016a0:	4b09      	ldr	r3, [pc, #36]	; (4016c8 <xPortStartScheduler+0xbc>)
  4016a2:	4798      	blx	r3
	prvTaskExitError();
  4016a4:	4b09      	ldr	r3, [pc, #36]	; (4016cc <xPortStartScheduler+0xc0>)
  4016a6:	4798      	blx	r3
  4016a8:	e000e400 	.word	0xe000e400
  4016ac:	20400c6c 	.word	0x20400c6c
  4016b0:	20400c70 	.word	0x20400c70
  4016b4:	e000ed20 	.word	0xe000ed20
  4016b8:	004015f5 	.word	0x004015f5
  4016bc:	20400020 	.word	0x20400020
  4016c0:	00401479 	.word	0x00401479
  4016c4:	e000ef34 	.word	0xe000ef34
  4016c8:	00401459 	.word	0x00401459
  4016cc:	0040141d 	.word	0x0040141d

004016d0 <vPortValidateInterruptPriority>:
	{
	uint32_t ulCurrentInterrupt;
	uint8_t ucCurrentPriority;

		/* Obtain the number of the currently executing interrupt. */
		__asm volatile( "mrs %0, ipsr" : "=r"( ulCurrentInterrupt ) );
  4016d0:	f3ef 8305 	mrs	r3, IPSR

		/* Is the interrupt number a user defined interrupt? */
		if( ulCurrentInterrupt >= portFIRST_USER_INTERRUPT_NUMBER )
  4016d4:	2b0f      	cmp	r3, #15
  4016d6:	d911      	bls.n	4016fc <vPortValidateInterruptPriority+0x2c>
		{
			/* Look up the interrupt's priority. */
			ucCurrentPriority = pcInterruptPriorityRegisters[ ulCurrentInterrupt ];
  4016d8:	4a12      	ldr	r2, [pc, #72]	; (401724 <vPortValidateInterruptPriority+0x54>)
  4016da:	5c9b      	ldrb	r3, [r3, r2]
  4016dc:	b2db      	uxtb	r3, r3
			interrupt entry is as fast and simple as possible.

			The following links provide detailed information:
			http://www.freertos.org/RTOS-Cortex-M3-M4.html
			http://www.freertos.org/FAQHelp.html */
			configASSERT( ucCurrentPriority >= ucMaxSysCallPriority );
  4016de:	4a12      	ldr	r2, [pc, #72]	; (401728 <vPortValidateInterruptPriority+0x58>)
  4016e0:	7812      	ldrb	r2, [r2, #0]
  4016e2:	429a      	cmp	r2, r3
  4016e4:	d90a      	bls.n	4016fc <vPortValidateInterruptPriority+0x2c>
	__asm volatile
  4016e6:	f04f 0380 	mov.w	r3, #128	; 0x80
  4016ea:	b672      	cpsid	i
  4016ec:	f383 8811 	msr	BASEPRI, r3
  4016f0:	f3bf 8f6f 	isb	sy
  4016f4:	f3bf 8f4f 	dsb	sy
  4016f8:	b662      	cpsie	i
  4016fa:	e7fe      	b.n	4016fa <vPortValidateInterruptPriority+0x2a>
		configuration then the correct setting can be achieved on all Cortex-M
		devices by calling NVIC_SetPriorityGrouping( 0 ); before starting the
		scheduler.  Note however that some vendor specific peripheral libraries
		assume a non-zero priority group setting, in which cases using a value
		of zero will result in unpredicable behaviour. */
		configASSERT( ( portAIRCR_REG & portPRIORITY_GROUP_MASK ) <= ulMaxPRIGROUPValue );
  4016fc:	4b0b      	ldr	r3, [pc, #44]	; (40172c <vPortValidateInterruptPriority+0x5c>)
  4016fe:	681b      	ldr	r3, [r3, #0]
  401700:	f403 63e0 	and.w	r3, r3, #1792	; 0x700
  401704:	4a0a      	ldr	r2, [pc, #40]	; (401730 <vPortValidateInterruptPriority+0x60>)
  401706:	6812      	ldr	r2, [r2, #0]
  401708:	4293      	cmp	r3, r2
  40170a:	d90a      	bls.n	401722 <vPortValidateInterruptPriority+0x52>
  40170c:	f04f 0380 	mov.w	r3, #128	; 0x80
  401710:	b672      	cpsid	i
  401712:	f383 8811 	msr	BASEPRI, r3
  401716:	f3bf 8f6f 	isb	sy
  40171a:	f3bf 8f4f 	dsb	sy
  40171e:	b662      	cpsie	i
  401720:	e7fe      	b.n	401720 <vPortValidateInterruptPriority+0x50>
  401722:	4770      	bx	lr
  401724:	e000e3f0 	.word	0xe000e3f0
  401728:	20400c6c 	.word	0x20400c6c
  40172c:	e000ed0c 	.word	0xe000ed0c
  401730:	20400c70 	.word	0x20400c70

00401734 <pvPortMalloc>:
#undef MPU_WRAPPERS_INCLUDED_FROM_API_FILE

/*-----------------------------------------------------------*/

void *pvPortMalloc( size_t xWantedSize )
{
  401734:	b510      	push	{r4, lr}
  401736:	4604      	mov	r4, r0
void *pvReturn;

	vTaskSuspendAll();
  401738:	4b06      	ldr	r3, [pc, #24]	; (401754 <pvPortMalloc+0x20>)
  40173a:	4798      	blx	r3
	{
		pvReturn = malloc( xWantedSize );
  40173c:	4620      	mov	r0, r4
  40173e:	4b06      	ldr	r3, [pc, #24]	; (401758 <pvPortMalloc+0x24>)
  401740:	4798      	blx	r3
  401742:	4604      	mov	r4, r0
		traceMALLOC( pvReturn, xWantedSize );
	}
	( void ) xTaskResumeAll();
  401744:	4b05      	ldr	r3, [pc, #20]	; (40175c <pvPortMalloc+0x28>)
  401746:	4798      	blx	r3

	#if( configUSE_MALLOC_FAILED_HOOK == 1 )
	{
		if( pvReturn == NULL )
  401748:	b10c      	cbz	r4, 40174e <pvPortMalloc+0x1a>
		}
	}
	#endif

	return pvReturn;
}
  40174a:	4620      	mov	r0, r4
  40174c:	bd10      	pop	{r4, pc}
			vApplicationMallocFailedHook();
  40174e:	4b04      	ldr	r3, [pc, #16]	; (401760 <pvPortMalloc+0x2c>)
  401750:	4798      	blx	r3
	return pvReturn;
  401752:	e7fa      	b.n	40174a <pvPortMalloc+0x16>
  401754:	004023d9 	.word	0x004023d9
  401758:	00403795 	.word	0x00403795
  40175c:	00402541 	.word	0x00402541
  401760:	00403407 	.word	0x00403407

00401764 <vPortFree>:
/*-----------------------------------------------------------*/

void vPortFree( void *pv )
{
	if( pv )
  401764:	b148      	cbz	r0, 40177a <vPortFree+0x16>
{
  401766:	b510      	push	{r4, lr}
  401768:	4604      	mov	r4, r0
	{
		vTaskSuspendAll();
  40176a:	4b04      	ldr	r3, [pc, #16]	; (40177c <vPortFree+0x18>)
  40176c:	4798      	blx	r3
		{
			free( pv );
  40176e:	4620      	mov	r0, r4
  401770:	4b03      	ldr	r3, [pc, #12]	; (401780 <vPortFree+0x1c>)
  401772:	4798      	blx	r3
			traceFREE( pv, 0 );
		}
		( void ) xTaskResumeAll();
  401774:	4b03      	ldr	r3, [pc, #12]	; (401784 <vPortFree+0x20>)
  401776:	4798      	blx	r3
  401778:	bd10      	pop	{r4, pc}
  40177a:	4770      	bx	lr
  40177c:	004023d9 	.word	0x004023d9
  401780:	004037a5 	.word	0x004037a5
  401784:	00402541 	.word	0x00402541

00401788 <prvCopyDataToQueue>:

#endif /* configUSE_TRACE_FACILITY */
/*-----------------------------------------------------------*/

static BaseType_t prvCopyDataToQueue( Queue_t * const pxQueue, const void *pvItemToQueue, const BaseType_t xPosition )
{
  401788:	b538      	push	{r3, r4, r5, lr}
  40178a:	4604      	mov	r4, r0
  40178c:	4615      	mov	r5, r2
BaseType_t xReturn = pdFALSE;

	if( pxQueue->uxItemSize == ( UBaseType_t ) 0 )
  40178e:	6c02      	ldr	r2, [r0, #64]	; 0x40
  401790:	b95a      	cbnz	r2, 4017aa <prvCopyDataToQueue+0x22>
	{
		#if ( configUSE_MUTEXES == 1 )
		{
			if( pxQueue->uxQueueType == queueQUEUE_IS_MUTEX )
  401792:	6803      	ldr	r3, [r0, #0]
  401794:	2b00      	cmp	r3, #0
  401796:	d12e      	bne.n	4017f6 <prvCopyDataToQueue+0x6e>
			{
				/* The mutex is no longer being held. */
				xReturn = xTaskPriorityDisinherit( ( void * ) pxQueue->pxMutexHolder );
  401798:	6840      	ldr	r0, [r0, #4]
  40179a:	4b1b      	ldr	r3, [pc, #108]	; (401808 <prvCopyDataToQueue+0x80>)
  40179c:	4798      	blx	r3
				pxQueue->pxMutexHolder = NULL;
  40179e:	2300      	movs	r3, #0
  4017a0:	6063      	str	r3, [r4, #4]
		{
			mtCOVERAGE_TEST_MARKER();
		}
	}

	++( pxQueue->uxMessagesWaiting );
  4017a2:	6ba3      	ldr	r3, [r4, #56]	; 0x38
  4017a4:	3301      	adds	r3, #1
  4017a6:	63a3      	str	r3, [r4, #56]	; 0x38

	return xReturn;
}
  4017a8:	bd38      	pop	{r3, r4, r5, pc}
	else if( xPosition == queueSEND_TO_BACK )
  4017aa:	b96d      	cbnz	r5, 4017c8 <prvCopyDataToQueue+0x40>
		( void ) memcpy( ( void * ) pxQueue->pcWriteTo, pvItemToQueue, ( size_t ) pxQueue->uxItemSize ); /*lint !e961 !e418 MISRA exception as the casts are only redundant for some ports, plus previous logic ensures a null pointer can only be passed to memcpy() if the copy size is 0. */
  4017ac:	6880      	ldr	r0, [r0, #8]
  4017ae:	4b17      	ldr	r3, [pc, #92]	; (40180c <prvCopyDataToQueue+0x84>)
  4017b0:	4798      	blx	r3
		pxQueue->pcWriteTo += pxQueue->uxItemSize;
  4017b2:	68a3      	ldr	r3, [r4, #8]
  4017b4:	6c22      	ldr	r2, [r4, #64]	; 0x40
  4017b6:	4413      	add	r3, r2
  4017b8:	60a3      	str	r3, [r4, #8]
		if( pxQueue->pcWriteTo >= pxQueue->pcTail ) /*lint !e946 MISRA exception justified as comparison of pointers is the cleanest solution. */
  4017ba:	6862      	ldr	r2, [r4, #4]
  4017bc:	4293      	cmp	r3, r2
  4017be:	d31c      	bcc.n	4017fa <prvCopyDataToQueue+0x72>
			pxQueue->pcWriteTo = pxQueue->pcHead;
  4017c0:	6823      	ldr	r3, [r4, #0]
  4017c2:	60a3      	str	r3, [r4, #8]
BaseType_t xReturn = pdFALSE;
  4017c4:	2000      	movs	r0, #0
  4017c6:	e7ec      	b.n	4017a2 <prvCopyDataToQueue+0x1a>
		( void ) memcpy( ( void * ) pxQueue->u.pcReadFrom, pvItemToQueue, ( size_t ) pxQueue->uxItemSize ); /*lint !e961 MISRA exception as the casts are only redundant for some ports. */
  4017c8:	68c0      	ldr	r0, [r0, #12]
  4017ca:	4b10      	ldr	r3, [pc, #64]	; (40180c <prvCopyDataToQueue+0x84>)
  4017cc:	4798      	blx	r3
		pxQueue->u.pcReadFrom -= pxQueue->uxItemSize;
  4017ce:	6c23      	ldr	r3, [r4, #64]	; 0x40
  4017d0:	425b      	negs	r3, r3
  4017d2:	68e2      	ldr	r2, [r4, #12]
  4017d4:	441a      	add	r2, r3
  4017d6:	60e2      	str	r2, [r4, #12]
		if( pxQueue->u.pcReadFrom < pxQueue->pcHead ) /*lint !e946 MISRA exception justified as comparison of pointers is the cleanest solution. */
  4017d8:	6821      	ldr	r1, [r4, #0]
  4017da:	428a      	cmp	r2, r1
  4017dc:	d202      	bcs.n	4017e4 <prvCopyDataToQueue+0x5c>
			pxQueue->u.pcReadFrom = ( pxQueue->pcTail - pxQueue->uxItemSize );
  4017de:	6862      	ldr	r2, [r4, #4]
  4017e0:	4413      	add	r3, r2
  4017e2:	60e3      	str	r3, [r4, #12]
		if( xPosition == queueOVERWRITE )
  4017e4:	2d02      	cmp	r5, #2
  4017e6:	d10a      	bne.n	4017fe <prvCopyDataToQueue+0x76>
			if( pxQueue->uxMessagesWaiting > ( UBaseType_t ) 0 )
  4017e8:	6ba3      	ldr	r3, [r4, #56]	; 0x38
  4017ea:	b153      	cbz	r3, 401802 <prvCopyDataToQueue+0x7a>
				--( pxQueue->uxMessagesWaiting );
  4017ec:	6ba3      	ldr	r3, [r4, #56]	; 0x38
  4017ee:	3b01      	subs	r3, #1
  4017f0:	63a3      	str	r3, [r4, #56]	; 0x38
BaseType_t xReturn = pdFALSE;
  4017f2:	2000      	movs	r0, #0
  4017f4:	e7d5      	b.n	4017a2 <prvCopyDataToQueue+0x1a>
  4017f6:	2000      	movs	r0, #0
  4017f8:	e7d3      	b.n	4017a2 <prvCopyDataToQueue+0x1a>
  4017fa:	2000      	movs	r0, #0
  4017fc:	e7d1      	b.n	4017a2 <prvCopyDataToQueue+0x1a>
  4017fe:	2000      	movs	r0, #0
  401800:	e7cf      	b.n	4017a2 <prvCopyDataToQueue+0x1a>
  401802:	2000      	movs	r0, #0
  401804:	e7cd      	b.n	4017a2 <prvCopyDataToQueue+0x1a>
  401806:	bf00      	nop
  401808:	00402af9 	.word	0x00402af9
  40180c:	00403d15 	.word	0x00403d15

00401810 <prvNotifyQueueSetContainer>:
/*-----------------------------------------------------------*/

#if ( configUSE_QUEUE_SETS == 1 )

	static BaseType_t prvNotifyQueueSetContainer( const Queue_t * const pxQueue, const BaseType_t xCopyPosition )
	{
  401810:	b530      	push	{r4, r5, lr}
  401812:	b083      	sub	sp, #12
  401814:	9001      	str	r0, [sp, #4]
	Queue_t *pxQueueSetContainer = pxQueue->pxQueueSetContainer;
  401816:	6d44      	ldr	r4, [r0, #84]	; 0x54
	BaseType_t xReturn = pdFALSE;

		/* This function must be called form a critical section. */

		configASSERT( pxQueueSetContainer );
  401818:	b174      	cbz	r4, 401838 <prvNotifyQueueSetContainer+0x28>
		configASSERT( pxQueueSetContainer->uxMessagesWaiting < pxQueueSetContainer->uxLength );
  40181a:	6ba2      	ldr	r2, [r4, #56]	; 0x38
  40181c:	6be3      	ldr	r3, [r4, #60]	; 0x3c
  40181e:	429a      	cmp	r2, r3
  401820:	d315      	bcc.n	40184e <prvNotifyQueueSetContainer+0x3e>
  401822:	f04f 0380 	mov.w	r3, #128	; 0x80
  401826:	b672      	cpsid	i
  401828:	f383 8811 	msr	BASEPRI, r3
  40182c:	f3bf 8f6f 	isb	sy
  401830:	f3bf 8f4f 	dsb	sy
  401834:	b662      	cpsie	i
  401836:	e7fe      	b.n	401836 <prvNotifyQueueSetContainer+0x26>
  401838:	f04f 0380 	mov.w	r3, #128	; 0x80
  40183c:	b672      	cpsid	i
  40183e:	f383 8811 	msr	BASEPRI, r3
  401842:	f3bf 8f6f 	isb	sy
  401846:	f3bf 8f4f 	dsb	sy
  40184a:	b662      	cpsie	i
  40184c:	e7fe      	b.n	40184c <prvNotifyQueueSetContainer+0x3c>

		if( pxQueueSetContainer->uxMessagesWaiting < pxQueueSetContainer->uxLength )
  40184e:	6ba2      	ldr	r2, [r4, #56]	; 0x38
  401850:	4293      	cmp	r3, r2
  401852:	d803      	bhi.n	40185c <prvNotifyQueueSetContainer+0x4c>
	BaseType_t xReturn = pdFALSE;
  401854:	2500      	movs	r5, #0
		{
			mtCOVERAGE_TEST_MARKER();
		}

		return xReturn;
	}
  401856:	4628      	mov	r0, r5
  401858:	b003      	add	sp, #12
  40185a:	bd30      	pop	{r4, r5, pc}
  40185c:	460a      	mov	r2, r1
			xReturn = prvCopyDataToQueue( pxQueueSetContainer, &pxQueue, xCopyPosition );
  40185e:	a901      	add	r1, sp, #4
  401860:	4620      	mov	r0, r4
  401862:	4b0b      	ldr	r3, [pc, #44]	; (401890 <prvNotifyQueueSetContainer+0x80>)
  401864:	4798      	blx	r3
  401866:	4605      	mov	r5, r0
			if( pxQueueSetContainer->xTxLock == queueUNLOCKED )
  401868:	6ca3      	ldr	r3, [r4, #72]	; 0x48
  40186a:	f1b3 3fff 	cmp.w	r3, #4294967295
  40186e:	d10a      	bne.n	401886 <prvNotifyQueueSetContainer+0x76>
				if( listLIST_IS_EMPTY( &( pxQueueSetContainer->xTasksWaitingToReceive ) ) == pdFALSE )
  401870:	6a63      	ldr	r3, [r4, #36]	; 0x24
  401872:	2b00      	cmp	r3, #0
  401874:	d0ef      	beq.n	401856 <prvNotifyQueueSetContainer+0x46>
					if( xTaskRemoveFromEventList( &( pxQueueSetContainer->xTasksWaitingToReceive ) ) != pdFALSE )
  401876:	f104 0024 	add.w	r0, r4, #36	; 0x24
  40187a:	4b06      	ldr	r3, [pc, #24]	; (401894 <prvNotifyQueueSetContainer+0x84>)
  40187c:	4798      	blx	r3
  40187e:	2800      	cmp	r0, #0
						xReturn = pdTRUE;
  401880:	bf18      	it	ne
  401882:	2501      	movne	r5, #1
  401884:	e7e7      	b.n	401856 <prvNotifyQueueSetContainer+0x46>
				( pxQueueSetContainer->xTxLock )++;
  401886:	6ca3      	ldr	r3, [r4, #72]	; 0x48
  401888:	3301      	adds	r3, #1
  40188a:	64a3      	str	r3, [r4, #72]	; 0x48
  40188c:	e7e3      	b.n	401856 <prvNotifyQueueSetContainer+0x46>
  40188e:	bf00      	nop
  401890:	00401789 	.word	0x00401789
  401894:	004028cd 	.word	0x004028cd

00401898 <prvCopyDataFromQueue>:
	if( pxQueue->uxItemSize != ( UBaseType_t ) 0 )
  401898:	6c02      	ldr	r2, [r0, #64]	; 0x40
  40189a:	b172      	cbz	r2, 4018ba <prvCopyDataFromQueue+0x22>
{
  40189c:	b510      	push	{r4, lr}
  40189e:	4603      	mov	r3, r0
		pxQueue->u.pcReadFrom += pxQueue->uxItemSize;
  4018a0:	68c4      	ldr	r4, [r0, #12]
  4018a2:	4414      	add	r4, r2
  4018a4:	60c4      	str	r4, [r0, #12]
		if( pxQueue->u.pcReadFrom >= pxQueue->pcTail ) /*lint !e946 MISRA exception justified as use of the relational operator is the cleanest solutions. */
  4018a6:	6840      	ldr	r0, [r0, #4]
  4018a8:	4284      	cmp	r4, r0
  4018aa:	d301      	bcc.n	4018b0 <prvCopyDataFromQueue+0x18>
			pxQueue->u.pcReadFrom = pxQueue->pcHead;
  4018ac:	6818      	ldr	r0, [r3, #0]
  4018ae:	60d8      	str	r0, [r3, #12]
  4018b0:	4608      	mov	r0, r1
		( void ) memcpy( ( void * ) pvBuffer, ( void * ) pxQueue->u.pcReadFrom, ( size_t ) pxQueue->uxItemSize ); /*lint !e961 !e418 MISRA exception as the casts are only redundant for some ports.  Also previous logic ensures a null pointer can only be passed to memcpy() when the count is 0. */
  4018b2:	68d9      	ldr	r1, [r3, #12]
  4018b4:	4b01      	ldr	r3, [pc, #4]	; (4018bc <prvCopyDataFromQueue+0x24>)
  4018b6:	4798      	blx	r3
  4018b8:	bd10      	pop	{r4, pc}
  4018ba:	4770      	bx	lr
  4018bc:	00403d15 	.word	0x00403d15

004018c0 <prvUnlockQueue>:
{
  4018c0:	b5f8      	push	{r3, r4, r5, r6, r7, lr}
  4018c2:	4604      	mov	r4, r0
	taskENTER_CRITICAL();
  4018c4:	4b22      	ldr	r3, [pc, #136]	; (401950 <prvUnlockQueue+0x90>)
  4018c6:	4798      	blx	r3
		while( pxQueue->xTxLock > queueLOCKED_UNMODIFIED )
  4018c8:	6ca3      	ldr	r3, [r4, #72]	; 0x48
  4018ca:	2b00      	cmp	r3, #0
  4018cc:	dd1b      	ble.n	401906 <prvUnlockQueue+0x46>
					if( prvNotifyQueueSetContainer( pxQueue, queueSEND_TO_BACK ) == pdTRUE )
  4018ce:	4d21      	ldr	r5, [pc, #132]	; (401954 <prvUnlockQueue+0x94>)
						vTaskMissedYield();
  4018d0:	4f21      	ldr	r7, [pc, #132]	; (401958 <prvUnlockQueue+0x98>)
						if( xTaskRemoveFromEventList( &( pxQueue->xTasksWaitingToReceive ) ) != pdFALSE )
  4018d2:	4e22      	ldr	r6, [pc, #136]	; (40195c <prvUnlockQueue+0x9c>)
  4018d4:	e00b      	b.n	4018ee <prvUnlockQueue+0x2e>
					if( listLIST_IS_EMPTY( &( pxQueue->xTasksWaitingToReceive ) ) == pdFALSE )
  4018d6:	6a63      	ldr	r3, [r4, #36]	; 0x24
  4018d8:	b1ab      	cbz	r3, 401906 <prvUnlockQueue+0x46>
						if( xTaskRemoveFromEventList( &( pxQueue->xTasksWaitingToReceive ) ) != pdFALSE )
  4018da:	f104 0024 	add.w	r0, r4, #36	; 0x24
  4018de:	47b0      	blx	r6
  4018e0:	b978      	cbnz	r0, 401902 <prvUnlockQueue+0x42>
			--( pxQueue->xTxLock );
  4018e2:	6ca3      	ldr	r3, [r4, #72]	; 0x48
  4018e4:	3b01      	subs	r3, #1
  4018e6:	64a3      	str	r3, [r4, #72]	; 0x48
		while( pxQueue->xTxLock > queueLOCKED_UNMODIFIED )
  4018e8:	6ca3      	ldr	r3, [r4, #72]	; 0x48
  4018ea:	2b00      	cmp	r3, #0
  4018ec:	dd0b      	ble.n	401906 <prvUnlockQueue+0x46>
				if( pxQueue->pxQueueSetContainer != NULL )
  4018ee:	6d63      	ldr	r3, [r4, #84]	; 0x54
  4018f0:	2b00      	cmp	r3, #0
  4018f2:	d0f0      	beq.n	4018d6 <prvUnlockQueue+0x16>
					if( prvNotifyQueueSetContainer( pxQueue, queueSEND_TO_BACK ) == pdTRUE )
  4018f4:	2100      	movs	r1, #0
  4018f6:	4620      	mov	r0, r4
  4018f8:	47a8      	blx	r5
  4018fa:	2801      	cmp	r0, #1
  4018fc:	d1f1      	bne.n	4018e2 <prvUnlockQueue+0x22>
						vTaskMissedYield();
  4018fe:	47b8      	blx	r7
  401900:	e7ef      	b.n	4018e2 <prvUnlockQueue+0x22>
							vTaskMissedYield();
  401902:	47b8      	blx	r7
  401904:	e7ed      	b.n	4018e2 <prvUnlockQueue+0x22>
		pxQueue->xTxLock = queueUNLOCKED;
  401906:	f04f 33ff 	mov.w	r3, #4294967295
  40190a:	64a3      	str	r3, [r4, #72]	; 0x48
	taskEXIT_CRITICAL();
  40190c:	4b14      	ldr	r3, [pc, #80]	; (401960 <prvUnlockQueue+0xa0>)
  40190e:	4798      	blx	r3
	taskENTER_CRITICAL();
  401910:	4b0f      	ldr	r3, [pc, #60]	; (401950 <prvUnlockQueue+0x90>)
  401912:	4798      	blx	r3
		while( pxQueue->xRxLock > queueLOCKED_UNMODIFIED )
  401914:	6c63      	ldr	r3, [r4, #68]	; 0x44
  401916:	2b00      	cmp	r3, #0
  401918:	dd14      	ble.n	401944 <prvUnlockQueue+0x84>
			if( listLIST_IS_EMPTY( &( pxQueue->xTasksWaitingToSend ) ) == pdFALSE )
  40191a:	6923      	ldr	r3, [r4, #16]
  40191c:	b193      	cbz	r3, 401944 <prvUnlockQueue+0x84>
				if( xTaskRemoveFromEventList( &( pxQueue->xTasksWaitingToSend ) ) != pdFALSE )
  40191e:	f104 0610 	add.w	r6, r4, #16
  401922:	4d0e      	ldr	r5, [pc, #56]	; (40195c <prvUnlockQueue+0x9c>)
					vTaskMissedYield();
  401924:	4f0c      	ldr	r7, [pc, #48]	; (401958 <prvUnlockQueue+0x98>)
  401926:	e007      	b.n	401938 <prvUnlockQueue+0x78>
				--( pxQueue->xRxLock );
  401928:	6c63      	ldr	r3, [r4, #68]	; 0x44
  40192a:	3b01      	subs	r3, #1
  40192c:	6463      	str	r3, [r4, #68]	; 0x44
		while( pxQueue->xRxLock > queueLOCKED_UNMODIFIED )
  40192e:	6c63      	ldr	r3, [r4, #68]	; 0x44
  401930:	2b00      	cmp	r3, #0
  401932:	dd07      	ble.n	401944 <prvUnlockQueue+0x84>
			if( listLIST_IS_EMPTY( &( pxQueue->xTasksWaitingToSend ) ) == pdFALSE )
  401934:	6923      	ldr	r3, [r4, #16]
  401936:	b12b      	cbz	r3, 401944 <prvUnlockQueue+0x84>
				if( xTaskRemoveFromEventList( &( pxQueue->xTasksWaitingToSend ) ) != pdFALSE )
  401938:	4630      	mov	r0, r6
  40193a:	47a8      	blx	r5
  40193c:	2800      	cmp	r0, #0
  40193e:	d0f3      	beq.n	401928 <prvUnlockQueue+0x68>
					vTaskMissedYield();
  401940:	47b8      	blx	r7
  401942:	e7f1      	b.n	401928 <prvUnlockQueue+0x68>
		pxQueue->xRxLock = queueUNLOCKED;
  401944:	f04f 33ff 	mov.w	r3, #4294967295
  401948:	6463      	str	r3, [r4, #68]	; 0x44
	taskEXIT_CRITICAL();
  40194a:	4b05      	ldr	r3, [pc, #20]	; (401960 <prvUnlockQueue+0xa0>)
  40194c:	4798      	blx	r3
  40194e:	bdf8      	pop	{r3, r4, r5, r6, r7, pc}
  401950:	004014d9 	.word	0x004014d9
  401954:	00401811 	.word	0x00401811
  401958:	00402a29 	.word	0x00402a29
  40195c:	004028cd 	.word	0x004028cd
  401960:	00401525 	.word	0x00401525

00401964 <xQueueGenericReset>:
{
  401964:	b538      	push	{r3, r4, r5, lr}
	configASSERT( pxQueue );
  401966:	b308      	cbz	r0, 4019ac <xQueueGenericReset+0x48>
  401968:	4604      	mov	r4, r0
  40196a:	460d      	mov	r5, r1
	taskENTER_CRITICAL();
  40196c:	4b1d      	ldr	r3, [pc, #116]	; (4019e4 <xQueueGenericReset+0x80>)
  40196e:	4798      	blx	r3
		pxQueue->pcTail = pxQueue->pcHead + ( pxQueue->uxLength * pxQueue->uxItemSize );
  401970:	6822      	ldr	r2, [r4, #0]
  401972:	6c21      	ldr	r1, [r4, #64]	; 0x40
  401974:	6be3      	ldr	r3, [r4, #60]	; 0x3c
  401976:	fb03 f301 	mul.w	r3, r3, r1
  40197a:	18d0      	adds	r0, r2, r3
  40197c:	6060      	str	r0, [r4, #4]
		pxQueue->uxMessagesWaiting = ( UBaseType_t ) 0U;
  40197e:	2000      	movs	r0, #0
  401980:	63a0      	str	r0, [r4, #56]	; 0x38
		pxQueue->pcWriteTo = pxQueue->pcHead;
  401982:	60a2      	str	r2, [r4, #8]
		pxQueue->u.pcReadFrom = pxQueue->pcHead + ( ( pxQueue->uxLength - ( UBaseType_t ) 1U ) * pxQueue->uxItemSize );
  401984:	1a5b      	subs	r3, r3, r1
  401986:	4413      	add	r3, r2
  401988:	60e3      	str	r3, [r4, #12]
		pxQueue->xRxLock = queueUNLOCKED;
  40198a:	f04f 33ff 	mov.w	r3, #4294967295
  40198e:	6463      	str	r3, [r4, #68]	; 0x44
		pxQueue->xTxLock = queueUNLOCKED;
  401990:	64a3      	str	r3, [r4, #72]	; 0x48
		if( xNewQueue == pdFALSE )
  401992:	b9fd      	cbnz	r5, 4019d4 <xQueueGenericReset+0x70>
			if( listLIST_IS_EMPTY( &( pxQueue->xTasksWaitingToSend ) ) == pdFALSE )
  401994:	6923      	ldr	r3, [r4, #16]
  401996:	b12b      	cbz	r3, 4019a4 <xQueueGenericReset+0x40>
				if( xTaskRemoveFromEventList( &( pxQueue->xTasksWaitingToSend ) ) == pdTRUE )
  401998:	f104 0010 	add.w	r0, r4, #16
  40199c:	4b12      	ldr	r3, [pc, #72]	; (4019e8 <xQueueGenericReset+0x84>)
  40199e:	4798      	blx	r3
  4019a0:	2801      	cmp	r0, #1
  4019a2:	d00e      	beq.n	4019c2 <xQueueGenericReset+0x5e>
	taskEXIT_CRITICAL();
  4019a4:	4b11      	ldr	r3, [pc, #68]	; (4019ec <xQueueGenericReset+0x88>)
  4019a6:	4798      	blx	r3
}
  4019a8:	2001      	movs	r0, #1
  4019aa:	bd38      	pop	{r3, r4, r5, pc}
  4019ac:	f04f 0380 	mov.w	r3, #128	; 0x80
  4019b0:	b672      	cpsid	i
  4019b2:	f383 8811 	msr	BASEPRI, r3
  4019b6:	f3bf 8f6f 	isb	sy
  4019ba:	f3bf 8f4f 	dsb	sy
  4019be:	b662      	cpsie	i
  4019c0:	e7fe      	b.n	4019c0 <xQueueGenericReset+0x5c>
					queueYIELD_IF_USING_PREEMPTION();
  4019c2:	f04f 5280 	mov.w	r2, #268435456	; 0x10000000
  4019c6:	4b0a      	ldr	r3, [pc, #40]	; (4019f0 <xQueueGenericReset+0x8c>)
  4019c8:	601a      	str	r2, [r3, #0]
  4019ca:	f3bf 8f4f 	dsb	sy
  4019ce:	f3bf 8f6f 	isb	sy
  4019d2:	e7e7      	b.n	4019a4 <xQueueGenericReset+0x40>
			vListInitialise( &( pxQueue->xTasksWaitingToSend ) );
  4019d4:	f104 0010 	add.w	r0, r4, #16
  4019d8:	4d06      	ldr	r5, [pc, #24]	; (4019f4 <xQueueGenericReset+0x90>)
  4019da:	47a8      	blx	r5
			vListInitialise( &( pxQueue->xTasksWaitingToReceive ) );
  4019dc:	f104 0024 	add.w	r0, r4, #36	; 0x24
  4019e0:	47a8      	blx	r5
  4019e2:	e7df      	b.n	4019a4 <xQueueGenericReset+0x40>
  4019e4:	004014d9 	.word	0x004014d9
  4019e8:	004028cd 	.word	0x004028cd
  4019ec:	00401525 	.word	0x00401525
  4019f0:	e000ed04 	.word	0xe000ed04
  4019f4:	0040138d 	.word	0x0040138d

004019f8 <xQueueGenericCreate>:
{
  4019f8:	b5f8      	push	{r3, r4, r5, r6, r7, lr}
	configASSERT( uxQueueLength > ( UBaseType_t ) 0 );
  4019fa:	b950      	cbnz	r0, 401a12 <xQueueGenericCreate+0x1a>
  4019fc:	f04f 0380 	mov.w	r3, #128	; 0x80
  401a00:	b672      	cpsid	i
  401a02:	f383 8811 	msr	BASEPRI, r3
  401a06:	f3bf 8f6f 	isb	sy
  401a0a:	f3bf 8f4f 	dsb	sy
  401a0e:	b662      	cpsie	i
  401a10:	e7fe      	b.n	401a10 <xQueueGenericCreate+0x18>
  401a12:	4606      	mov	r6, r0
  401a14:	4617      	mov	r7, r2
  401a16:	460d      	mov	r5, r1
	if( uxItemSize == ( UBaseType_t ) 0 )
  401a18:	b189      	cbz	r1, 401a3e <xQueueGenericCreate+0x46>
		xQueueSizeInBytes = ( size_t ) ( uxQueueLength * uxItemSize ) + ( size_t ) 1; /*lint !e961 MISRA exception as the casts are only redundant for some ports. */
  401a1a:	fb01 f000 	mul.w	r0, r1, r0
	pxNewQueue = ( Queue_t * ) pvPortMalloc( sizeof( Queue_t ) + xQueueSizeInBytes );
  401a1e:	3059      	adds	r0, #89	; 0x59
  401a20:	4b12      	ldr	r3, [pc, #72]	; (401a6c <xQueueGenericCreate+0x74>)
  401a22:	4798      	blx	r3
	if( pxNewQueue != NULL )
  401a24:	4604      	mov	r4, r0
  401a26:	b9e8      	cbnz	r0, 401a64 <xQueueGenericCreate+0x6c>
  401a28:	f04f 0380 	mov.w	r3, #128	; 0x80
  401a2c:	b672      	cpsid	i
  401a2e:	f383 8811 	msr	BASEPRI, r3
  401a32:	f3bf 8f6f 	isb	sy
  401a36:	f3bf 8f4f 	dsb	sy
  401a3a:	b662      	cpsie	i
  401a3c:	e7fe      	b.n	401a3c <xQueueGenericCreate+0x44>
	pxNewQueue = ( Queue_t * ) pvPortMalloc( sizeof( Queue_t ) + xQueueSizeInBytes );
  401a3e:	2058      	movs	r0, #88	; 0x58
  401a40:	4b0a      	ldr	r3, [pc, #40]	; (401a6c <xQueueGenericCreate+0x74>)
  401a42:	4798      	blx	r3
	if( pxNewQueue != NULL )
  401a44:	4604      	mov	r4, r0
  401a46:	2800      	cmp	r0, #0
  401a48:	d0ee      	beq.n	401a28 <xQueueGenericCreate+0x30>
			pxNewQueue->pcHead = ( int8_t * ) pxNewQueue;
  401a4a:	6020      	str	r0, [r4, #0]
		pxNewQueue->uxLength = uxQueueLength;
  401a4c:	63e6      	str	r6, [r4, #60]	; 0x3c
		pxNewQueue->uxItemSize = uxItemSize;
  401a4e:	6425      	str	r5, [r4, #64]	; 0x40
		( void ) xQueueGenericReset( pxNewQueue, pdTRUE );
  401a50:	2101      	movs	r1, #1
  401a52:	4620      	mov	r0, r4
  401a54:	4b06      	ldr	r3, [pc, #24]	; (401a70 <xQueueGenericCreate+0x78>)
  401a56:	4798      	blx	r3
			pxNewQueue->ucQueueType = ucQueueType;
  401a58:	f884 7050 	strb.w	r7, [r4, #80]	; 0x50
			pxNewQueue->pxQueueSetContainer = NULL;
  401a5c:	2300      	movs	r3, #0
  401a5e:	6563      	str	r3, [r4, #84]	; 0x54
}
  401a60:	4620      	mov	r0, r4
  401a62:	bdf8      	pop	{r3, r4, r5, r6, r7, pc}
			pxNewQueue->pcHead = ( ( int8_t * ) pxNewQueue ) + sizeof( Queue_t );
  401a64:	f100 0358 	add.w	r3, r0, #88	; 0x58
  401a68:	6003      	str	r3, [r0, #0]
  401a6a:	e7ef      	b.n	401a4c <xQueueGenericCreate+0x54>
  401a6c:	00401735 	.word	0x00401735
  401a70:	00401965 	.word	0x00401965

00401a74 <xQueueGenericSend>:
{
  401a74:	e92d 4ff0 	stmdb	sp!, {r4, r5, r6, r7, r8, r9, sl, fp, lr}
  401a78:	b085      	sub	sp, #20
  401a7a:	9201      	str	r2, [sp, #4]
	configASSERT( pxQueue );
  401a7c:	b1b8      	cbz	r0, 401aae <xQueueGenericSend+0x3a>
  401a7e:	4604      	mov	r4, r0
	configASSERT( !( ( pvItemToQueue == NULL ) && ( pxQueue->uxItemSize != ( UBaseType_t ) 0U ) ) );
  401a80:	b301      	cbz	r1, 401ac4 <xQueueGenericSend+0x50>
	configASSERT( !( ( xCopyPosition == queueOVERWRITE ) && ( pxQueue->uxLength != 1 ) ) );
  401a82:	2b02      	cmp	r3, #2
  401a84:	d02c      	beq.n	401ae0 <xQueueGenericSend+0x6c>
  401a86:	461d      	mov	r5, r3
  401a88:	4688      	mov	r8, r1
		configASSERT( !( ( xTaskGetSchedulerState() == taskSCHEDULER_SUSPENDED ) && ( xTicksToWait != 0 ) ) );
  401a8a:	4b66      	ldr	r3, [pc, #408]	; (401c24 <xQueueGenericSend+0x1b0>)
  401a8c:	4798      	blx	r3
  401a8e:	2800      	cmp	r0, #0
  401a90:	d134      	bne.n	401afc <xQueueGenericSend+0x88>
  401a92:	9b01      	ldr	r3, [sp, #4]
  401a94:	2b00      	cmp	r3, #0
  401a96:	d038      	beq.n	401b0a <xQueueGenericSend+0x96>
  401a98:	f04f 0380 	mov.w	r3, #128	; 0x80
  401a9c:	b672      	cpsid	i
  401a9e:	f383 8811 	msr	BASEPRI, r3
  401aa2:	f3bf 8f6f 	isb	sy
  401aa6:	f3bf 8f4f 	dsb	sy
  401aaa:	b662      	cpsie	i
  401aac:	e7fe      	b.n	401aac <xQueueGenericSend+0x38>
  401aae:	f04f 0380 	mov.w	r3, #128	; 0x80
  401ab2:	b672      	cpsid	i
  401ab4:	f383 8811 	msr	BASEPRI, r3
  401ab8:	f3bf 8f6f 	isb	sy
  401abc:	f3bf 8f4f 	dsb	sy
  401ac0:	b662      	cpsie	i
  401ac2:	e7fe      	b.n	401ac2 <xQueueGenericSend+0x4e>
	configASSERT( !( ( pvItemToQueue == NULL ) && ( pxQueue->uxItemSize != ( UBaseType_t ) 0U ) ) );
  401ac4:	6c02      	ldr	r2, [r0, #64]	; 0x40
  401ac6:	2a00      	cmp	r2, #0
  401ac8:	d0db      	beq.n	401a82 <xQueueGenericSend+0xe>
  401aca:	f04f 0380 	mov.w	r3, #128	; 0x80
  401ace:	b672      	cpsid	i
  401ad0:	f383 8811 	msr	BASEPRI, r3
  401ad4:	f3bf 8f6f 	isb	sy
  401ad8:	f3bf 8f4f 	dsb	sy
  401adc:	b662      	cpsie	i
  401ade:	e7fe      	b.n	401ade <xQueueGenericSend+0x6a>
	configASSERT( !( ( xCopyPosition == queueOVERWRITE ) && ( pxQueue->uxLength != 1 ) ) );
  401ae0:	6be2      	ldr	r2, [r4, #60]	; 0x3c
  401ae2:	2a01      	cmp	r2, #1
  401ae4:	d0cf      	beq.n	401a86 <xQueueGenericSend+0x12>
  401ae6:	f04f 0380 	mov.w	r3, #128	; 0x80
  401aea:	b672      	cpsid	i
  401aec:	f383 8811 	msr	BASEPRI, r3
  401af0:	f3bf 8f6f 	isb	sy
  401af4:	f3bf 8f4f 	dsb	sy
  401af8:	b662      	cpsie	i
  401afa:	e7fe      	b.n	401afa <xQueueGenericSend+0x86>
  401afc:	2700      	movs	r7, #0
		taskENTER_CRITICAL();
  401afe:	4e4a      	ldr	r6, [pc, #296]	; (401c28 <xQueueGenericSend+0x1b4>)
					vTaskSetTimeOutState( &xTimeOut );
  401b00:	f8df a150 	ldr.w	sl, [pc, #336]	; 401c54 <xQueueGenericSend+0x1e0>
					portYIELD_WITHIN_API();
  401b04:	f8df 912c 	ldr.w	r9, [pc, #300]	; 401c34 <xQueueGenericSend+0x1c0>
  401b08:	e042      	b.n	401b90 <xQueueGenericSend+0x11c>
  401b0a:	2700      	movs	r7, #0
  401b0c:	e7f7      	b.n	401afe <xQueueGenericSend+0x8a>
				xYieldRequired = prvCopyDataToQueue( pxQueue, pvItemToQueue, xCopyPosition );
  401b0e:	462a      	mov	r2, r5
  401b10:	4641      	mov	r1, r8
  401b12:	4620      	mov	r0, r4
  401b14:	4b45      	ldr	r3, [pc, #276]	; (401c2c <xQueueGenericSend+0x1b8>)
  401b16:	4798      	blx	r3
					if( pxQueue->pxQueueSetContainer != NULL )
  401b18:	6d63      	ldr	r3, [r4, #84]	; 0x54
  401b1a:	b19b      	cbz	r3, 401b44 <xQueueGenericSend+0xd0>
						if( prvNotifyQueueSetContainer( pxQueue, xCopyPosition ) == pdTRUE )
  401b1c:	4629      	mov	r1, r5
  401b1e:	4620      	mov	r0, r4
  401b20:	4b43      	ldr	r3, [pc, #268]	; (401c30 <xQueueGenericSend+0x1bc>)
  401b22:	4798      	blx	r3
  401b24:	2801      	cmp	r0, #1
  401b26:	d107      	bne.n	401b38 <xQueueGenericSend+0xc4>
							queueYIELD_IF_USING_PREEMPTION();
  401b28:	f04f 5280 	mov.w	r2, #268435456	; 0x10000000
  401b2c:	4b41      	ldr	r3, [pc, #260]	; (401c34 <xQueueGenericSend+0x1c0>)
  401b2e:	601a      	str	r2, [r3, #0]
  401b30:	f3bf 8f4f 	dsb	sy
  401b34:	f3bf 8f6f 	isb	sy
				taskEXIT_CRITICAL();
  401b38:	4b3f      	ldr	r3, [pc, #252]	; (401c38 <xQueueGenericSend+0x1c4>)
  401b3a:	4798      	blx	r3
				return pdPASS;
  401b3c:	2001      	movs	r0, #1
}
  401b3e:	b005      	add	sp, #20
  401b40:	e8bd 8ff0 	ldmia.w	sp!, {r4, r5, r6, r7, r8, r9, sl, fp, pc}
						if( listLIST_IS_EMPTY( &( pxQueue->xTasksWaitingToReceive ) ) == pdFALSE )
  401b44:	6a63      	ldr	r3, [r4, #36]	; 0x24
  401b46:	b173      	cbz	r3, 401b66 <xQueueGenericSend+0xf2>
							if( xTaskRemoveFromEventList( &( pxQueue->xTasksWaitingToReceive ) ) == pdTRUE )
  401b48:	f104 0024 	add.w	r0, r4, #36	; 0x24
  401b4c:	4b3b      	ldr	r3, [pc, #236]	; (401c3c <xQueueGenericSend+0x1c8>)
  401b4e:	4798      	blx	r3
  401b50:	2801      	cmp	r0, #1
  401b52:	d1f1      	bne.n	401b38 <xQueueGenericSend+0xc4>
								queueYIELD_IF_USING_PREEMPTION();
  401b54:	f04f 5280 	mov.w	r2, #268435456	; 0x10000000
  401b58:	4b36      	ldr	r3, [pc, #216]	; (401c34 <xQueueGenericSend+0x1c0>)
  401b5a:	601a      	str	r2, [r3, #0]
  401b5c:	f3bf 8f4f 	dsb	sy
  401b60:	f3bf 8f6f 	isb	sy
  401b64:	e7e8      	b.n	401b38 <xQueueGenericSend+0xc4>
						else if( xYieldRequired != pdFALSE )
  401b66:	2800      	cmp	r0, #0
  401b68:	d0e6      	beq.n	401b38 <xQueueGenericSend+0xc4>
							queueYIELD_IF_USING_PREEMPTION();
  401b6a:	f04f 5280 	mov.w	r2, #268435456	; 0x10000000
  401b6e:	4b31      	ldr	r3, [pc, #196]	; (401c34 <xQueueGenericSend+0x1c0>)
  401b70:	601a      	str	r2, [r3, #0]
  401b72:	f3bf 8f4f 	dsb	sy
  401b76:	f3bf 8f6f 	isb	sy
  401b7a:	e7dd      	b.n	401b38 <xQueueGenericSend+0xc4>
					taskEXIT_CRITICAL();
  401b7c:	4b2e      	ldr	r3, [pc, #184]	; (401c38 <xQueueGenericSend+0x1c4>)
  401b7e:	4798      	blx	r3
					return errQUEUE_FULL;
  401b80:	2000      	movs	r0, #0
  401b82:	e7dc      	b.n	401b3e <xQueueGenericSend+0xca>
				prvUnlockQueue( pxQueue );
  401b84:	4620      	mov	r0, r4
  401b86:	4b2e      	ldr	r3, [pc, #184]	; (401c40 <xQueueGenericSend+0x1cc>)
  401b88:	4798      	blx	r3
				( void ) xTaskResumeAll();
  401b8a:	4b2e      	ldr	r3, [pc, #184]	; (401c44 <xQueueGenericSend+0x1d0>)
  401b8c:	4798      	blx	r3
  401b8e:	2701      	movs	r7, #1
		taskENTER_CRITICAL();
  401b90:	47b0      	blx	r6
			if( ( pxQueue->uxMessagesWaiting < pxQueue->uxLength ) || ( xCopyPosition == queueOVERWRITE ) )
  401b92:	6ba2      	ldr	r2, [r4, #56]	; 0x38
  401b94:	6be3      	ldr	r3, [r4, #60]	; 0x3c
  401b96:	429a      	cmp	r2, r3
  401b98:	d3b9      	bcc.n	401b0e <xQueueGenericSend+0x9a>
  401b9a:	2d02      	cmp	r5, #2
  401b9c:	d0b7      	beq.n	401b0e <xQueueGenericSend+0x9a>
				if( xTicksToWait == ( TickType_t ) 0 )
  401b9e:	9b01      	ldr	r3, [sp, #4]
  401ba0:	2b00      	cmp	r3, #0
  401ba2:	d0eb      	beq.n	401b7c <xQueueGenericSend+0x108>
				else if( xEntryTimeSet == pdFALSE )
  401ba4:	b90f      	cbnz	r7, 401baa <xQueueGenericSend+0x136>
					vTaskSetTimeOutState( &xTimeOut );
  401ba6:	a802      	add	r0, sp, #8
  401ba8:	47d0      	blx	sl
		taskEXIT_CRITICAL();
  401baa:	4b23      	ldr	r3, [pc, #140]	; (401c38 <xQueueGenericSend+0x1c4>)
  401bac:	4798      	blx	r3
		vTaskSuspendAll();
  401bae:	4b26      	ldr	r3, [pc, #152]	; (401c48 <xQueueGenericSend+0x1d4>)
  401bb0:	4798      	blx	r3
		prvLockQueue( pxQueue );
  401bb2:	47b0      	blx	r6
  401bb4:	6c63      	ldr	r3, [r4, #68]	; 0x44
  401bb6:	f1b3 3fff 	cmp.w	r3, #4294967295
  401bba:	d101      	bne.n	401bc0 <xQueueGenericSend+0x14c>
  401bbc:	2300      	movs	r3, #0
  401bbe:	6463      	str	r3, [r4, #68]	; 0x44
  401bc0:	6ca3      	ldr	r3, [r4, #72]	; 0x48
  401bc2:	f1b3 3fff 	cmp.w	r3, #4294967295
  401bc6:	d101      	bne.n	401bcc <xQueueGenericSend+0x158>
  401bc8:	2300      	movs	r3, #0
  401bca:	64a3      	str	r3, [r4, #72]	; 0x48
  401bcc:	4b1a      	ldr	r3, [pc, #104]	; (401c38 <xQueueGenericSend+0x1c4>)
  401bce:	4798      	blx	r3
		if( xTaskCheckForTimeOut( &xTimeOut, &xTicksToWait ) == pdFALSE )
  401bd0:	a901      	add	r1, sp, #4
  401bd2:	a802      	add	r0, sp, #8
  401bd4:	4b1d      	ldr	r3, [pc, #116]	; (401c4c <xQueueGenericSend+0x1d8>)
  401bd6:	4798      	blx	r3
  401bd8:	b9e0      	cbnz	r0, 401c14 <xQueueGenericSend+0x1a0>
	taskENTER_CRITICAL();
  401bda:	47b0      	blx	r6
		if( pxQueue->uxMessagesWaiting == pxQueue->uxLength )
  401bdc:	f8d4 b038 	ldr.w	fp, [r4, #56]	; 0x38
  401be0:	6be7      	ldr	r7, [r4, #60]	; 0x3c
	taskEXIT_CRITICAL();
  401be2:	4b15      	ldr	r3, [pc, #84]	; (401c38 <xQueueGenericSend+0x1c4>)
  401be4:	4798      	blx	r3
			if( prvIsQueueFull( pxQueue ) != pdFALSE )
  401be6:	45bb      	cmp	fp, r7
  401be8:	d1cc      	bne.n	401b84 <xQueueGenericSend+0x110>
				vTaskPlaceOnEventList( &( pxQueue->xTasksWaitingToSend ), xTicksToWait );
  401bea:	9901      	ldr	r1, [sp, #4]
  401bec:	f104 0010 	add.w	r0, r4, #16
  401bf0:	4b17      	ldr	r3, [pc, #92]	; (401c50 <xQueueGenericSend+0x1dc>)
  401bf2:	4798      	blx	r3
				prvUnlockQueue( pxQueue );
  401bf4:	4620      	mov	r0, r4
  401bf6:	4b12      	ldr	r3, [pc, #72]	; (401c40 <xQueueGenericSend+0x1cc>)
  401bf8:	4798      	blx	r3
				if( xTaskResumeAll() == pdFALSE )
  401bfa:	4b12      	ldr	r3, [pc, #72]	; (401c44 <xQueueGenericSend+0x1d0>)
  401bfc:	4798      	blx	r3
  401bfe:	2800      	cmp	r0, #0
  401c00:	d1c5      	bne.n	401b8e <xQueueGenericSend+0x11a>
					portYIELD_WITHIN_API();
  401c02:	f04f 5380 	mov.w	r3, #268435456	; 0x10000000
  401c06:	f8c9 3000 	str.w	r3, [r9]
  401c0a:	f3bf 8f4f 	dsb	sy
  401c0e:	f3bf 8f6f 	isb	sy
  401c12:	e7bc      	b.n	401b8e <xQueueGenericSend+0x11a>
			prvUnlockQueue( pxQueue );
  401c14:	4620      	mov	r0, r4
  401c16:	4b0a      	ldr	r3, [pc, #40]	; (401c40 <xQueueGenericSend+0x1cc>)
  401c18:	4798      	blx	r3
			( void ) xTaskResumeAll();
  401c1a:	4b0a      	ldr	r3, [pc, #40]	; (401c44 <xQueueGenericSend+0x1d0>)
  401c1c:	4798      	blx	r3
			return errQUEUE_FULL;
  401c1e:	2000      	movs	r0, #0
  401c20:	e78d      	b.n	401b3e <xQueueGenericSend+0xca>
  401c22:	bf00      	nop
  401c24:	00402a35 	.word	0x00402a35
  401c28:	004014d9 	.word	0x004014d9
  401c2c:	00401789 	.word	0x00401789
  401c30:	00401811 	.word	0x00401811
  401c34:	e000ed04 	.word	0xe000ed04
  401c38:	00401525 	.word	0x00401525
  401c3c:	004028cd 	.word	0x004028cd
  401c40:	004018c1 	.word	0x004018c1
  401c44:	00402541 	.word	0x00402541
  401c48:	004023d9 	.word	0x004023d9
  401c4c:	00402995 	.word	0x00402995
  401c50:	004027c9 	.word	0x004027c9
  401c54:	00402965 	.word	0x00402965

00401c58 <xQueueGenericSendFromISR>:
	configASSERT( pxQueue );
  401c58:	2800      	cmp	r0, #0
  401c5a:	d036      	beq.n	401cca <xQueueGenericSendFromISR+0x72>
{
  401c5c:	e92d 41f0 	stmdb	sp!, {r4, r5, r6, r7, r8, lr}
  401c60:	4604      	mov	r4, r0
	configASSERT( !( ( pvItemToQueue == NULL ) && ( pxQueue->uxItemSize != ( UBaseType_t ) 0U ) ) );
  401c62:	2900      	cmp	r1, #0
  401c64:	d03c      	beq.n	401ce0 <xQueueGenericSendFromISR+0x88>
	configASSERT( !( ( xCopyPosition == queueOVERWRITE ) && ( pxQueue->uxLength != 1 ) ) );
  401c66:	2b02      	cmp	r3, #2
  401c68:	d048      	beq.n	401cfc <xQueueGenericSendFromISR+0xa4>
  401c6a:	461e      	mov	r6, r3
  401c6c:	4615      	mov	r5, r2
  401c6e:	4688      	mov	r8, r1
	portASSERT_IF_INTERRUPT_PRIORITY_INVALID();
  401c70:	4b35      	ldr	r3, [pc, #212]	; (401d48 <xQueueGenericSendFromISR+0xf0>)
  401c72:	4798      	blx	r3
	__asm volatile
  401c74:	f3ef 8711 	mrs	r7, BASEPRI
  401c78:	f04f 0380 	mov.w	r3, #128	; 0x80
  401c7c:	b672      	cpsid	i
  401c7e:	f383 8811 	msr	BASEPRI, r3
  401c82:	f3bf 8f6f 	isb	sy
  401c86:	f3bf 8f4f 	dsb	sy
  401c8a:	b662      	cpsie	i
		if( ( pxQueue->uxMessagesWaiting < pxQueue->uxLength ) || ( xCopyPosition == queueOVERWRITE ) )
  401c8c:	6ba2      	ldr	r2, [r4, #56]	; 0x38
  401c8e:	6be3      	ldr	r3, [r4, #60]	; 0x3c
  401c90:	429a      	cmp	r2, r3
  401c92:	d301      	bcc.n	401c98 <xQueueGenericSendFromISR+0x40>
  401c94:	2e02      	cmp	r6, #2
  401c96:	d14f      	bne.n	401d38 <xQueueGenericSendFromISR+0xe0>
			( void ) prvCopyDataToQueue( pxQueue, pvItemToQueue, xCopyPosition );
  401c98:	4632      	mov	r2, r6
  401c9a:	4641      	mov	r1, r8
  401c9c:	4620      	mov	r0, r4
  401c9e:	4b2b      	ldr	r3, [pc, #172]	; (401d4c <xQueueGenericSendFromISR+0xf4>)
  401ca0:	4798      	blx	r3
			if( pxQueue->xTxLock == queueUNLOCKED )
  401ca2:	6ca3      	ldr	r3, [r4, #72]	; 0x48
  401ca4:	f1b3 3fff 	cmp.w	r3, #4294967295
  401ca8:	d141      	bne.n	401d2e <xQueueGenericSendFromISR+0xd6>
					if( pxQueue->pxQueueSetContainer != NULL )
  401caa:	6d63      	ldr	r3, [r4, #84]	; 0x54
  401cac:	2b00      	cmp	r3, #0
  401cae:	d033      	beq.n	401d18 <xQueueGenericSendFromISR+0xc0>
						if( prvNotifyQueueSetContainer( pxQueue, xCopyPosition ) == pdTRUE )
  401cb0:	4631      	mov	r1, r6
  401cb2:	4620      	mov	r0, r4
  401cb4:	4b26      	ldr	r3, [pc, #152]	; (401d50 <xQueueGenericSendFromISR+0xf8>)
  401cb6:	4798      	blx	r3
							if( pxHigherPriorityTaskWoken != NULL )
  401cb8:	2d00      	cmp	r5, #0
  401cba:	d03f      	beq.n	401d3c <xQueueGenericSendFromISR+0xe4>
  401cbc:	2801      	cmp	r0, #1
  401cbe:	d13d      	bne.n	401d3c <xQueueGenericSendFromISR+0xe4>
								*pxHigherPriorityTaskWoken = pdTRUE;
  401cc0:	6028      	str	r0, [r5, #0]
	__asm volatile
  401cc2:	f387 8811 	msr	BASEPRI, r7
}
  401cc6:	e8bd 81f0 	ldmia.w	sp!, {r4, r5, r6, r7, r8, pc}
	__asm volatile
  401cca:	f04f 0380 	mov.w	r3, #128	; 0x80
  401cce:	b672      	cpsid	i
  401cd0:	f383 8811 	msr	BASEPRI, r3
  401cd4:	f3bf 8f6f 	isb	sy
  401cd8:	f3bf 8f4f 	dsb	sy
  401cdc:	b662      	cpsie	i
  401cde:	e7fe      	b.n	401cde <xQueueGenericSendFromISR+0x86>
	configASSERT( !( ( pvItemToQueue == NULL ) && ( pxQueue->uxItemSize != ( UBaseType_t ) 0U ) ) );
  401ce0:	6c00      	ldr	r0, [r0, #64]	; 0x40
  401ce2:	2800      	cmp	r0, #0
  401ce4:	d0bf      	beq.n	401c66 <xQueueGenericSendFromISR+0xe>
  401ce6:	f04f 0380 	mov.w	r3, #128	; 0x80
  401cea:	b672      	cpsid	i
  401cec:	f383 8811 	msr	BASEPRI, r3
  401cf0:	f3bf 8f6f 	isb	sy
  401cf4:	f3bf 8f4f 	dsb	sy
  401cf8:	b662      	cpsie	i
  401cfa:	e7fe      	b.n	401cfa <xQueueGenericSendFromISR+0xa2>
	configASSERT( !( ( xCopyPosition == queueOVERWRITE ) && ( pxQueue->uxLength != 1 ) ) );
  401cfc:	6be0      	ldr	r0, [r4, #60]	; 0x3c
  401cfe:	2801      	cmp	r0, #1
  401d00:	d0b3      	beq.n	401c6a <xQueueGenericSendFromISR+0x12>
  401d02:	f04f 0380 	mov.w	r3, #128	; 0x80
  401d06:	b672      	cpsid	i
  401d08:	f383 8811 	msr	BASEPRI, r3
  401d0c:	f3bf 8f6f 	isb	sy
  401d10:	f3bf 8f4f 	dsb	sy
  401d14:	b662      	cpsie	i
  401d16:	e7fe      	b.n	401d16 <xQueueGenericSendFromISR+0xbe>
						if( listLIST_IS_EMPTY( &( pxQueue->xTasksWaitingToReceive ) ) == pdFALSE )
  401d18:	6a63      	ldr	r3, [r4, #36]	; 0x24
  401d1a:	b18b      	cbz	r3, 401d40 <xQueueGenericSendFromISR+0xe8>
							if( xTaskRemoveFromEventList( &( pxQueue->xTasksWaitingToReceive ) ) != pdFALSE )
  401d1c:	f104 0024 	add.w	r0, r4, #36	; 0x24
  401d20:	4b0c      	ldr	r3, [pc, #48]	; (401d54 <xQueueGenericSendFromISR+0xfc>)
  401d22:	4798      	blx	r3
								if( pxHigherPriorityTaskWoken != NULL )
  401d24:	b175      	cbz	r5, 401d44 <xQueueGenericSendFromISR+0xec>
  401d26:	b168      	cbz	r0, 401d44 <xQueueGenericSendFromISR+0xec>
									*pxHigherPriorityTaskWoken = pdTRUE;
  401d28:	2001      	movs	r0, #1
  401d2a:	6028      	str	r0, [r5, #0]
  401d2c:	e7c9      	b.n	401cc2 <xQueueGenericSendFromISR+0x6a>
				++( pxQueue->xTxLock );
  401d2e:	6ca3      	ldr	r3, [r4, #72]	; 0x48
  401d30:	3301      	adds	r3, #1
  401d32:	64a3      	str	r3, [r4, #72]	; 0x48
			xReturn = pdPASS;
  401d34:	2001      	movs	r0, #1
  401d36:	e7c4      	b.n	401cc2 <xQueueGenericSendFromISR+0x6a>
			xReturn = errQUEUE_FULL;
  401d38:	2000      	movs	r0, #0
  401d3a:	e7c2      	b.n	401cc2 <xQueueGenericSendFromISR+0x6a>
			xReturn = pdPASS;
  401d3c:	2001      	movs	r0, #1
  401d3e:	e7c0      	b.n	401cc2 <xQueueGenericSendFromISR+0x6a>
  401d40:	2001      	movs	r0, #1
  401d42:	e7be      	b.n	401cc2 <xQueueGenericSendFromISR+0x6a>
  401d44:	2001      	movs	r0, #1
  401d46:	e7bc      	b.n	401cc2 <xQueueGenericSendFromISR+0x6a>
  401d48:	004016d1 	.word	0x004016d1
  401d4c:	00401789 	.word	0x00401789
  401d50:	00401811 	.word	0x00401811
  401d54:	004028cd 	.word	0x004028cd

00401d58 <xQueueGiveFromISR>:
	configASSERT( pxQueue );
  401d58:	b170      	cbz	r0, 401d78 <xQueueGiveFromISR+0x20>
{
  401d5a:	b570      	push	{r4, r5, r6, lr}
  401d5c:	4604      	mov	r4, r0
	configASSERT( pxQueue->uxItemSize == 0 );
  401d5e:	6c03      	ldr	r3, [r0, #64]	; 0x40
  401d60:	b1ab      	cbz	r3, 401d8e <xQueueGiveFromISR+0x36>
  401d62:	f04f 0380 	mov.w	r3, #128	; 0x80
  401d66:	b672      	cpsid	i
  401d68:	f383 8811 	msr	BASEPRI, r3
  401d6c:	f3bf 8f6f 	isb	sy
  401d70:	f3bf 8f4f 	dsb	sy
  401d74:	b662      	cpsie	i
  401d76:	e7fe      	b.n	401d76 <xQueueGiveFromISR+0x1e>
  401d78:	f04f 0380 	mov.w	r3, #128	; 0x80
  401d7c:	b672      	cpsid	i
  401d7e:	f383 8811 	msr	BASEPRI, r3
  401d82:	f3bf 8f6f 	isb	sy
  401d86:	f3bf 8f4f 	dsb	sy
  401d8a:	b662      	cpsie	i
  401d8c:	e7fe      	b.n	401d8c <xQueueGiveFromISR+0x34>
	configASSERT( !( ( pxQueue->uxQueueType == queueQUEUE_IS_MUTEX ) && ( pxQueue->pxMutexHolder != NULL ) ) );
  401d8e:	6803      	ldr	r3, [r0, #0]
  401d90:	b333      	cbz	r3, 401de0 <xQueueGiveFromISR+0x88>
  401d92:	460d      	mov	r5, r1
	portASSERT_IF_INTERRUPT_PRIORITY_INVALID();
  401d94:	4b25      	ldr	r3, [pc, #148]	; (401e2c <xQueueGiveFromISR+0xd4>)
  401d96:	4798      	blx	r3
	__asm volatile
  401d98:	f3ef 8611 	mrs	r6, BASEPRI
  401d9c:	f04f 0380 	mov.w	r3, #128	; 0x80
  401da0:	b672      	cpsid	i
  401da2:	f383 8811 	msr	BASEPRI, r3
  401da6:	f3bf 8f6f 	isb	sy
  401daa:	f3bf 8f4f 	dsb	sy
  401dae:	b662      	cpsie	i
		if( pxQueue->uxMessagesWaiting < pxQueue->uxLength )
  401db0:	6ba2      	ldr	r2, [r4, #56]	; 0x38
  401db2:	6be3      	ldr	r3, [r4, #60]	; 0x3c
  401db4:	429a      	cmp	r2, r3
  401db6:	d231      	bcs.n	401e1c <xQueueGiveFromISR+0xc4>
			++( pxQueue->uxMessagesWaiting );
  401db8:	6ba3      	ldr	r3, [r4, #56]	; 0x38
  401dba:	3301      	adds	r3, #1
  401dbc:	63a3      	str	r3, [r4, #56]	; 0x38
			if( pxQueue->xTxLock == queueUNLOCKED )
  401dbe:	6ca3      	ldr	r3, [r4, #72]	; 0x48
  401dc0:	f1b3 3fff 	cmp.w	r3, #4294967295
  401dc4:	d125      	bne.n	401e12 <xQueueGiveFromISR+0xba>
					if( pxQueue->pxQueueSetContainer != NULL )
  401dc6:	6d63      	ldr	r3, [r4, #84]	; 0x54
  401dc8:	b1c3      	cbz	r3, 401dfc <xQueueGiveFromISR+0xa4>
						if( prvNotifyQueueSetContainer( pxQueue, queueSEND_TO_BACK ) == pdTRUE )
  401dca:	2100      	movs	r1, #0
  401dcc:	4620      	mov	r0, r4
  401dce:	4b18      	ldr	r3, [pc, #96]	; (401e30 <xQueueGiveFromISR+0xd8>)
  401dd0:	4798      	blx	r3
							if( pxHigherPriorityTaskWoken != NULL )
  401dd2:	b32d      	cbz	r5, 401e20 <xQueueGiveFromISR+0xc8>
  401dd4:	2801      	cmp	r0, #1
  401dd6:	d123      	bne.n	401e20 <xQueueGiveFromISR+0xc8>
								*pxHigherPriorityTaskWoken = pdTRUE;
  401dd8:	6028      	str	r0, [r5, #0]
	__asm volatile
  401dda:	f386 8811 	msr	BASEPRI, r6
}
  401dde:	bd70      	pop	{r4, r5, r6, pc}
	configASSERT( !( ( pxQueue->uxQueueType == queueQUEUE_IS_MUTEX ) && ( pxQueue->pxMutexHolder != NULL ) ) );
  401de0:	6843      	ldr	r3, [r0, #4]
  401de2:	2b00      	cmp	r3, #0
  401de4:	d0d5      	beq.n	401d92 <xQueueGiveFromISR+0x3a>
	__asm volatile
  401de6:	f04f 0380 	mov.w	r3, #128	; 0x80
  401dea:	b672      	cpsid	i
  401dec:	f383 8811 	msr	BASEPRI, r3
  401df0:	f3bf 8f6f 	isb	sy
  401df4:	f3bf 8f4f 	dsb	sy
  401df8:	b662      	cpsie	i
  401dfa:	e7fe      	b.n	401dfa <xQueueGiveFromISR+0xa2>
						if( listLIST_IS_EMPTY( &( pxQueue->xTasksWaitingToReceive ) ) == pdFALSE )
  401dfc:	6a63      	ldr	r3, [r4, #36]	; 0x24
  401dfe:	b18b      	cbz	r3, 401e24 <xQueueGiveFromISR+0xcc>
							if( xTaskRemoveFromEventList( &( pxQueue->xTasksWaitingToReceive ) ) != pdFALSE )
  401e00:	f104 0024 	add.w	r0, r4, #36	; 0x24
  401e04:	4b0b      	ldr	r3, [pc, #44]	; (401e34 <xQueueGiveFromISR+0xdc>)
  401e06:	4798      	blx	r3
								if( pxHigherPriorityTaskWoken != NULL )
  401e08:	b175      	cbz	r5, 401e28 <xQueueGiveFromISR+0xd0>
  401e0a:	b168      	cbz	r0, 401e28 <xQueueGiveFromISR+0xd0>
									*pxHigherPriorityTaskWoken = pdTRUE;
  401e0c:	2001      	movs	r0, #1
  401e0e:	6028      	str	r0, [r5, #0]
  401e10:	e7e3      	b.n	401dda <xQueueGiveFromISR+0x82>
				++( pxQueue->xTxLock );
  401e12:	6ca3      	ldr	r3, [r4, #72]	; 0x48
  401e14:	3301      	adds	r3, #1
  401e16:	64a3      	str	r3, [r4, #72]	; 0x48
			xReturn = pdPASS;
  401e18:	2001      	movs	r0, #1
  401e1a:	e7de      	b.n	401dda <xQueueGiveFromISR+0x82>
			xReturn = errQUEUE_FULL;
  401e1c:	2000      	movs	r0, #0
  401e1e:	e7dc      	b.n	401dda <xQueueGiveFromISR+0x82>
			xReturn = pdPASS;
  401e20:	2001      	movs	r0, #1
  401e22:	e7da      	b.n	401dda <xQueueGiveFromISR+0x82>
  401e24:	2001      	movs	r0, #1
  401e26:	e7d8      	b.n	401dda <xQueueGiveFromISR+0x82>
  401e28:	2001      	movs	r0, #1
  401e2a:	e7d6      	b.n	401dda <xQueueGiveFromISR+0x82>
  401e2c:	004016d1 	.word	0x004016d1
  401e30:	00401811 	.word	0x00401811
  401e34:	004028cd 	.word	0x004028cd

00401e38 <xQueueGenericReceive>:
{
  401e38:	e92d 47f0 	stmdb	sp!, {r4, r5, r6, r7, r8, r9, sl, lr}
  401e3c:	b084      	sub	sp, #16
  401e3e:	9201      	str	r2, [sp, #4]
	configASSERT( pxQueue );
  401e40:	b198      	cbz	r0, 401e6a <xQueueGenericReceive+0x32>
  401e42:	4604      	mov	r4, r0
	configASSERT( !( ( pvBuffer == NULL ) && ( pxQueue->uxItemSize != ( UBaseType_t ) 0U ) ) );
  401e44:	b1e1      	cbz	r1, 401e80 <xQueueGenericReceive+0x48>
  401e46:	4698      	mov	r8, r3
  401e48:	460f      	mov	r7, r1
		configASSERT( !( ( xTaskGetSchedulerState() == taskSCHEDULER_SUSPENDED ) && ( xTicksToWait != 0 ) ) );
  401e4a:	4b61      	ldr	r3, [pc, #388]	; (401fd0 <xQueueGenericReceive+0x198>)
  401e4c:	4798      	blx	r3
  401e4e:	bb28      	cbnz	r0, 401e9c <xQueueGenericReceive+0x64>
  401e50:	9b01      	ldr	r3, [sp, #4]
  401e52:	b353      	cbz	r3, 401eaa <xQueueGenericReceive+0x72>
  401e54:	f04f 0380 	mov.w	r3, #128	; 0x80
  401e58:	b672      	cpsid	i
  401e5a:	f383 8811 	msr	BASEPRI, r3
  401e5e:	f3bf 8f6f 	isb	sy
  401e62:	f3bf 8f4f 	dsb	sy
  401e66:	b662      	cpsie	i
  401e68:	e7fe      	b.n	401e68 <xQueueGenericReceive+0x30>
  401e6a:	f04f 0380 	mov.w	r3, #128	; 0x80
  401e6e:	b672      	cpsid	i
  401e70:	f383 8811 	msr	BASEPRI, r3
  401e74:	f3bf 8f6f 	isb	sy
  401e78:	f3bf 8f4f 	dsb	sy
  401e7c:	b662      	cpsie	i
  401e7e:	e7fe      	b.n	401e7e <xQueueGenericReceive+0x46>
	configASSERT( !( ( pvBuffer == NULL ) && ( pxQueue->uxItemSize != ( UBaseType_t ) 0U ) ) );
  401e80:	6c02      	ldr	r2, [r0, #64]	; 0x40
  401e82:	2a00      	cmp	r2, #0
  401e84:	d0df      	beq.n	401e46 <xQueueGenericReceive+0xe>
  401e86:	f04f 0380 	mov.w	r3, #128	; 0x80
  401e8a:	b672      	cpsid	i
  401e8c:	f383 8811 	msr	BASEPRI, r3
  401e90:	f3bf 8f6f 	isb	sy
  401e94:	f3bf 8f4f 	dsb	sy
  401e98:	b662      	cpsie	i
  401e9a:	e7fe      	b.n	401e9a <xQueueGenericReceive+0x62>
  401e9c:	2600      	movs	r6, #0
		taskENTER_CRITICAL();
  401e9e:	4d4d      	ldr	r5, [pc, #308]	; (401fd4 <xQueueGenericReceive+0x19c>)
					vTaskSetTimeOutState( &xTimeOut );
  401ea0:	f8df a160 	ldr.w	sl, [pc, #352]	; 402004 <xQueueGenericReceive+0x1cc>
					portYIELD_WITHIN_API();
  401ea4:	f8df 913c 	ldr.w	r9, [pc, #316]	; 401fe4 <xQueueGenericReceive+0x1ac>
  401ea8:	e04b      	b.n	401f42 <xQueueGenericReceive+0x10a>
  401eaa:	2600      	movs	r6, #0
  401eac:	e7f7      	b.n	401e9e <xQueueGenericReceive+0x66>
				pcOriginalReadPosition = pxQueue->u.pcReadFrom;
  401eae:	68e5      	ldr	r5, [r4, #12]
				prvCopyDataFromQueue( pxQueue, pvBuffer );
  401eb0:	4639      	mov	r1, r7
  401eb2:	4620      	mov	r0, r4
  401eb4:	4b48      	ldr	r3, [pc, #288]	; (401fd8 <xQueueGenericReceive+0x1a0>)
  401eb6:	4798      	blx	r3
				if( xJustPeeking == pdFALSE )
  401eb8:	f1b8 0f00 	cmp.w	r8, #0
  401ebc:	d11d      	bne.n	401efa <xQueueGenericReceive+0xc2>
					--( pxQueue->uxMessagesWaiting );
  401ebe:	6ba3      	ldr	r3, [r4, #56]	; 0x38
  401ec0:	3b01      	subs	r3, #1
  401ec2:	63a3      	str	r3, [r4, #56]	; 0x38
						if( pxQueue->uxQueueType == queueQUEUE_IS_MUTEX )
  401ec4:	6823      	ldr	r3, [r4, #0]
  401ec6:	b913      	cbnz	r3, 401ece <xQueueGenericReceive+0x96>
							pxQueue->pxMutexHolder = ( int8_t * ) pvTaskIncrementMutexHeldCount(); /*lint !e961 Cast is not redundant as TaskHandle_t is a typedef. */
  401ec8:	4b44      	ldr	r3, [pc, #272]	; (401fdc <xQueueGenericReceive+0x1a4>)
  401eca:	4798      	blx	r3
  401ecc:	6060      	str	r0, [r4, #4]
					if( listLIST_IS_EMPTY( &( pxQueue->xTasksWaitingToSend ) ) == pdFALSE )
  401ece:	6923      	ldr	r3, [r4, #16]
  401ed0:	b16b      	cbz	r3, 401eee <xQueueGenericReceive+0xb6>
						if( xTaskRemoveFromEventList( &( pxQueue->xTasksWaitingToSend ) ) == pdTRUE )
  401ed2:	f104 0010 	add.w	r0, r4, #16
  401ed6:	4b42      	ldr	r3, [pc, #264]	; (401fe0 <xQueueGenericReceive+0x1a8>)
  401ed8:	4798      	blx	r3
  401eda:	2801      	cmp	r0, #1
  401edc:	d107      	bne.n	401eee <xQueueGenericReceive+0xb6>
							queueYIELD_IF_USING_PREEMPTION();
  401ede:	f04f 5280 	mov.w	r2, #268435456	; 0x10000000
  401ee2:	4b40      	ldr	r3, [pc, #256]	; (401fe4 <xQueueGenericReceive+0x1ac>)
  401ee4:	601a      	str	r2, [r3, #0]
  401ee6:	f3bf 8f4f 	dsb	sy
  401eea:	f3bf 8f6f 	isb	sy
				taskEXIT_CRITICAL();
  401eee:	4b3e      	ldr	r3, [pc, #248]	; (401fe8 <xQueueGenericReceive+0x1b0>)
  401ef0:	4798      	blx	r3
				return pdPASS;
  401ef2:	2001      	movs	r0, #1
}
  401ef4:	b004      	add	sp, #16
  401ef6:	e8bd 87f0 	ldmia.w	sp!, {r4, r5, r6, r7, r8, r9, sl, pc}
					pxQueue->u.pcReadFrom = pcOriginalReadPosition;
  401efa:	60e5      	str	r5, [r4, #12]
					if( listLIST_IS_EMPTY( &( pxQueue->xTasksWaitingToReceive ) ) == pdFALSE )
  401efc:	6a63      	ldr	r3, [r4, #36]	; 0x24
  401efe:	2b00      	cmp	r3, #0
  401f00:	d0f5      	beq.n	401eee <xQueueGenericReceive+0xb6>
						if( xTaskRemoveFromEventList( &( pxQueue->xTasksWaitingToReceive ) ) != pdFALSE )
  401f02:	f104 0024 	add.w	r0, r4, #36	; 0x24
  401f06:	4b36      	ldr	r3, [pc, #216]	; (401fe0 <xQueueGenericReceive+0x1a8>)
  401f08:	4798      	blx	r3
  401f0a:	2800      	cmp	r0, #0
  401f0c:	d0ef      	beq.n	401eee <xQueueGenericReceive+0xb6>
							queueYIELD_IF_USING_PREEMPTION();
  401f0e:	f04f 5280 	mov.w	r2, #268435456	; 0x10000000
  401f12:	4b34      	ldr	r3, [pc, #208]	; (401fe4 <xQueueGenericReceive+0x1ac>)
  401f14:	601a      	str	r2, [r3, #0]
  401f16:	f3bf 8f4f 	dsb	sy
  401f1a:	f3bf 8f6f 	isb	sy
  401f1e:	e7e6      	b.n	401eee <xQueueGenericReceive+0xb6>
					taskEXIT_CRITICAL();
  401f20:	4b31      	ldr	r3, [pc, #196]	; (401fe8 <xQueueGenericReceive+0x1b0>)
  401f22:	4798      	blx	r3
					return errQUEUE_EMPTY;
  401f24:	2000      	movs	r0, #0
  401f26:	e7e5      	b.n	401ef4 <xQueueGenericReceive+0xbc>
						taskENTER_CRITICAL();
  401f28:	47a8      	blx	r5
							vTaskPriorityInherit( ( void * ) pxQueue->pxMutexHolder );
  401f2a:	6860      	ldr	r0, [r4, #4]
  401f2c:	4b2f      	ldr	r3, [pc, #188]	; (401fec <xQueueGenericReceive+0x1b4>)
  401f2e:	4798      	blx	r3
						taskEXIT_CRITICAL();
  401f30:	4b2d      	ldr	r3, [pc, #180]	; (401fe8 <xQueueGenericReceive+0x1b0>)
  401f32:	4798      	blx	r3
  401f34:	e030      	b.n	401f98 <xQueueGenericReceive+0x160>
				prvUnlockQueue( pxQueue );
  401f36:	4620      	mov	r0, r4
  401f38:	4b2d      	ldr	r3, [pc, #180]	; (401ff0 <xQueueGenericReceive+0x1b8>)
  401f3a:	4798      	blx	r3
				( void ) xTaskResumeAll();
  401f3c:	4b2d      	ldr	r3, [pc, #180]	; (401ff4 <xQueueGenericReceive+0x1bc>)
  401f3e:	4798      	blx	r3
  401f40:	2601      	movs	r6, #1
		taskENTER_CRITICAL();
  401f42:	47a8      	blx	r5
			if( pxQueue->uxMessagesWaiting > ( UBaseType_t ) 0 )
  401f44:	6ba3      	ldr	r3, [r4, #56]	; 0x38
  401f46:	2b00      	cmp	r3, #0
  401f48:	d1b1      	bne.n	401eae <xQueueGenericReceive+0x76>
				if( xTicksToWait == ( TickType_t ) 0 )
  401f4a:	9b01      	ldr	r3, [sp, #4]
  401f4c:	2b00      	cmp	r3, #0
  401f4e:	d0e7      	beq.n	401f20 <xQueueGenericReceive+0xe8>
				else if( xEntryTimeSet == pdFALSE )
  401f50:	b90e      	cbnz	r6, 401f56 <xQueueGenericReceive+0x11e>
					vTaskSetTimeOutState( &xTimeOut );
  401f52:	a802      	add	r0, sp, #8
  401f54:	47d0      	blx	sl
		taskEXIT_CRITICAL();
  401f56:	4b24      	ldr	r3, [pc, #144]	; (401fe8 <xQueueGenericReceive+0x1b0>)
  401f58:	4798      	blx	r3
		vTaskSuspendAll();
  401f5a:	4b27      	ldr	r3, [pc, #156]	; (401ff8 <xQueueGenericReceive+0x1c0>)
  401f5c:	4798      	blx	r3
		prvLockQueue( pxQueue );
  401f5e:	47a8      	blx	r5
  401f60:	6c63      	ldr	r3, [r4, #68]	; 0x44
  401f62:	f1b3 3fff 	cmp.w	r3, #4294967295
  401f66:	d101      	bne.n	401f6c <xQueueGenericReceive+0x134>
  401f68:	2300      	movs	r3, #0
  401f6a:	6463      	str	r3, [r4, #68]	; 0x44
  401f6c:	6ca3      	ldr	r3, [r4, #72]	; 0x48
  401f6e:	f1b3 3fff 	cmp.w	r3, #4294967295
  401f72:	d101      	bne.n	401f78 <xQueueGenericReceive+0x140>
  401f74:	2300      	movs	r3, #0
  401f76:	64a3      	str	r3, [r4, #72]	; 0x48
  401f78:	4b1b      	ldr	r3, [pc, #108]	; (401fe8 <xQueueGenericReceive+0x1b0>)
  401f7a:	4798      	blx	r3
		if( xTaskCheckForTimeOut( &xTimeOut, &xTicksToWait ) == pdFALSE )
  401f7c:	a901      	add	r1, sp, #4
  401f7e:	a802      	add	r0, sp, #8
  401f80:	4b1e      	ldr	r3, [pc, #120]	; (401ffc <xQueueGenericReceive+0x1c4>)
  401f82:	4798      	blx	r3
  401f84:	b9e8      	cbnz	r0, 401fc2 <xQueueGenericReceive+0x18a>
	taskENTER_CRITICAL();
  401f86:	47a8      	blx	r5
		if( pxQueue->uxMessagesWaiting == ( UBaseType_t )  0 )
  401f88:	6ba6      	ldr	r6, [r4, #56]	; 0x38
	taskEXIT_CRITICAL();
  401f8a:	4b17      	ldr	r3, [pc, #92]	; (401fe8 <xQueueGenericReceive+0x1b0>)
  401f8c:	4798      	blx	r3
			if( prvIsQueueEmpty( pxQueue ) != pdFALSE )
  401f8e:	2e00      	cmp	r6, #0
  401f90:	d1d1      	bne.n	401f36 <xQueueGenericReceive+0xfe>
					if( pxQueue->uxQueueType == queueQUEUE_IS_MUTEX )
  401f92:	6823      	ldr	r3, [r4, #0]
  401f94:	2b00      	cmp	r3, #0
  401f96:	d0c7      	beq.n	401f28 <xQueueGenericReceive+0xf0>
				vTaskPlaceOnEventList( &( pxQueue->xTasksWaitingToReceive ), xTicksToWait );
  401f98:	9901      	ldr	r1, [sp, #4]
  401f9a:	f104 0024 	add.w	r0, r4, #36	; 0x24
  401f9e:	4b18      	ldr	r3, [pc, #96]	; (402000 <xQueueGenericReceive+0x1c8>)
  401fa0:	4798      	blx	r3
				prvUnlockQueue( pxQueue );
  401fa2:	4620      	mov	r0, r4
  401fa4:	4b12      	ldr	r3, [pc, #72]	; (401ff0 <xQueueGenericReceive+0x1b8>)
  401fa6:	4798      	blx	r3
				if( xTaskResumeAll() == pdFALSE )
  401fa8:	4b12      	ldr	r3, [pc, #72]	; (401ff4 <xQueueGenericReceive+0x1bc>)
  401faa:	4798      	blx	r3
  401fac:	2800      	cmp	r0, #0
  401fae:	d1c7      	bne.n	401f40 <xQueueGenericReceive+0x108>
					portYIELD_WITHIN_API();
  401fb0:	f04f 5380 	mov.w	r3, #268435456	; 0x10000000
  401fb4:	f8c9 3000 	str.w	r3, [r9]
  401fb8:	f3bf 8f4f 	dsb	sy
  401fbc:	f3bf 8f6f 	isb	sy
  401fc0:	e7be      	b.n	401f40 <xQueueGenericReceive+0x108>
			prvUnlockQueue( pxQueue );
  401fc2:	4620      	mov	r0, r4
  401fc4:	4b0a      	ldr	r3, [pc, #40]	; (401ff0 <xQueueGenericReceive+0x1b8>)
  401fc6:	4798      	blx	r3
			( void ) xTaskResumeAll();
  401fc8:	4b0a      	ldr	r3, [pc, #40]	; (401ff4 <xQueueGenericReceive+0x1bc>)
  401fca:	4798      	blx	r3
			return errQUEUE_EMPTY;
  401fcc:	2000      	movs	r0, #0
  401fce:	e791      	b.n	401ef4 <xQueueGenericReceive+0xbc>
  401fd0:	00402a35 	.word	0x00402a35
  401fd4:	004014d9 	.word	0x004014d9
  401fd8:	00401899 	.word	0x00401899
  401fdc:	00402bb5 	.word	0x00402bb5
  401fe0:	004028cd 	.word	0x004028cd
  401fe4:	e000ed04 	.word	0xe000ed04
  401fe8:	00401525 	.word	0x00401525
  401fec:	00402a55 	.word	0x00402a55
  401ff0:	004018c1 	.word	0x004018c1
  401ff4:	00402541 	.word	0x00402541
  401ff8:	004023d9 	.word	0x004023d9
  401ffc:	00402995 	.word	0x00402995
  402000:	004027c9 	.word	0x004027c9
  402004:	00402965 	.word	0x00402965

00402008 <vQueueAddToRegistry>:
	{
  402008:	b410      	push	{r4}
			if( xQueueRegistry[ ux ].pcQueueName == NULL )
  40200a:	4b0b      	ldr	r3, [pc, #44]	; (402038 <vQueueAddToRegistry+0x30>)
  40200c:	681b      	ldr	r3, [r3, #0]
  40200e:	b153      	cbz	r3, 402026 <vQueueAddToRegistry+0x1e>
  402010:	2301      	movs	r3, #1
  402012:	4c09      	ldr	r4, [pc, #36]	; (402038 <vQueueAddToRegistry+0x30>)
  402014:	f854 2033 	ldr.w	r2, [r4, r3, lsl #3]
  402018:	b132      	cbz	r2, 402028 <vQueueAddToRegistry+0x20>
		for( ux = ( UBaseType_t ) 0U; ux < ( UBaseType_t ) configQUEUE_REGISTRY_SIZE; ux++ )
  40201a:	3301      	adds	r3, #1
  40201c:	2b08      	cmp	r3, #8
  40201e:	d1f9      	bne.n	402014 <vQueueAddToRegistry+0xc>
	}
  402020:	f85d 4b04 	ldr.w	r4, [sp], #4
  402024:	4770      	bx	lr
		for( ux = ( UBaseType_t ) 0U; ux < ( UBaseType_t ) configQUEUE_REGISTRY_SIZE; ux++ )
  402026:	2300      	movs	r3, #0
				xQueueRegistry[ ux ].pcQueueName = pcQueueName;
  402028:	4a03      	ldr	r2, [pc, #12]	; (402038 <vQueueAddToRegistry+0x30>)
  40202a:	f842 1033 	str.w	r1, [r2, r3, lsl #3]
				xQueueRegistry[ ux ].xHandle = xQueue;
  40202e:	eb02 03c3 	add.w	r3, r2, r3, lsl #3
  402032:	6058      	str	r0, [r3, #4]
				break;
  402034:	e7f4      	b.n	402020 <vQueueAddToRegistry+0x18>
  402036:	bf00      	nop
  402038:	20400dec 	.word	0x20400dec

0040203c <vQueueWaitForMessageRestricted>:
	{
  40203c:	b570      	push	{r4, r5, r6, lr}
  40203e:	4604      	mov	r4, r0
  402040:	460d      	mov	r5, r1
  402042:	4616      	mov	r6, r2
		prvLockQueue( pxQueue );
  402044:	4b0f      	ldr	r3, [pc, #60]	; (402084 <vQueueWaitForMessageRestricted+0x48>)
  402046:	4798      	blx	r3
  402048:	6c63      	ldr	r3, [r4, #68]	; 0x44
  40204a:	f1b3 3fff 	cmp.w	r3, #4294967295
  40204e:	d00b      	beq.n	402068 <vQueueWaitForMessageRestricted+0x2c>
  402050:	6ca3      	ldr	r3, [r4, #72]	; 0x48
  402052:	f1b3 3fff 	cmp.w	r3, #4294967295
  402056:	d00a      	beq.n	40206e <vQueueWaitForMessageRestricted+0x32>
  402058:	4b0b      	ldr	r3, [pc, #44]	; (402088 <vQueueWaitForMessageRestricted+0x4c>)
  40205a:	4798      	blx	r3
		if( pxQueue->uxMessagesWaiting == ( UBaseType_t ) 0U )
  40205c:	6ba3      	ldr	r3, [r4, #56]	; 0x38
  40205e:	b14b      	cbz	r3, 402074 <vQueueWaitForMessageRestricted+0x38>
		prvUnlockQueue( pxQueue );
  402060:	4620      	mov	r0, r4
  402062:	4b0a      	ldr	r3, [pc, #40]	; (40208c <vQueueWaitForMessageRestricted+0x50>)
  402064:	4798      	blx	r3
  402066:	bd70      	pop	{r4, r5, r6, pc}
		prvLockQueue( pxQueue );
  402068:	2300      	movs	r3, #0
  40206a:	6463      	str	r3, [r4, #68]	; 0x44
  40206c:	e7f0      	b.n	402050 <vQueueWaitForMessageRestricted+0x14>
  40206e:	2300      	movs	r3, #0
  402070:	64a3      	str	r3, [r4, #72]	; 0x48
  402072:	e7f1      	b.n	402058 <vQueueWaitForMessageRestricted+0x1c>
			vTaskPlaceOnEventListRestricted( &( pxQueue->xTasksWaitingToReceive ), xTicksToWait, xWaitIndefinitely );
  402074:	4632      	mov	r2, r6
  402076:	4629      	mov	r1, r5
  402078:	f104 0024 	add.w	r0, r4, #36	; 0x24
  40207c:	4b04      	ldr	r3, [pc, #16]	; (402090 <vQueueWaitForMessageRestricted+0x54>)
  40207e:	4798      	blx	r3
  402080:	e7ee      	b.n	402060 <vQueueWaitForMessageRestricted+0x24>
  402082:	bf00      	nop
  402084:	004014d9 	.word	0x004014d9
  402088:	00401525 	.word	0x00401525
  40208c:	004018c1 	.word	0x004018c1
  402090:	0040284d 	.word	0x0040284d

00402094 <prvResetNextTaskUnblockTime>:

static void prvResetNextTaskUnblockTime( void )
{
TCB_t *pxTCB;

	if( listLIST_IS_EMPTY( pxDelayedTaskList ) != pdFALSE )
  402094:	4b08      	ldr	r3, [pc, #32]	; (4020b8 <prvResetNextTaskUnblockTime+0x24>)
  402096:	681b      	ldr	r3, [r3, #0]
  402098:	681b      	ldr	r3, [r3, #0]
  40209a:	b13b      	cbz	r3, 4020ac <prvResetNextTaskUnblockTime+0x18>
	{
		/* The new current delayed list is not empty, get the value of
		the item at the head of the delayed list.  This is the time at
		which the task at the head of the delayed list should be removed
		from the Blocked state. */
		( pxTCB ) = ( TCB_t * ) listGET_OWNER_OF_HEAD_ENTRY( pxDelayedTaskList );
  40209c:	4b06      	ldr	r3, [pc, #24]	; (4020b8 <prvResetNextTaskUnblockTime+0x24>)
  40209e:	681b      	ldr	r3, [r3, #0]
  4020a0:	68db      	ldr	r3, [r3, #12]
		xNextTaskUnblockTime = listGET_LIST_ITEM_VALUE( &( ( pxTCB )->xGenericListItem ) );
  4020a2:	68db      	ldr	r3, [r3, #12]
  4020a4:	685a      	ldr	r2, [r3, #4]
  4020a6:	4b05      	ldr	r3, [pc, #20]	; (4020bc <prvResetNextTaskUnblockTime+0x28>)
  4020a8:	601a      	str	r2, [r3, #0]
  4020aa:	4770      	bx	lr
		xNextTaskUnblockTime = portMAX_DELAY;
  4020ac:	f04f 32ff 	mov.w	r2, #4294967295
  4020b0:	4b02      	ldr	r3, [pc, #8]	; (4020bc <prvResetNextTaskUnblockTime+0x28>)
  4020b2:	601a      	str	r2, [r3, #0]
  4020b4:	4770      	bx	lr
  4020b6:	bf00      	nop
  4020b8:	20400c78 	.word	0x20400c78
  4020bc:	20400d24 	.word	0x20400d24

004020c0 <prvAddCurrentTaskToDelayedList>:
{
  4020c0:	b510      	push	{r4, lr}
	listSET_LIST_ITEM_VALUE( &( pxCurrentTCB->xGenericListItem ), xTimeToWake );
  4020c2:	4b0f      	ldr	r3, [pc, #60]	; (402100 <prvAddCurrentTaskToDelayedList+0x40>)
  4020c4:	681b      	ldr	r3, [r3, #0]
  4020c6:	6058      	str	r0, [r3, #4]
	if( xTimeToWake < xTickCount )
  4020c8:	4b0e      	ldr	r3, [pc, #56]	; (402104 <prvAddCurrentTaskToDelayedList+0x44>)
  4020ca:	681b      	ldr	r3, [r3, #0]
  4020cc:	4298      	cmp	r0, r3
  4020ce:	d30e      	bcc.n	4020ee <prvAddCurrentTaskToDelayedList+0x2e>
  4020d0:	4604      	mov	r4, r0
		vListInsert( pxDelayedTaskList, &( pxCurrentTCB->xGenericListItem ) );
  4020d2:	4b0d      	ldr	r3, [pc, #52]	; (402108 <prvAddCurrentTaskToDelayedList+0x48>)
  4020d4:	6818      	ldr	r0, [r3, #0]
  4020d6:	4b0a      	ldr	r3, [pc, #40]	; (402100 <prvAddCurrentTaskToDelayedList+0x40>)
  4020d8:	6819      	ldr	r1, [r3, #0]
  4020da:	3104      	adds	r1, #4
  4020dc:	4b0b      	ldr	r3, [pc, #44]	; (40210c <prvAddCurrentTaskToDelayedList+0x4c>)
  4020de:	4798      	blx	r3
		if( xTimeToWake < xNextTaskUnblockTime )
  4020e0:	4b0b      	ldr	r3, [pc, #44]	; (402110 <prvAddCurrentTaskToDelayedList+0x50>)
  4020e2:	681b      	ldr	r3, [r3, #0]
  4020e4:	429c      	cmp	r4, r3
  4020e6:	d201      	bcs.n	4020ec <prvAddCurrentTaskToDelayedList+0x2c>
			xNextTaskUnblockTime = xTimeToWake;
  4020e8:	4b09      	ldr	r3, [pc, #36]	; (402110 <prvAddCurrentTaskToDelayedList+0x50>)
  4020ea:	601c      	str	r4, [r3, #0]
  4020ec:	bd10      	pop	{r4, pc}
		vListInsert( pxOverflowDelayedTaskList, &( pxCurrentTCB->xGenericListItem ) );
  4020ee:	4b09      	ldr	r3, [pc, #36]	; (402114 <prvAddCurrentTaskToDelayedList+0x54>)
  4020f0:	6818      	ldr	r0, [r3, #0]
  4020f2:	4b03      	ldr	r3, [pc, #12]	; (402100 <prvAddCurrentTaskToDelayedList+0x40>)
  4020f4:	6819      	ldr	r1, [r3, #0]
  4020f6:	3104      	adds	r1, #4
  4020f8:	4b04      	ldr	r3, [pc, #16]	; (40210c <prvAddCurrentTaskToDelayedList+0x4c>)
  4020fa:	4798      	blx	r3
  4020fc:	bd10      	pop	{r4, pc}
  4020fe:	bf00      	nop
  402100:	20400c74 	.word	0x20400c74
  402104:	20400d6c 	.word	0x20400d6c
  402108:	20400c78 	.word	0x20400c78
  40210c:	004013c1 	.word	0x004013c1
  402110:	20400d24 	.word	0x20400d24
  402114:	20400c7c 	.word	0x20400c7c

00402118 <xTaskGenericCreate>:
{
  402118:	e92d 4ff0 	stmdb	sp!, {r4, r5, r6, r7, r8, r9, sl, fp, lr}
  40211c:	b083      	sub	sp, #12
  40211e:	9d0c      	ldr	r5, [sp, #48]	; 0x30
  402120:	f8dd a034 	ldr.w	sl, [sp, #52]	; 0x34
  402124:	9e0e      	ldr	r6, [sp, #56]	; 0x38
	configASSERT( pxTaskCode );
  402126:	b160      	cbz	r0, 402142 <xTaskGenericCreate+0x2a>
	configASSERT( ( ( uxPriority & ( UBaseType_t ) ( ~portPRIVILEGE_BIT ) ) < ( UBaseType_t ) configMAX_PRIORITIES ) );
  402128:	2d04      	cmp	r5, #4
  40212a:	d915      	bls.n	402158 <xTaskGenericCreate+0x40>
  40212c:	f04f 0380 	mov.w	r3, #128	; 0x80
  402130:	b672      	cpsid	i
  402132:	f383 8811 	msr	BASEPRI, r3
  402136:	f3bf 8f6f 	isb	sy
  40213a:	f3bf 8f4f 	dsb	sy
  40213e:	b662      	cpsie	i
  402140:	e7fe      	b.n	402140 <xTaskGenericCreate+0x28>
  402142:	f04f 0380 	mov.w	r3, #128	; 0x80
  402146:	b672      	cpsid	i
  402148:	f383 8811 	msr	BASEPRI, r3
  40214c:	f3bf 8f6f 	isb	sy
  402150:	f3bf 8f4f 	dsb	sy
  402154:	b662      	cpsie	i
  402156:	e7fe      	b.n	402156 <xTaskGenericCreate+0x3e>
  402158:	9001      	str	r0, [sp, #4]
  40215a:	4698      	mov	r8, r3
  40215c:	4691      	mov	r9, r2
  40215e:	460f      	mov	r7, r1
		pxStack = ( StackType_t * ) pvPortMallocAligned( ( ( ( size_t ) usStackDepth ) * sizeof( StackType_t ) ), puxStackBuffer ); /*lint !e961 MISRA exception as the casts are only redundant for some ports. */
  402160:	b936      	cbnz	r6, 402170 <xTaskGenericCreate+0x58>
  402162:	0090      	lsls	r0, r2, #2
  402164:	4b62      	ldr	r3, [pc, #392]	; (4022f0 <xTaskGenericCreate+0x1d8>)
  402166:	4798      	blx	r3
		if( pxStack != NULL )
  402168:	4606      	mov	r6, r0
  40216a:	2800      	cmp	r0, #0
  40216c:	f000 809e 	beq.w	4022ac <xTaskGenericCreate+0x194>
			pxNewTCB = ( TCB_t * ) pvPortMalloc( sizeof( TCB_t ) );
  402170:	2058      	movs	r0, #88	; 0x58
  402172:	4b5f      	ldr	r3, [pc, #380]	; (4022f0 <xTaskGenericCreate+0x1d8>)
  402174:	4798      	blx	r3
			if( pxNewTCB != NULL )
  402176:	4604      	mov	r4, r0
  402178:	2800      	cmp	r0, #0
  40217a:	f000 8094 	beq.w	4022a6 <xTaskGenericCreate+0x18e>
				pxNewTCB->pxStack = pxStack;
  40217e:	6306      	str	r6, [r0, #48]	; 0x30
			( void ) memset( pxNewTCB->pxStack, ( int ) tskSTACK_FILL_BYTE, ( size_t ) usStackDepth * sizeof( StackType_t ) );
  402180:	ea4f 0289 	mov.w	r2, r9, lsl #2
  402184:	21a5      	movs	r1, #165	; 0xa5
  402186:	4630      	mov	r0, r6
  402188:	4b5a      	ldr	r3, [pc, #360]	; (4022f4 <xTaskGenericCreate+0x1dc>)
  40218a:	4798      	blx	r3
			pxTopOfStack = pxNewTCB->pxStack + ( usStackDepth - ( uint16_t ) 1 );
  40218c:	f06f 4640 	mvn.w	r6, #3221225472	; 0xc0000000
  402190:	444e      	add	r6, r9
  402192:	6b23      	ldr	r3, [r4, #48]	; 0x30
  402194:	eb03 0386 	add.w	r3, r3, r6, lsl #2
			pxTopOfStack = ( StackType_t * ) ( ( ( portPOINTER_SIZE_TYPE ) pxTopOfStack ) & ( ~( ( portPOINTER_SIZE_TYPE ) portBYTE_ALIGNMENT_MASK ) ) ); /*lint !e923 MISRA exception.  Avoiding casts between pointers and integers is not practical.  Size differences accounted for using portPOINTER_SIZE_TYPE type. */
  402198:	f023 0607 	bic.w	r6, r3, #7
		pxTCB->pcTaskName[ x ] = pcName[ x ];
  40219c:	783b      	ldrb	r3, [r7, #0]
  40219e:	f884 3034 	strb.w	r3, [r4, #52]	; 0x34
		if( pcName[ x ] == 0x00 )
  4021a2:	783b      	ldrb	r3, [r7, #0]
  4021a4:	2b00      	cmp	r3, #0
  4021a6:	f040 8084 	bne.w	4022b2 <xTaskGenericCreate+0x19a>
	pxTCB->pcTaskName[ configMAX_TASK_NAME_LEN - 1 ] = '\0';
  4021aa:	2700      	movs	r7, #0
  4021ac:	f884 703d 	strb.w	r7, [r4, #61]	; 0x3d
	pxTCB->uxPriority = uxPriority;
  4021b0:	62e5      	str	r5, [r4, #44]	; 0x2c
		pxTCB->uxBasePriority = uxPriority;
  4021b2:	64a5      	str	r5, [r4, #72]	; 0x48
		pxTCB->uxMutexesHeld = 0;
  4021b4:	64e7      	str	r7, [r4, #76]	; 0x4c
	vListInitialiseItem( &( pxTCB->xGenericListItem ) );
  4021b6:	f104 0904 	add.w	r9, r4, #4
  4021ba:	4648      	mov	r0, r9
  4021bc:	f8df b184 	ldr.w	fp, [pc, #388]	; 402344 <xTaskGenericCreate+0x22c>
  4021c0:	47d8      	blx	fp
	vListInitialiseItem( &( pxTCB->xEventListItem ) );
  4021c2:	f104 0018 	add.w	r0, r4, #24
  4021c6:	47d8      	blx	fp
	listSET_LIST_ITEM_OWNER( &( pxTCB->xGenericListItem ), pxTCB );
  4021c8:	6124      	str	r4, [r4, #16]
	listSET_LIST_ITEM_VALUE( &( pxTCB->xEventListItem ), ( TickType_t ) configMAX_PRIORITIES - ( TickType_t ) uxPriority ); /*lint !e961 MISRA exception as the casts are only redundant for some ports. */
  4021ca:	f1c5 0305 	rsb	r3, r5, #5
  4021ce:	61a3      	str	r3, [r4, #24]
	listSET_LIST_ITEM_OWNER( &( pxTCB->xEventListItem ), pxTCB );
  4021d0:	6264      	str	r4, [r4, #36]	; 0x24
		pxTCB->ulNotifiedValue = 0;
  4021d2:	6527      	str	r7, [r4, #80]	; 0x50
		pxTCB->eNotifyState = eNotWaitingNotification;
  4021d4:	f884 7054 	strb.w	r7, [r4, #84]	; 0x54
			pxNewTCB->pxTopOfStack = pxPortInitialiseStack( pxTopOfStack, pxTaskCode, pvParameters );
  4021d8:	4642      	mov	r2, r8
  4021da:	9901      	ldr	r1, [sp, #4]
  4021dc:	4630      	mov	r0, r6
  4021de:	4b46      	ldr	r3, [pc, #280]	; (4022f8 <xTaskGenericCreate+0x1e0>)
  4021e0:	4798      	blx	r3
  4021e2:	6020      	str	r0, [r4, #0]
		if( ( void * ) pxCreatedTask != NULL )
  4021e4:	f1ba 0f00 	cmp.w	sl, #0
  4021e8:	d001      	beq.n	4021ee <xTaskGenericCreate+0xd6>
			*pxCreatedTask = ( TaskHandle_t ) pxNewTCB;
  4021ea:	f8ca 4000 	str.w	r4, [sl]
		taskENTER_CRITICAL();
  4021ee:	4b43      	ldr	r3, [pc, #268]	; (4022fc <xTaskGenericCreate+0x1e4>)
  4021f0:	4798      	blx	r3
			uxCurrentNumberOfTasks++;
  4021f2:	4a43      	ldr	r2, [pc, #268]	; (402300 <xTaskGenericCreate+0x1e8>)
  4021f4:	6813      	ldr	r3, [r2, #0]
  4021f6:	3301      	adds	r3, #1
  4021f8:	6013      	str	r3, [r2, #0]
			if( pxCurrentTCB == NULL )
  4021fa:	4b42      	ldr	r3, [pc, #264]	; (402304 <xTaskGenericCreate+0x1ec>)
  4021fc:	681b      	ldr	r3, [r3, #0]
  4021fe:	2b00      	cmp	r3, #0
  402200:	d166      	bne.n	4022d0 <xTaskGenericCreate+0x1b8>
				pxCurrentTCB =  pxNewTCB;
  402202:	4b40      	ldr	r3, [pc, #256]	; (402304 <xTaskGenericCreate+0x1ec>)
  402204:	601c      	str	r4, [r3, #0]
				if( uxCurrentNumberOfTasks == ( UBaseType_t ) 1 )
  402206:	6813      	ldr	r3, [r2, #0]
  402208:	2b01      	cmp	r3, #1
  40220a:	d121      	bne.n	402250 <xTaskGenericCreate+0x138>
		vListInitialise( &( pxReadyTasksLists[ uxPriority ] ) );
  40220c:	4f3e      	ldr	r7, [pc, #248]	; (402308 <xTaskGenericCreate+0x1f0>)
  40220e:	4638      	mov	r0, r7
  402210:	4e3e      	ldr	r6, [pc, #248]	; (40230c <xTaskGenericCreate+0x1f4>)
  402212:	47b0      	blx	r6
  402214:	f107 0014 	add.w	r0, r7, #20
  402218:	47b0      	blx	r6
  40221a:	f107 0028 	add.w	r0, r7, #40	; 0x28
  40221e:	47b0      	blx	r6
  402220:	f107 003c 	add.w	r0, r7, #60	; 0x3c
  402224:	47b0      	blx	r6
  402226:	f107 0050 	add.w	r0, r7, #80	; 0x50
  40222a:	47b0      	blx	r6
	vListInitialise( &xDelayedTaskList1 );
  40222c:	f8df 8118 	ldr.w	r8, [pc, #280]	; 402348 <xTaskGenericCreate+0x230>
  402230:	4640      	mov	r0, r8
  402232:	47b0      	blx	r6
	vListInitialise( &xDelayedTaskList2 );
  402234:	4f36      	ldr	r7, [pc, #216]	; (402310 <xTaskGenericCreate+0x1f8>)
  402236:	4638      	mov	r0, r7
  402238:	47b0      	blx	r6
	vListInitialise( &xPendingReadyList );
  40223a:	4836      	ldr	r0, [pc, #216]	; (402314 <xTaskGenericCreate+0x1fc>)
  40223c:	47b0      	blx	r6
		vListInitialise( &xTasksWaitingTermination );
  40223e:	4836      	ldr	r0, [pc, #216]	; (402318 <xTaskGenericCreate+0x200>)
  402240:	47b0      	blx	r6
		vListInitialise( &xSuspendedTaskList );
  402242:	4836      	ldr	r0, [pc, #216]	; (40231c <xTaskGenericCreate+0x204>)
  402244:	47b0      	blx	r6
	pxDelayedTaskList = &xDelayedTaskList1;
  402246:	4b36      	ldr	r3, [pc, #216]	; (402320 <xTaskGenericCreate+0x208>)
  402248:	f8c3 8000 	str.w	r8, [r3]
	pxOverflowDelayedTaskList = &xDelayedTaskList2;
  40224c:	4b35      	ldr	r3, [pc, #212]	; (402324 <xTaskGenericCreate+0x20c>)
  40224e:	601f      	str	r7, [r3, #0]
			uxTaskNumber++;
  402250:	4a35      	ldr	r2, [pc, #212]	; (402328 <xTaskGenericCreate+0x210>)
  402252:	6813      	ldr	r3, [r2, #0]
  402254:	3301      	adds	r3, #1
  402256:	6013      	str	r3, [r2, #0]
				pxNewTCB->uxTCBNumber = uxTaskNumber;
  402258:	6423      	str	r3, [r4, #64]	; 0x40
			prvAddTaskToReadyList( pxNewTCB );
  40225a:	6ae0      	ldr	r0, [r4, #44]	; 0x2c
  40225c:	4a33      	ldr	r2, [pc, #204]	; (40232c <xTaskGenericCreate+0x214>)
  40225e:	6811      	ldr	r1, [r2, #0]
  402260:	2301      	movs	r3, #1
  402262:	4083      	lsls	r3, r0
  402264:	430b      	orrs	r3, r1
  402266:	6013      	str	r3, [r2, #0]
  402268:	eb00 0080 	add.w	r0, r0, r0, lsl #2
  40226c:	4649      	mov	r1, r9
  40226e:	4b26      	ldr	r3, [pc, #152]	; (402308 <xTaskGenericCreate+0x1f0>)
  402270:	eb03 0080 	add.w	r0, r3, r0, lsl #2
  402274:	4b2e      	ldr	r3, [pc, #184]	; (402330 <xTaskGenericCreate+0x218>)
  402276:	4798      	blx	r3
		taskEXIT_CRITICAL();
  402278:	4b2e      	ldr	r3, [pc, #184]	; (402334 <xTaskGenericCreate+0x21c>)
  40227a:	4798      	blx	r3
		if( xSchedulerRunning != pdFALSE )
  40227c:	4b2e      	ldr	r3, [pc, #184]	; (402338 <xTaskGenericCreate+0x220>)
  40227e:	681b      	ldr	r3, [r3, #0]
  402280:	2b00      	cmp	r3, #0
  402282:	d031      	beq.n	4022e8 <xTaskGenericCreate+0x1d0>
			if( pxCurrentTCB->uxPriority < uxPriority )
  402284:	4b1f      	ldr	r3, [pc, #124]	; (402304 <xTaskGenericCreate+0x1ec>)
  402286:	681b      	ldr	r3, [r3, #0]
  402288:	6adb      	ldr	r3, [r3, #44]	; 0x2c
  40228a:	429d      	cmp	r5, r3
  40228c:	d92e      	bls.n	4022ec <xTaskGenericCreate+0x1d4>
				taskYIELD_IF_USING_PREEMPTION();
  40228e:	f04f 5280 	mov.w	r2, #268435456	; 0x10000000
  402292:	4b2a      	ldr	r3, [pc, #168]	; (40233c <xTaskGenericCreate+0x224>)
  402294:	601a      	str	r2, [r3, #0]
  402296:	f3bf 8f4f 	dsb	sy
  40229a:	f3bf 8f6f 	isb	sy
			xReturn = pdPASS;
  40229e:	2001      	movs	r0, #1
}
  4022a0:	b003      	add	sp, #12
  4022a2:	e8bd 8ff0 	ldmia.w	sp!, {r4, r5, r6, r7, r8, r9, sl, fp, pc}
				vPortFree( pxStack );
  4022a6:	4630      	mov	r0, r6
  4022a8:	4b25      	ldr	r3, [pc, #148]	; (402340 <xTaskGenericCreate+0x228>)
  4022aa:	4798      	blx	r3
		xReturn = errCOULD_NOT_ALLOCATE_REQUIRED_MEMORY;
  4022ac:	f04f 30ff 	mov.w	r0, #4294967295
  4022b0:	e7f6      	b.n	4022a0 <xTaskGenericCreate+0x188>
  4022b2:	463b      	mov	r3, r7
  4022b4:	f104 0234 	add.w	r2, r4, #52	; 0x34
  4022b8:	3709      	adds	r7, #9
		pxTCB->pcTaskName[ x ] = pcName[ x ];
  4022ba:	7859      	ldrb	r1, [r3, #1]
  4022bc:	f802 1f01 	strb.w	r1, [r2, #1]!
		if( pcName[ x ] == 0x00 )
  4022c0:	f813 1f01 	ldrb.w	r1, [r3, #1]!
  4022c4:	2900      	cmp	r1, #0
  4022c6:	f43f af70 	beq.w	4021aa <xTaskGenericCreate+0x92>
	for( x = ( UBaseType_t ) 0; x < ( UBaseType_t ) configMAX_TASK_NAME_LEN; x++ )
  4022ca:	42bb      	cmp	r3, r7
  4022cc:	d1f5      	bne.n	4022ba <xTaskGenericCreate+0x1a2>
  4022ce:	e76c      	b.n	4021aa <xTaskGenericCreate+0x92>
				if( xSchedulerRunning == pdFALSE )
  4022d0:	4b19      	ldr	r3, [pc, #100]	; (402338 <xTaskGenericCreate+0x220>)
  4022d2:	681b      	ldr	r3, [r3, #0]
  4022d4:	2b00      	cmp	r3, #0
  4022d6:	d1bb      	bne.n	402250 <xTaskGenericCreate+0x138>
					if( pxCurrentTCB->uxPriority <= uxPriority )
  4022d8:	4b0a      	ldr	r3, [pc, #40]	; (402304 <xTaskGenericCreate+0x1ec>)
  4022da:	681b      	ldr	r3, [r3, #0]
  4022dc:	6adb      	ldr	r3, [r3, #44]	; 0x2c
  4022de:	429d      	cmp	r5, r3
  4022e0:	d3b6      	bcc.n	402250 <xTaskGenericCreate+0x138>
						pxCurrentTCB = pxNewTCB;
  4022e2:	4b08      	ldr	r3, [pc, #32]	; (402304 <xTaskGenericCreate+0x1ec>)
  4022e4:	601c      	str	r4, [r3, #0]
  4022e6:	e7b3      	b.n	402250 <xTaskGenericCreate+0x138>
			xReturn = pdPASS;
  4022e8:	2001      	movs	r0, #1
  4022ea:	e7d9      	b.n	4022a0 <xTaskGenericCreate+0x188>
  4022ec:	2001      	movs	r0, #1
	return xReturn;
  4022ee:	e7d7      	b.n	4022a0 <xTaskGenericCreate+0x188>
  4022f0:	00401735 	.word	0x00401735
  4022f4:	00403e49 	.word	0x00403e49
  4022f8:	0040148d 	.word	0x0040148d
  4022fc:	004014d9 	.word	0x004014d9
  402300:	20400ce4 	.word	0x20400ce4
  402304:	20400c74 	.word	0x20400c74
  402308:	20400c80 	.word	0x20400c80
  40230c:	0040138d 	.word	0x0040138d
  402310:	20400d10 	.word	0x20400d10
  402314:	20400d2c 	.word	0x20400d2c
  402318:	20400d58 	.word	0x20400d58
  40231c:	20400d44 	.word	0x20400d44
  402320:	20400c78 	.word	0x20400c78
  402324:	20400c7c 	.word	0x20400c7c
  402328:	20400cf0 	.word	0x20400cf0
  40232c:	20400cf8 	.word	0x20400cf8
  402330:	004013a9 	.word	0x004013a9
  402334:	00401525 	.word	0x00401525
  402338:	20400d40 	.word	0x20400d40
  40233c:	e000ed04 	.word	0xe000ed04
  402340:	00401765 	.word	0x00401765
  402344:	004013a3 	.word	0x004013a3
  402348:	20400cfc 	.word	0x20400cfc

0040234c <vTaskStartScheduler>:
{
  40234c:	b510      	push	{r4, lr}
  40234e:	b084      	sub	sp, #16
		xReturn = xTaskCreate( prvIdleTask, "IDLE", tskIDLE_STACK_SIZE, ( void * ) NULL, ( tskIDLE_PRIORITY | portPRIVILEGE_BIT ), NULL );  /*lint !e961 MISRA exception, justified as it is not a redundant explicit cast to all supported compilers. */
  402350:	2300      	movs	r3, #0
  402352:	9303      	str	r3, [sp, #12]
  402354:	9302      	str	r3, [sp, #8]
  402356:	9301      	str	r3, [sp, #4]
  402358:	9300      	str	r3, [sp, #0]
  40235a:	2282      	movs	r2, #130	; 0x82
  40235c:	4916      	ldr	r1, [pc, #88]	; (4023b8 <vTaskStartScheduler+0x6c>)
  40235e:	4817      	ldr	r0, [pc, #92]	; (4023bc <vTaskStartScheduler+0x70>)
  402360:	4c17      	ldr	r4, [pc, #92]	; (4023c0 <vTaskStartScheduler+0x74>)
  402362:	47a0      	blx	r4
		if( xReturn == pdPASS )
  402364:	2801      	cmp	r0, #1
  402366:	d00b      	beq.n	402380 <vTaskStartScheduler+0x34>
		configASSERT( xReturn );
  402368:	bb20      	cbnz	r0, 4023b4 <vTaskStartScheduler+0x68>
  40236a:	f04f 0380 	mov.w	r3, #128	; 0x80
  40236e:	b672      	cpsid	i
  402370:	f383 8811 	msr	BASEPRI, r3
  402374:	f3bf 8f6f 	isb	sy
  402378:	f3bf 8f4f 	dsb	sy
  40237c:	b662      	cpsie	i
  40237e:	e7fe      	b.n	40237e <vTaskStartScheduler+0x32>
			xReturn = xTimerCreateTimerTask();
  402380:	4b10      	ldr	r3, [pc, #64]	; (4023c4 <vTaskStartScheduler+0x78>)
  402382:	4798      	blx	r3
	if( xReturn == pdPASS )
  402384:	2801      	cmp	r0, #1
  402386:	d1ef      	bne.n	402368 <vTaskStartScheduler+0x1c>
  402388:	f04f 0380 	mov.w	r3, #128	; 0x80
  40238c:	b672      	cpsid	i
  40238e:	f383 8811 	msr	BASEPRI, r3
  402392:	f3bf 8f6f 	isb	sy
  402396:	f3bf 8f4f 	dsb	sy
  40239a:	b662      	cpsie	i
		xNextTaskUnblockTime = portMAX_DELAY;
  40239c:	f04f 32ff 	mov.w	r2, #4294967295
  4023a0:	4b09      	ldr	r3, [pc, #36]	; (4023c8 <vTaskStartScheduler+0x7c>)
  4023a2:	601a      	str	r2, [r3, #0]
		xSchedulerRunning = pdTRUE;
  4023a4:	2201      	movs	r2, #1
  4023a6:	4b09      	ldr	r3, [pc, #36]	; (4023cc <vTaskStartScheduler+0x80>)
  4023a8:	601a      	str	r2, [r3, #0]
		xTickCount = ( TickType_t ) 0U;
  4023aa:	2200      	movs	r2, #0
  4023ac:	4b08      	ldr	r3, [pc, #32]	; (4023d0 <vTaskStartScheduler+0x84>)
  4023ae:	601a      	str	r2, [r3, #0]
		if( xPortStartScheduler() != pdFALSE )
  4023b0:	4b08      	ldr	r3, [pc, #32]	; (4023d4 <vTaskStartScheduler+0x88>)
  4023b2:	4798      	blx	r3
}
  4023b4:	b004      	add	sp, #16
  4023b6:	bd10      	pop	{r4, pc}
  4023b8:	00409e1c 	.word	0x00409e1c
  4023bc:	00402661 	.word	0x00402661
  4023c0:	00402119 	.word	0x00402119
  4023c4:	00402ca1 	.word	0x00402ca1
  4023c8:	20400d24 	.word	0x20400d24
  4023cc:	20400d40 	.word	0x20400d40
  4023d0:	20400d6c 	.word	0x20400d6c
  4023d4:	0040160d 	.word	0x0040160d

004023d8 <vTaskSuspendAll>:
	++uxSchedulerSuspended;
  4023d8:	4a02      	ldr	r2, [pc, #8]	; (4023e4 <vTaskSuspendAll+0xc>)
  4023da:	6813      	ldr	r3, [r2, #0]
  4023dc:	3301      	adds	r3, #1
  4023de:	6013      	str	r3, [r2, #0]
  4023e0:	4770      	bx	lr
  4023e2:	bf00      	nop
  4023e4:	20400cec 	.word	0x20400cec

004023e8 <xTaskGetTickCount>:
		xTicks = xTickCount;
  4023e8:	4b01      	ldr	r3, [pc, #4]	; (4023f0 <xTaskGetTickCount+0x8>)
  4023ea:	6818      	ldr	r0, [r3, #0]
}
  4023ec:	4770      	bx	lr
  4023ee:	bf00      	nop
  4023f0:	20400d6c 	.word	0x20400d6c

004023f4 <xTaskIncrementTick>:
{
  4023f4:	e92d 47f0 	stmdb	sp!, {r4, r5, r6, r7, r8, r9, sl, lr}
	if( uxSchedulerSuspended == ( UBaseType_t ) pdFALSE )
  4023f8:	4b42      	ldr	r3, [pc, #264]	; (402504 <xTaskIncrementTick+0x110>)
  4023fa:	681b      	ldr	r3, [r3, #0]
  4023fc:	2b00      	cmp	r3, #0
  4023fe:	d178      	bne.n	4024f2 <xTaskIncrementTick+0xfe>
		++xTickCount;
  402400:	4b41      	ldr	r3, [pc, #260]	; (402508 <xTaskIncrementTick+0x114>)
  402402:	681a      	ldr	r2, [r3, #0]
  402404:	3201      	adds	r2, #1
  402406:	601a      	str	r2, [r3, #0]
			const TickType_t xConstTickCount = xTickCount;
  402408:	681e      	ldr	r6, [r3, #0]
			if( xConstTickCount == ( TickType_t ) 0U )
  40240a:	b9d6      	cbnz	r6, 402442 <xTaskIncrementTick+0x4e>
				taskSWITCH_DELAYED_LISTS();
  40240c:	4b3f      	ldr	r3, [pc, #252]	; (40250c <xTaskIncrementTick+0x118>)
  40240e:	681b      	ldr	r3, [r3, #0]
  402410:	681b      	ldr	r3, [r3, #0]
  402412:	b153      	cbz	r3, 40242a <xTaskIncrementTick+0x36>
  402414:	f04f 0380 	mov.w	r3, #128	; 0x80
  402418:	b672      	cpsid	i
  40241a:	f383 8811 	msr	BASEPRI, r3
  40241e:	f3bf 8f6f 	isb	sy
  402422:	f3bf 8f4f 	dsb	sy
  402426:	b662      	cpsie	i
  402428:	e7fe      	b.n	402428 <xTaskIncrementTick+0x34>
  40242a:	4a38      	ldr	r2, [pc, #224]	; (40250c <xTaskIncrementTick+0x118>)
  40242c:	6811      	ldr	r1, [r2, #0]
  40242e:	4b38      	ldr	r3, [pc, #224]	; (402510 <xTaskIncrementTick+0x11c>)
  402430:	6818      	ldr	r0, [r3, #0]
  402432:	6010      	str	r0, [r2, #0]
  402434:	6019      	str	r1, [r3, #0]
  402436:	4a37      	ldr	r2, [pc, #220]	; (402514 <xTaskIncrementTick+0x120>)
  402438:	6813      	ldr	r3, [r2, #0]
  40243a:	3301      	adds	r3, #1
  40243c:	6013      	str	r3, [r2, #0]
  40243e:	4b36      	ldr	r3, [pc, #216]	; (402518 <xTaskIncrementTick+0x124>)
  402440:	4798      	blx	r3
			if( xConstTickCount >= xNextTaskUnblockTime )
  402442:	4b36      	ldr	r3, [pc, #216]	; (40251c <xTaskIncrementTick+0x128>)
  402444:	681b      	ldr	r3, [r3, #0]
  402446:	429e      	cmp	r6, r3
  402448:	d218      	bcs.n	40247c <xTaskIncrementTick+0x88>
BaseType_t xSwitchRequired = pdFALSE;
  40244a:	2400      	movs	r4, #0
			if( listCURRENT_LIST_LENGTH( &( pxReadyTasksLists[ pxCurrentTCB->uxPriority ] ) ) > ( UBaseType_t ) 1 )
  40244c:	4b34      	ldr	r3, [pc, #208]	; (402520 <xTaskIncrementTick+0x12c>)
  40244e:	681b      	ldr	r3, [r3, #0]
  402450:	6adb      	ldr	r3, [r3, #44]	; 0x2c
  402452:	eb03 0383 	add.w	r3, r3, r3, lsl #2
  402456:	4a33      	ldr	r2, [pc, #204]	; (402524 <xTaskIncrementTick+0x130>)
  402458:	f852 3023 	ldr.w	r3, [r2, r3, lsl #2]
				xSwitchRequired = pdTRUE;
  40245c:	2b02      	cmp	r3, #2
  40245e:	bf28      	it	cs
  402460:	2401      	movcs	r4, #1
			if( uxPendedTicks == ( UBaseType_t ) 0U )
  402462:	4b31      	ldr	r3, [pc, #196]	; (402528 <xTaskIncrementTick+0x134>)
  402464:	681b      	ldr	r3, [r3, #0]
  402466:	b90b      	cbnz	r3, 40246c <xTaskIncrementTick+0x78>
				vApplicationTickHook();
  402468:	4b30      	ldr	r3, [pc, #192]	; (40252c <xTaskIncrementTick+0x138>)
  40246a:	4798      	blx	r3
		if( xYieldPending != pdFALSE )
  40246c:	4b30      	ldr	r3, [pc, #192]	; (402530 <xTaskIncrementTick+0x13c>)
  40246e:	681b      	ldr	r3, [r3, #0]
			xSwitchRequired = pdTRUE;
  402470:	2b00      	cmp	r3, #0
}
  402472:	bf0c      	ite	eq
  402474:	4620      	moveq	r0, r4
  402476:	2001      	movne	r0, #1
  402478:	e8bd 87f0 	ldmia.w	sp!, {r4, r5, r6, r7, r8, r9, sl, pc}
  40247c:	2400      	movs	r4, #0
					if( listLIST_IS_EMPTY( pxDelayedTaskList ) != pdFALSE )
  40247e:	f8df 908c 	ldr.w	r9, [pc, #140]	; 40250c <xTaskIncrementTick+0x118>
						( void ) uxListRemove( &( pxTCB->xGenericListItem ) );
  402482:	f8df 80b8 	ldr.w	r8, [pc, #184]	; 40253c <xTaskIncrementTick+0x148>
						prvAddTaskToReadyList( pxTCB );
  402486:	4f2b      	ldr	r7, [pc, #172]	; (402534 <xTaskIncrementTick+0x140>)
  402488:	e01f      	b.n	4024ca <xTaskIncrementTick+0xd6>
						xNextTaskUnblockTime = portMAX_DELAY;
  40248a:	f04f 32ff 	mov.w	r2, #4294967295
  40248e:	4b23      	ldr	r3, [pc, #140]	; (40251c <xTaskIncrementTick+0x128>)
  402490:	601a      	str	r2, [r3, #0]
						break;
  402492:	e7db      	b.n	40244c <xTaskIncrementTick+0x58>
							xNextTaskUnblockTime = xItemValue;
  402494:	4a21      	ldr	r2, [pc, #132]	; (40251c <xTaskIncrementTick+0x128>)
  402496:	6013      	str	r3, [r2, #0]
							break;
  402498:	e7d8      	b.n	40244c <xTaskIncrementTick+0x58>
							( void ) uxListRemove( &( pxTCB->xEventListItem ) );
  40249a:	f105 0018 	add.w	r0, r5, #24
  40249e:	47c0      	blx	r8
						prvAddTaskToReadyList( pxTCB );
  4024a0:	6ae8      	ldr	r0, [r5, #44]	; 0x2c
  4024a2:	683a      	ldr	r2, [r7, #0]
  4024a4:	2301      	movs	r3, #1
  4024a6:	4083      	lsls	r3, r0
  4024a8:	4313      	orrs	r3, r2
  4024aa:	603b      	str	r3, [r7, #0]
  4024ac:	eb00 0080 	add.w	r0, r0, r0, lsl #2
  4024b0:	4651      	mov	r1, sl
  4024b2:	4b1c      	ldr	r3, [pc, #112]	; (402524 <xTaskIncrementTick+0x130>)
  4024b4:	eb03 0080 	add.w	r0, r3, r0, lsl #2
  4024b8:	4b1f      	ldr	r3, [pc, #124]	; (402538 <xTaskIncrementTick+0x144>)
  4024ba:	4798      	blx	r3
							if( pxTCB->uxPriority >= pxCurrentTCB->uxPriority )
  4024bc:	4b18      	ldr	r3, [pc, #96]	; (402520 <xTaskIncrementTick+0x12c>)
  4024be:	681b      	ldr	r3, [r3, #0]
  4024c0:	6aea      	ldr	r2, [r5, #44]	; 0x2c
  4024c2:	6adb      	ldr	r3, [r3, #44]	; 0x2c
								xSwitchRequired = pdTRUE;
  4024c4:	429a      	cmp	r2, r3
  4024c6:	bf28      	it	cs
  4024c8:	2401      	movcs	r4, #1
					if( listLIST_IS_EMPTY( pxDelayedTaskList ) != pdFALSE )
  4024ca:	f8d9 3000 	ldr.w	r3, [r9]
  4024ce:	681b      	ldr	r3, [r3, #0]
  4024d0:	2b00      	cmp	r3, #0
  4024d2:	d0da      	beq.n	40248a <xTaskIncrementTick+0x96>
						pxTCB = ( TCB_t * ) listGET_OWNER_OF_HEAD_ENTRY( pxDelayedTaskList );
  4024d4:	f8d9 3000 	ldr.w	r3, [r9]
  4024d8:	68db      	ldr	r3, [r3, #12]
  4024da:	68dd      	ldr	r5, [r3, #12]
						xItemValue = listGET_LIST_ITEM_VALUE( &( pxTCB->xGenericListItem ) );
  4024dc:	686b      	ldr	r3, [r5, #4]
						if( xConstTickCount < xItemValue )
  4024de:	429e      	cmp	r6, r3
  4024e0:	d3d8      	bcc.n	402494 <xTaskIncrementTick+0xa0>
						( void ) uxListRemove( &( pxTCB->xGenericListItem ) );
  4024e2:	f105 0a04 	add.w	sl, r5, #4
  4024e6:	4650      	mov	r0, sl
  4024e8:	47c0      	blx	r8
						if( listLIST_ITEM_CONTAINER( &( pxTCB->xEventListItem ) ) != NULL )
  4024ea:	6aab      	ldr	r3, [r5, #40]	; 0x28
  4024ec:	2b00      	cmp	r3, #0
  4024ee:	d1d4      	bne.n	40249a <xTaskIncrementTick+0xa6>
  4024f0:	e7d6      	b.n	4024a0 <xTaskIncrementTick+0xac>
		++uxPendedTicks;
  4024f2:	4a0d      	ldr	r2, [pc, #52]	; (402528 <xTaskIncrementTick+0x134>)
  4024f4:	6813      	ldr	r3, [r2, #0]
  4024f6:	3301      	adds	r3, #1
  4024f8:	6013      	str	r3, [r2, #0]
			vApplicationTickHook();
  4024fa:	4b0c      	ldr	r3, [pc, #48]	; (40252c <xTaskIncrementTick+0x138>)
  4024fc:	4798      	blx	r3
BaseType_t xSwitchRequired = pdFALSE;
  4024fe:	2400      	movs	r4, #0
  402500:	e7b4      	b.n	40246c <xTaskIncrementTick+0x78>
  402502:	bf00      	nop
  402504:	20400cec 	.word	0x20400cec
  402508:	20400d6c 	.word	0x20400d6c
  40250c:	20400c78 	.word	0x20400c78
  402510:	20400c7c 	.word	0x20400c7c
  402514:	20400d28 	.word	0x20400d28
  402518:	00402095 	.word	0x00402095
  40251c:	20400d24 	.word	0x20400d24
  402520:	20400c74 	.word	0x20400c74
  402524:	20400c80 	.word	0x20400c80
  402528:	20400ce8 	.word	0x20400ce8
  40252c:	00403405 	.word	0x00403405
  402530:	20400d70 	.word	0x20400d70
  402534:	20400cf8 	.word	0x20400cf8
  402538:	004013a9 	.word	0x004013a9
  40253c:	004013f5 	.word	0x004013f5

00402540 <xTaskResumeAll>:
{
  402540:	e92d 43f8 	stmdb	sp!, {r3, r4, r5, r6, r7, r8, r9, lr}
	configASSERT( uxSchedulerSuspended );
  402544:	4b38      	ldr	r3, [pc, #224]	; (402628 <xTaskResumeAll+0xe8>)
  402546:	681b      	ldr	r3, [r3, #0]
  402548:	b953      	cbnz	r3, 402560 <xTaskResumeAll+0x20>
  40254a:	f04f 0380 	mov.w	r3, #128	; 0x80
  40254e:	b672      	cpsid	i
  402550:	f383 8811 	msr	BASEPRI, r3
  402554:	f3bf 8f6f 	isb	sy
  402558:	f3bf 8f4f 	dsb	sy
  40255c:	b662      	cpsie	i
  40255e:	e7fe      	b.n	40255e <xTaskResumeAll+0x1e>
	taskENTER_CRITICAL();
  402560:	4b32      	ldr	r3, [pc, #200]	; (40262c <xTaskResumeAll+0xec>)
  402562:	4798      	blx	r3
		--uxSchedulerSuspended;
  402564:	4b30      	ldr	r3, [pc, #192]	; (402628 <xTaskResumeAll+0xe8>)
  402566:	681a      	ldr	r2, [r3, #0]
  402568:	3a01      	subs	r2, #1
  40256a:	601a      	str	r2, [r3, #0]
		if( uxSchedulerSuspended == ( UBaseType_t ) pdFALSE )
  40256c:	681b      	ldr	r3, [r3, #0]
  40256e:	2b00      	cmp	r3, #0
  402570:	d155      	bne.n	40261e <xTaskResumeAll+0xde>
			if( uxCurrentNumberOfTasks > ( UBaseType_t ) 0U )
  402572:	4b2f      	ldr	r3, [pc, #188]	; (402630 <xTaskResumeAll+0xf0>)
  402574:	681b      	ldr	r3, [r3, #0]
  402576:	2b00      	cmp	r3, #0
  402578:	d132      	bne.n	4025e0 <xTaskResumeAll+0xa0>
BaseType_t xAlreadyYielded = pdFALSE;
  40257a:	2400      	movs	r4, #0
	taskEXIT_CRITICAL();
  40257c:	4b2d      	ldr	r3, [pc, #180]	; (402634 <xTaskResumeAll+0xf4>)
  40257e:	4798      	blx	r3
}
  402580:	4620      	mov	r0, r4
  402582:	e8bd 83f8 	ldmia.w	sp!, {r3, r4, r5, r6, r7, r8, r9, pc}
					pxTCB = ( TCB_t * ) listGET_OWNER_OF_HEAD_ENTRY( ( &xPendingReadyList ) );
  402586:	68fb      	ldr	r3, [r7, #12]
  402588:	68dc      	ldr	r4, [r3, #12]
					( void ) uxListRemove( &( pxTCB->xEventListItem ) );
  40258a:	f104 0018 	add.w	r0, r4, #24
  40258e:	47b0      	blx	r6
					( void ) uxListRemove( &( pxTCB->xGenericListItem ) );
  402590:	f104 0804 	add.w	r8, r4, #4
  402594:	4640      	mov	r0, r8
  402596:	47b0      	blx	r6
					prvAddTaskToReadyList( pxTCB );
  402598:	6ae0      	ldr	r0, [r4, #44]	; 0x2c
  40259a:	682a      	ldr	r2, [r5, #0]
  40259c:	2301      	movs	r3, #1
  40259e:	4083      	lsls	r3, r0
  4025a0:	4313      	orrs	r3, r2
  4025a2:	602b      	str	r3, [r5, #0]
  4025a4:	eb00 0080 	add.w	r0, r0, r0, lsl #2
  4025a8:	4641      	mov	r1, r8
  4025aa:	eb09 0080 	add.w	r0, r9, r0, lsl #2
  4025ae:	4b22      	ldr	r3, [pc, #136]	; (402638 <xTaskResumeAll+0xf8>)
  4025b0:	4798      	blx	r3
					if( pxTCB->uxPriority >= pxCurrentTCB->uxPriority )
  4025b2:	4b22      	ldr	r3, [pc, #136]	; (40263c <xTaskResumeAll+0xfc>)
  4025b4:	681b      	ldr	r3, [r3, #0]
  4025b6:	6ae2      	ldr	r2, [r4, #44]	; 0x2c
  4025b8:	6adb      	ldr	r3, [r3, #44]	; 0x2c
  4025ba:	429a      	cmp	r2, r3
  4025bc:	d20c      	bcs.n	4025d8 <xTaskResumeAll+0x98>
				while( listLIST_IS_EMPTY( &xPendingReadyList ) == pdFALSE )
  4025be:	683b      	ldr	r3, [r7, #0]
  4025c0:	2b00      	cmp	r3, #0
  4025c2:	d1e0      	bne.n	402586 <xTaskResumeAll+0x46>
				if( uxPendedTicks > ( UBaseType_t ) 0U )
  4025c4:	4b1e      	ldr	r3, [pc, #120]	; (402640 <xTaskResumeAll+0x100>)
  4025c6:	681b      	ldr	r3, [r3, #0]
  4025c8:	b1db      	cbz	r3, 402602 <xTaskResumeAll+0xc2>
					while( uxPendedTicks > ( UBaseType_t ) 0U )
  4025ca:	4b1d      	ldr	r3, [pc, #116]	; (402640 <xTaskResumeAll+0x100>)
  4025cc:	681b      	ldr	r3, [r3, #0]
  4025ce:	b1c3      	cbz	r3, 402602 <xTaskResumeAll+0xc2>
						if( xTaskIncrementTick() != pdFALSE )
  4025d0:	4e1c      	ldr	r6, [pc, #112]	; (402644 <xTaskResumeAll+0x104>)
							xYieldPending = pdTRUE;
  4025d2:	4d1d      	ldr	r5, [pc, #116]	; (402648 <xTaskResumeAll+0x108>)
						--uxPendedTicks;
  4025d4:	4c1a      	ldr	r4, [pc, #104]	; (402640 <xTaskResumeAll+0x100>)
  4025d6:	e00e      	b.n	4025f6 <xTaskResumeAll+0xb6>
						xYieldPending = pdTRUE;
  4025d8:	2201      	movs	r2, #1
  4025da:	4b1b      	ldr	r3, [pc, #108]	; (402648 <xTaskResumeAll+0x108>)
  4025dc:	601a      	str	r2, [r3, #0]
  4025de:	e7ee      	b.n	4025be <xTaskResumeAll+0x7e>
				while( listLIST_IS_EMPTY( &xPendingReadyList ) == pdFALSE )
  4025e0:	4f1a      	ldr	r7, [pc, #104]	; (40264c <xTaskResumeAll+0x10c>)
					( void ) uxListRemove( &( pxTCB->xEventListItem ) );
  4025e2:	4e1b      	ldr	r6, [pc, #108]	; (402650 <xTaskResumeAll+0x110>)
					prvAddTaskToReadyList( pxTCB );
  4025e4:	4d1b      	ldr	r5, [pc, #108]	; (402654 <xTaskResumeAll+0x114>)
  4025e6:	f8df 9074 	ldr.w	r9, [pc, #116]	; 40265c <xTaskResumeAll+0x11c>
  4025ea:	e7e8      	b.n	4025be <xTaskResumeAll+0x7e>
						--uxPendedTicks;
  4025ec:	6823      	ldr	r3, [r4, #0]
  4025ee:	3b01      	subs	r3, #1
  4025f0:	6023      	str	r3, [r4, #0]
					while( uxPendedTicks > ( UBaseType_t ) 0U )
  4025f2:	6823      	ldr	r3, [r4, #0]
  4025f4:	b12b      	cbz	r3, 402602 <xTaskResumeAll+0xc2>
						if( xTaskIncrementTick() != pdFALSE )
  4025f6:	47b0      	blx	r6
  4025f8:	2800      	cmp	r0, #0
  4025fa:	d0f7      	beq.n	4025ec <xTaskResumeAll+0xac>
							xYieldPending = pdTRUE;
  4025fc:	2301      	movs	r3, #1
  4025fe:	602b      	str	r3, [r5, #0]
  402600:	e7f4      	b.n	4025ec <xTaskResumeAll+0xac>
				if( xYieldPending == pdTRUE )
  402602:	4b11      	ldr	r3, [pc, #68]	; (402648 <xTaskResumeAll+0x108>)
  402604:	681b      	ldr	r3, [r3, #0]
  402606:	2b01      	cmp	r3, #1
  402608:	d10b      	bne.n	402622 <xTaskResumeAll+0xe2>
					taskYIELD_IF_USING_PREEMPTION();
  40260a:	f04f 5280 	mov.w	r2, #268435456	; 0x10000000
  40260e:	4b12      	ldr	r3, [pc, #72]	; (402658 <xTaskResumeAll+0x118>)
  402610:	601a      	str	r2, [r3, #0]
  402612:	f3bf 8f4f 	dsb	sy
  402616:	f3bf 8f6f 	isb	sy
						xAlreadyYielded = pdTRUE;
  40261a:	2401      	movs	r4, #1
  40261c:	e7ae      	b.n	40257c <xTaskResumeAll+0x3c>
BaseType_t xAlreadyYielded = pdFALSE;
  40261e:	2400      	movs	r4, #0
  402620:	e7ac      	b.n	40257c <xTaskResumeAll+0x3c>
  402622:	2400      	movs	r4, #0
  402624:	e7aa      	b.n	40257c <xTaskResumeAll+0x3c>
  402626:	bf00      	nop
  402628:	20400cec 	.word	0x20400cec
  40262c:	004014d9 	.word	0x004014d9
  402630:	20400ce4 	.word	0x20400ce4
  402634:	00401525 	.word	0x00401525
  402638:	004013a9 	.word	0x004013a9
  40263c:	20400c74 	.word	0x20400c74
  402640:	20400ce8 	.word	0x20400ce8
  402644:	004023f5 	.word	0x004023f5
  402648:	20400d70 	.word	0x20400d70
  40264c:	20400d2c 	.word	0x20400d2c
  402650:	004013f5 	.word	0x004013f5
  402654:	20400cf8 	.word	0x20400cf8
  402658:	e000ed04 	.word	0xe000ed04
  40265c:	20400c80 	.word	0x20400c80

00402660 <prvIdleTask>:
{
  402660:	b580      	push	{r7, lr}
			vTaskSuspendAll();
  402662:	f8df 8088 	ldr.w	r8, [pc, #136]	; 4026ec <prvIdleTask+0x8c>
				xListIsEmpty = listLIST_IS_EMPTY( &xTasksWaitingTermination );
  402666:	4e19      	ldr	r6, [pc, #100]	; (4026cc <prvIdleTask+0x6c>)
				taskYIELD();
  402668:	f8df 9084 	ldr.w	r9, [pc, #132]	; 4026f0 <prvIdleTask+0x90>
  40266c:	e02a      	b.n	4026c4 <prvIdleTask+0x64>
			if( listCURRENT_LIST_LENGTH( &( pxReadyTasksLists[ tskIDLE_PRIORITY ] ) ) > ( UBaseType_t ) 1 )
  40266e:	4b18      	ldr	r3, [pc, #96]	; (4026d0 <prvIdleTask+0x70>)
  402670:	681b      	ldr	r3, [r3, #0]
  402672:	2b01      	cmp	r3, #1
  402674:	d81e      	bhi.n	4026b4 <prvIdleTask+0x54>
		while( uxTasksDeleted > ( UBaseType_t ) 0U )
  402676:	682b      	ldr	r3, [r5, #0]
  402678:	2b00      	cmp	r3, #0
  40267a:	d0f8      	beq.n	40266e <prvIdleTask+0xe>
			vTaskSuspendAll();
  40267c:	47c0      	blx	r8
				xListIsEmpty = listLIST_IS_EMPTY( &xTasksWaitingTermination );
  40267e:	6834      	ldr	r4, [r6, #0]
			( void ) xTaskResumeAll();
  402680:	47b8      	blx	r7
			if( xListIsEmpty == pdFALSE )
  402682:	2c00      	cmp	r4, #0
  402684:	d0f7      	beq.n	402676 <prvIdleTask+0x16>
				taskENTER_CRITICAL();
  402686:	4b13      	ldr	r3, [pc, #76]	; (4026d4 <prvIdleTask+0x74>)
  402688:	4798      	blx	r3
					pxTCB = ( TCB_t * ) listGET_OWNER_OF_HEAD_ENTRY( ( &xTasksWaitingTermination ) );
  40268a:	68f3      	ldr	r3, [r6, #12]
  40268c:	68dc      	ldr	r4, [r3, #12]
					( void ) uxListRemove( &( pxTCB->xGenericListItem ) );
  40268e:	1d20      	adds	r0, r4, #4
  402690:	4b11      	ldr	r3, [pc, #68]	; (4026d8 <prvIdleTask+0x78>)
  402692:	4798      	blx	r3
					--uxCurrentNumberOfTasks;
  402694:	4a11      	ldr	r2, [pc, #68]	; (4026dc <prvIdleTask+0x7c>)
  402696:	6813      	ldr	r3, [r2, #0]
  402698:	3b01      	subs	r3, #1
  40269a:	6013      	str	r3, [r2, #0]
					--uxTasksDeleted;
  40269c:	682b      	ldr	r3, [r5, #0]
  40269e:	3b01      	subs	r3, #1
  4026a0:	602b      	str	r3, [r5, #0]
				taskEXIT_CRITICAL();
  4026a2:	4b0f      	ldr	r3, [pc, #60]	; (4026e0 <prvIdleTask+0x80>)
  4026a4:	4798      	blx	r3
			vPortFreeAligned( pxTCB->pxStack );
  4026a6:	6b20      	ldr	r0, [r4, #48]	; 0x30
  4026a8:	f8df a048 	ldr.w	sl, [pc, #72]	; 4026f4 <prvIdleTask+0x94>
  4026ac:	47d0      	blx	sl
		vPortFree( pxTCB );
  4026ae:	4620      	mov	r0, r4
  4026b0:	47d0      	blx	sl
  4026b2:	e7e0      	b.n	402676 <prvIdleTask+0x16>
				taskYIELD();
  4026b4:	f04f 5380 	mov.w	r3, #268435456	; 0x10000000
  4026b8:	f8c9 3000 	str.w	r3, [r9]
  4026bc:	f3bf 8f4f 	dsb	sy
  4026c0:	f3bf 8f6f 	isb	sy
		while( uxTasksDeleted > ( UBaseType_t ) 0U )
  4026c4:	4d07      	ldr	r5, [pc, #28]	; (4026e4 <prvIdleTask+0x84>)
			( void ) xTaskResumeAll();
  4026c6:	4f08      	ldr	r7, [pc, #32]	; (4026e8 <prvIdleTask+0x88>)
  4026c8:	e7d5      	b.n	402676 <prvIdleTask+0x16>
  4026ca:	bf00      	nop
  4026cc:	20400d58 	.word	0x20400d58
  4026d0:	20400c80 	.word	0x20400c80
  4026d4:	004014d9 	.word	0x004014d9
  4026d8:	004013f5 	.word	0x004013f5
  4026dc:	20400ce4 	.word	0x20400ce4
  4026e0:	00401525 	.word	0x00401525
  4026e4:	20400cf4 	.word	0x20400cf4
  4026e8:	00402541 	.word	0x00402541
  4026ec:	004023d9 	.word	0x004023d9
  4026f0:	e000ed04 	.word	0xe000ed04
  4026f4:	00401765 	.word	0x00401765

004026f8 <vTaskSwitchContext>:
	if( uxSchedulerSuspended != ( UBaseType_t ) pdFALSE )
  4026f8:	4b2d      	ldr	r3, [pc, #180]	; (4027b0 <vTaskSwitchContext+0xb8>)
  4026fa:	681b      	ldr	r3, [r3, #0]
  4026fc:	2b00      	cmp	r3, #0
  4026fe:	d12c      	bne.n	40275a <vTaskSwitchContext+0x62>
{
  402700:	b510      	push	{r4, lr}
		xYieldPending = pdFALSE;
  402702:	2200      	movs	r2, #0
  402704:	4b2b      	ldr	r3, [pc, #172]	; (4027b4 <vTaskSwitchContext+0xbc>)
  402706:	601a      	str	r2, [r3, #0]
		taskCHECK_FOR_STACK_OVERFLOW();
  402708:	4b2b      	ldr	r3, [pc, #172]	; (4027b8 <vTaskSwitchContext+0xc0>)
  40270a:	681b      	ldr	r3, [r3, #0]
  40270c:	6b1b      	ldr	r3, [r3, #48]	; 0x30
  40270e:	681a      	ldr	r2, [r3, #0]
  402710:	f1b2 3fa5 	cmp.w	r2, #2779096485	; 0xa5a5a5a5
  402714:	d103      	bne.n	40271e <vTaskSwitchContext+0x26>
  402716:	685a      	ldr	r2, [r3, #4]
  402718:	f1b2 3fa5 	cmp.w	r2, #2779096485	; 0xa5a5a5a5
  40271c:	d021      	beq.n	402762 <vTaskSwitchContext+0x6a>
  40271e:	4b26      	ldr	r3, [pc, #152]	; (4027b8 <vTaskSwitchContext+0xc0>)
  402720:	6818      	ldr	r0, [r3, #0]
  402722:	6819      	ldr	r1, [r3, #0]
  402724:	3134      	adds	r1, #52	; 0x34
  402726:	4b25      	ldr	r3, [pc, #148]	; (4027bc <vTaskSwitchContext+0xc4>)
  402728:	4798      	blx	r3
		taskSELECT_HIGHEST_PRIORITY_TASK();
  40272a:	4b25      	ldr	r3, [pc, #148]	; (4027c0 <vTaskSwitchContext+0xc8>)
  40272c:	681b      	ldr	r3, [r3, #0]
		__asm volatile ( "clz %0, %1" : "=r" ( ucReturn ) : "r" ( ulBitmap ) );
  40272e:	fab3 f383 	clz	r3, r3
  402732:	b2db      	uxtb	r3, r3
  402734:	f1c3 031f 	rsb	r3, r3, #31
  402738:	eb03 0183 	add.w	r1, r3, r3, lsl #2
  40273c:	4a21      	ldr	r2, [pc, #132]	; (4027c4 <vTaskSwitchContext+0xcc>)
  40273e:	f852 2021 	ldr.w	r2, [r2, r1, lsl #2]
  402742:	b9ba      	cbnz	r2, 402774 <vTaskSwitchContext+0x7c>
	__asm volatile
  402744:	f04f 0380 	mov.w	r3, #128	; 0x80
  402748:	b672      	cpsid	i
  40274a:	f383 8811 	msr	BASEPRI, r3
  40274e:	f3bf 8f6f 	isb	sy
  402752:	f3bf 8f4f 	dsb	sy
  402756:	b662      	cpsie	i
  402758:	e7fe      	b.n	402758 <vTaskSwitchContext+0x60>
		xYieldPending = pdTRUE;
  40275a:	2201      	movs	r2, #1
  40275c:	4b15      	ldr	r3, [pc, #84]	; (4027b4 <vTaskSwitchContext+0xbc>)
  40275e:	601a      	str	r2, [r3, #0]
  402760:	4770      	bx	lr
		taskCHECK_FOR_STACK_OVERFLOW();
  402762:	689a      	ldr	r2, [r3, #8]
  402764:	f1b2 3fa5 	cmp.w	r2, #2779096485	; 0xa5a5a5a5
  402768:	d1d9      	bne.n	40271e <vTaskSwitchContext+0x26>
  40276a:	68db      	ldr	r3, [r3, #12]
  40276c:	f1b3 3fa5 	cmp.w	r3, #2779096485	; 0xa5a5a5a5
  402770:	d1d5      	bne.n	40271e <vTaskSwitchContext+0x26>
  402772:	e7da      	b.n	40272a <vTaskSwitchContext+0x32>
		taskSELECT_HIGHEST_PRIORITY_TASK();
  402774:	4a13      	ldr	r2, [pc, #76]	; (4027c4 <vTaskSwitchContext+0xcc>)
  402776:	0099      	lsls	r1, r3, #2
  402778:	18c8      	adds	r0, r1, r3
  40277a:	eb02 0080 	add.w	r0, r2, r0, lsl #2
  40277e:	6844      	ldr	r4, [r0, #4]
  402780:	6864      	ldr	r4, [r4, #4]
  402782:	6044      	str	r4, [r0, #4]
  402784:	4419      	add	r1, r3
  402786:	4602      	mov	r2, r0
  402788:	3208      	adds	r2, #8
  40278a:	4294      	cmp	r4, r2
  40278c:	d009      	beq.n	4027a2 <vTaskSwitchContext+0xaa>
  40278e:	eb03 0383 	add.w	r3, r3, r3, lsl #2
  402792:	4a0c      	ldr	r2, [pc, #48]	; (4027c4 <vTaskSwitchContext+0xcc>)
  402794:	eb02 0383 	add.w	r3, r2, r3, lsl #2
  402798:	685b      	ldr	r3, [r3, #4]
  40279a:	68da      	ldr	r2, [r3, #12]
  40279c:	4b06      	ldr	r3, [pc, #24]	; (4027b8 <vTaskSwitchContext+0xc0>)
  40279e:	601a      	str	r2, [r3, #0]
  4027a0:	bd10      	pop	{r4, pc}
  4027a2:	6860      	ldr	r0, [r4, #4]
  4027a4:	4a07      	ldr	r2, [pc, #28]	; (4027c4 <vTaskSwitchContext+0xcc>)
  4027a6:	eb02 0281 	add.w	r2, r2, r1, lsl #2
  4027aa:	6050      	str	r0, [r2, #4]
  4027ac:	e7ef      	b.n	40278e <vTaskSwitchContext+0x96>
  4027ae:	bf00      	nop
  4027b0:	20400cec 	.word	0x20400cec
  4027b4:	20400d70 	.word	0x20400d70
  4027b8:	20400c74 	.word	0x20400c74
  4027bc:	004033ed 	.word	0x004033ed
  4027c0:	20400cf8 	.word	0x20400cf8
  4027c4:	20400c80 	.word	0x20400c80

004027c8 <vTaskPlaceOnEventList>:
{
  4027c8:	b538      	push	{r3, r4, r5, lr}
	configASSERT( pxEventList );
  4027ca:	b1e0      	cbz	r0, 402806 <vTaskPlaceOnEventList+0x3e>
  4027cc:	460c      	mov	r4, r1
	vListInsert( pxEventList, &( pxCurrentTCB->xEventListItem ) );
  4027ce:	4d17      	ldr	r5, [pc, #92]	; (40282c <vTaskPlaceOnEventList+0x64>)
  4027d0:	6829      	ldr	r1, [r5, #0]
  4027d2:	3118      	adds	r1, #24
  4027d4:	4b16      	ldr	r3, [pc, #88]	; (402830 <vTaskPlaceOnEventList+0x68>)
  4027d6:	4798      	blx	r3
	if( uxListRemove( &( pxCurrentTCB->xGenericListItem ) ) == ( UBaseType_t ) 0 )
  4027d8:	6828      	ldr	r0, [r5, #0]
  4027da:	3004      	adds	r0, #4
  4027dc:	4b15      	ldr	r3, [pc, #84]	; (402834 <vTaskPlaceOnEventList+0x6c>)
  4027de:	4798      	blx	r3
  4027e0:	b940      	cbnz	r0, 4027f4 <vTaskPlaceOnEventList+0x2c>
		portRESET_READY_PRIORITY( pxCurrentTCB->uxPriority, uxTopReadyPriority );
  4027e2:	682a      	ldr	r2, [r5, #0]
  4027e4:	4914      	ldr	r1, [pc, #80]	; (402838 <vTaskPlaceOnEventList+0x70>)
  4027e6:	680b      	ldr	r3, [r1, #0]
  4027e8:	6ad0      	ldr	r0, [r2, #44]	; 0x2c
  4027ea:	2201      	movs	r2, #1
  4027ec:	4082      	lsls	r2, r0
  4027ee:	ea23 0302 	bic.w	r3, r3, r2
  4027f2:	600b      	str	r3, [r1, #0]
		if( xTicksToWait == portMAX_DELAY )
  4027f4:	f1b4 3fff 	cmp.w	r4, #4294967295
  4027f8:	d010      	beq.n	40281c <vTaskPlaceOnEventList+0x54>
			xTimeToWake = xTickCount + xTicksToWait;
  4027fa:	4b10      	ldr	r3, [pc, #64]	; (40283c <vTaskPlaceOnEventList+0x74>)
  4027fc:	6818      	ldr	r0, [r3, #0]
			prvAddCurrentTaskToDelayedList( xTimeToWake );
  4027fe:	4420      	add	r0, r4
  402800:	4b0f      	ldr	r3, [pc, #60]	; (402840 <vTaskPlaceOnEventList+0x78>)
  402802:	4798      	blx	r3
  402804:	bd38      	pop	{r3, r4, r5, pc}
  402806:	f04f 0380 	mov.w	r3, #128	; 0x80
  40280a:	b672      	cpsid	i
  40280c:	f383 8811 	msr	BASEPRI, r3
  402810:	f3bf 8f6f 	isb	sy
  402814:	f3bf 8f4f 	dsb	sy
  402818:	b662      	cpsie	i
  40281a:	e7fe      	b.n	40281a <vTaskPlaceOnEventList+0x52>
			vListInsertEnd( &xSuspendedTaskList, &( pxCurrentTCB->xGenericListItem ) );
  40281c:	4b03      	ldr	r3, [pc, #12]	; (40282c <vTaskPlaceOnEventList+0x64>)
  40281e:	6819      	ldr	r1, [r3, #0]
  402820:	3104      	adds	r1, #4
  402822:	4808      	ldr	r0, [pc, #32]	; (402844 <vTaskPlaceOnEventList+0x7c>)
  402824:	4b08      	ldr	r3, [pc, #32]	; (402848 <vTaskPlaceOnEventList+0x80>)
  402826:	4798      	blx	r3
  402828:	bd38      	pop	{r3, r4, r5, pc}
  40282a:	bf00      	nop
  40282c:	20400c74 	.word	0x20400c74
  402830:	004013c1 	.word	0x004013c1
  402834:	004013f5 	.word	0x004013f5
  402838:	20400cf8 	.word	0x20400cf8
  40283c:	20400d6c 	.word	0x20400d6c
  402840:	004020c1 	.word	0x004020c1
  402844:	20400d44 	.word	0x20400d44
  402848:	004013a9 	.word	0x004013a9

0040284c <vTaskPlaceOnEventListRestricted>:
		configASSERT( pxEventList );
  40284c:	b1e8      	cbz	r0, 40288a <vTaskPlaceOnEventListRestricted+0x3e>
	{
  40284e:	b570      	push	{r4, r5, r6, lr}
  402850:	4615      	mov	r5, r2
  402852:	460c      	mov	r4, r1
		vListInsertEnd( pxEventList, &( pxCurrentTCB->xEventListItem ) );
  402854:	4e16      	ldr	r6, [pc, #88]	; (4028b0 <vTaskPlaceOnEventListRestricted+0x64>)
  402856:	6831      	ldr	r1, [r6, #0]
  402858:	3118      	adds	r1, #24
  40285a:	4b16      	ldr	r3, [pc, #88]	; (4028b4 <vTaskPlaceOnEventListRestricted+0x68>)
  40285c:	4798      	blx	r3
		if( uxListRemove( &( pxCurrentTCB->xGenericListItem ) ) == ( UBaseType_t ) 0 )
  40285e:	6830      	ldr	r0, [r6, #0]
  402860:	3004      	adds	r0, #4
  402862:	4b15      	ldr	r3, [pc, #84]	; (4028b8 <vTaskPlaceOnEventListRestricted+0x6c>)
  402864:	4798      	blx	r3
  402866:	b940      	cbnz	r0, 40287a <vTaskPlaceOnEventListRestricted+0x2e>
			portRESET_READY_PRIORITY( pxCurrentTCB->uxPriority, uxTopReadyPriority );
  402868:	6832      	ldr	r2, [r6, #0]
  40286a:	4914      	ldr	r1, [pc, #80]	; (4028bc <vTaskPlaceOnEventListRestricted+0x70>)
  40286c:	680b      	ldr	r3, [r1, #0]
  40286e:	6ad0      	ldr	r0, [r2, #44]	; 0x2c
  402870:	2201      	movs	r2, #1
  402872:	4082      	lsls	r2, r0
  402874:	ea23 0302 	bic.w	r3, r3, r2
  402878:	600b      	str	r3, [r1, #0]
			if( xWaitIndefinitely == pdTRUE )
  40287a:	2d01      	cmp	r5, #1
  40287c:	d010      	beq.n	4028a0 <vTaskPlaceOnEventListRestricted+0x54>
				xTimeToWake = xTickCount + xTicksToWait;
  40287e:	4b10      	ldr	r3, [pc, #64]	; (4028c0 <vTaskPlaceOnEventListRestricted+0x74>)
  402880:	6818      	ldr	r0, [r3, #0]
				prvAddCurrentTaskToDelayedList( xTimeToWake );
  402882:	4420      	add	r0, r4
  402884:	4b0f      	ldr	r3, [pc, #60]	; (4028c4 <vTaskPlaceOnEventListRestricted+0x78>)
  402886:	4798      	blx	r3
  402888:	bd70      	pop	{r4, r5, r6, pc}
  40288a:	f04f 0380 	mov.w	r3, #128	; 0x80
  40288e:	b672      	cpsid	i
  402890:	f383 8811 	msr	BASEPRI, r3
  402894:	f3bf 8f6f 	isb	sy
  402898:	f3bf 8f4f 	dsb	sy
  40289c:	b662      	cpsie	i
  40289e:	e7fe      	b.n	40289e <vTaskPlaceOnEventListRestricted+0x52>
				vListInsertEnd( &xSuspendedTaskList, &( pxCurrentTCB->xGenericListItem ) );
  4028a0:	4b03      	ldr	r3, [pc, #12]	; (4028b0 <vTaskPlaceOnEventListRestricted+0x64>)
  4028a2:	6819      	ldr	r1, [r3, #0]
  4028a4:	3104      	adds	r1, #4
  4028a6:	4808      	ldr	r0, [pc, #32]	; (4028c8 <vTaskPlaceOnEventListRestricted+0x7c>)
  4028a8:	4b02      	ldr	r3, [pc, #8]	; (4028b4 <vTaskPlaceOnEventListRestricted+0x68>)
  4028aa:	4798      	blx	r3
  4028ac:	bd70      	pop	{r4, r5, r6, pc}
  4028ae:	bf00      	nop
  4028b0:	20400c74 	.word	0x20400c74
  4028b4:	004013a9 	.word	0x004013a9
  4028b8:	004013f5 	.word	0x004013f5
  4028bc:	20400cf8 	.word	0x20400cf8
  4028c0:	20400d6c 	.word	0x20400d6c
  4028c4:	004020c1 	.word	0x004020c1
  4028c8:	20400d44 	.word	0x20400d44

004028cc <xTaskRemoveFromEventList>:
{
  4028cc:	b538      	push	{r3, r4, r5, lr}
	pxUnblockedTCB = ( TCB_t * ) listGET_OWNER_OF_HEAD_ENTRY( pxEventList );
  4028ce:	68c3      	ldr	r3, [r0, #12]
  4028d0:	68dc      	ldr	r4, [r3, #12]
	configASSERT( pxUnblockedTCB );
  4028d2:	b324      	cbz	r4, 40291e <xTaskRemoveFromEventList+0x52>
	( void ) uxListRemove( &( pxUnblockedTCB->xEventListItem ) );
  4028d4:	f104 0518 	add.w	r5, r4, #24
  4028d8:	4628      	mov	r0, r5
  4028da:	4b1a      	ldr	r3, [pc, #104]	; (402944 <xTaskRemoveFromEventList+0x78>)
  4028dc:	4798      	blx	r3
	if( uxSchedulerSuspended == ( UBaseType_t ) pdFALSE )
  4028de:	4b1a      	ldr	r3, [pc, #104]	; (402948 <xTaskRemoveFromEventList+0x7c>)
  4028e0:	681b      	ldr	r3, [r3, #0]
  4028e2:	bb3b      	cbnz	r3, 402934 <xTaskRemoveFromEventList+0x68>
		( void ) uxListRemove( &( pxUnblockedTCB->xGenericListItem ) );
  4028e4:	1d25      	adds	r5, r4, #4
  4028e6:	4628      	mov	r0, r5
  4028e8:	4b16      	ldr	r3, [pc, #88]	; (402944 <xTaskRemoveFromEventList+0x78>)
  4028ea:	4798      	blx	r3
		prvAddTaskToReadyList( pxUnblockedTCB );
  4028ec:	6ae0      	ldr	r0, [r4, #44]	; 0x2c
  4028ee:	4a17      	ldr	r2, [pc, #92]	; (40294c <xTaskRemoveFromEventList+0x80>)
  4028f0:	6811      	ldr	r1, [r2, #0]
  4028f2:	2301      	movs	r3, #1
  4028f4:	4083      	lsls	r3, r0
  4028f6:	430b      	orrs	r3, r1
  4028f8:	6013      	str	r3, [r2, #0]
  4028fa:	eb00 0080 	add.w	r0, r0, r0, lsl #2
  4028fe:	4629      	mov	r1, r5
  402900:	4b13      	ldr	r3, [pc, #76]	; (402950 <xTaskRemoveFromEventList+0x84>)
  402902:	eb03 0080 	add.w	r0, r3, r0, lsl #2
  402906:	4b13      	ldr	r3, [pc, #76]	; (402954 <xTaskRemoveFromEventList+0x88>)
  402908:	4798      	blx	r3
	if( pxUnblockedTCB->uxPriority > pxCurrentTCB->uxPriority )
  40290a:	4b13      	ldr	r3, [pc, #76]	; (402958 <xTaskRemoveFromEventList+0x8c>)
  40290c:	681b      	ldr	r3, [r3, #0]
  40290e:	6ae2      	ldr	r2, [r4, #44]	; 0x2c
  402910:	6adb      	ldr	r3, [r3, #44]	; 0x2c
  402912:	429a      	cmp	r2, r3
  402914:	d913      	bls.n	40293e <xTaskRemoveFromEventList+0x72>
		xYieldPending = pdTRUE;
  402916:	2001      	movs	r0, #1
  402918:	4b10      	ldr	r3, [pc, #64]	; (40295c <xTaskRemoveFromEventList+0x90>)
  40291a:	6018      	str	r0, [r3, #0]
  40291c:	bd38      	pop	{r3, r4, r5, pc}
  40291e:	f04f 0380 	mov.w	r3, #128	; 0x80
  402922:	b672      	cpsid	i
  402924:	f383 8811 	msr	BASEPRI, r3
  402928:	f3bf 8f6f 	isb	sy
  40292c:	f3bf 8f4f 	dsb	sy
  402930:	b662      	cpsie	i
  402932:	e7fe      	b.n	402932 <xTaskRemoveFromEventList+0x66>
		vListInsertEnd( &( xPendingReadyList ), &( pxUnblockedTCB->xEventListItem ) );
  402934:	4629      	mov	r1, r5
  402936:	480a      	ldr	r0, [pc, #40]	; (402960 <xTaskRemoveFromEventList+0x94>)
  402938:	4b06      	ldr	r3, [pc, #24]	; (402954 <xTaskRemoveFromEventList+0x88>)
  40293a:	4798      	blx	r3
  40293c:	e7e5      	b.n	40290a <xTaskRemoveFromEventList+0x3e>
		xReturn = pdFALSE;
  40293e:	2000      	movs	r0, #0
}
  402940:	bd38      	pop	{r3, r4, r5, pc}
  402942:	bf00      	nop
  402944:	004013f5 	.word	0x004013f5
  402948:	20400cec 	.word	0x20400cec
  40294c:	20400cf8 	.word	0x20400cf8
  402950:	20400c80 	.word	0x20400c80
  402954:	004013a9 	.word	0x004013a9
  402958:	20400c74 	.word	0x20400c74
  40295c:	20400d70 	.word	0x20400d70
  402960:	20400d2c 	.word	0x20400d2c

00402964 <vTaskSetTimeOutState>:
	configASSERT( pxTimeOut );
  402964:	b130      	cbz	r0, 402974 <vTaskSetTimeOutState+0x10>
	pxTimeOut->xOverflowCount = xNumOfOverflows;
  402966:	4a09      	ldr	r2, [pc, #36]	; (40298c <vTaskSetTimeOutState+0x28>)
  402968:	6812      	ldr	r2, [r2, #0]
  40296a:	6002      	str	r2, [r0, #0]
	pxTimeOut->xTimeOnEntering = xTickCount;
  40296c:	4a08      	ldr	r2, [pc, #32]	; (402990 <vTaskSetTimeOutState+0x2c>)
  40296e:	6812      	ldr	r2, [r2, #0]
  402970:	6042      	str	r2, [r0, #4]
  402972:	4770      	bx	lr
  402974:	f04f 0380 	mov.w	r3, #128	; 0x80
  402978:	b672      	cpsid	i
  40297a:	f383 8811 	msr	BASEPRI, r3
  40297e:	f3bf 8f6f 	isb	sy
  402982:	f3bf 8f4f 	dsb	sy
  402986:	b662      	cpsie	i
  402988:	e7fe      	b.n	402988 <vTaskSetTimeOutState+0x24>
  40298a:	bf00      	nop
  40298c:	20400d28 	.word	0x20400d28
  402990:	20400d6c 	.word	0x20400d6c

00402994 <xTaskCheckForTimeOut>:
{
  402994:	b538      	push	{r3, r4, r5, lr}
	configASSERT( pxTimeOut );
  402996:	b1c0      	cbz	r0, 4029ca <xTaskCheckForTimeOut+0x36>
  402998:	4604      	mov	r4, r0
	configASSERT( pxTicksToWait );
  40299a:	b309      	cbz	r1, 4029e0 <xTaskCheckForTimeOut+0x4c>
  40299c:	460d      	mov	r5, r1
	taskENTER_CRITICAL();
  40299e:	4b1d      	ldr	r3, [pc, #116]	; (402a14 <xTaskCheckForTimeOut+0x80>)
  4029a0:	4798      	blx	r3
		const TickType_t xConstTickCount = xTickCount;
  4029a2:	4b1d      	ldr	r3, [pc, #116]	; (402a18 <xTaskCheckForTimeOut+0x84>)
  4029a4:	681a      	ldr	r2, [r3, #0]
			if( *pxTicksToWait == portMAX_DELAY )
  4029a6:	682b      	ldr	r3, [r5, #0]
  4029a8:	f1b3 3fff 	cmp.w	r3, #4294967295
  4029ac:	d02e      	beq.n	402a0c <xTaskCheckForTimeOut+0x78>
		if( ( xNumOfOverflows != pxTimeOut->xOverflowCount ) && ( xConstTickCount >= pxTimeOut->xTimeOnEntering ) ) /*lint !e525 Indentation preferred as is to make code within pre-processor directives clearer. */
  4029ae:	491b      	ldr	r1, [pc, #108]	; (402a1c <xTaskCheckForTimeOut+0x88>)
  4029b0:	6809      	ldr	r1, [r1, #0]
  4029b2:	6820      	ldr	r0, [r4, #0]
  4029b4:	4288      	cmp	r0, r1
  4029b6:	d002      	beq.n	4029be <xTaskCheckForTimeOut+0x2a>
  4029b8:	6861      	ldr	r1, [r4, #4]
  4029ba:	428a      	cmp	r2, r1
  4029bc:	d228      	bcs.n	402a10 <xTaskCheckForTimeOut+0x7c>
		else if( ( xConstTickCount - pxTimeOut->xTimeOnEntering ) < *pxTicksToWait )
  4029be:	6861      	ldr	r1, [r4, #4]
  4029c0:	1a50      	subs	r0, r2, r1
  4029c2:	4283      	cmp	r3, r0
  4029c4:	d817      	bhi.n	4029f6 <xTaskCheckForTimeOut+0x62>
			xReturn = pdTRUE;
  4029c6:	2401      	movs	r4, #1
  4029c8:	e01c      	b.n	402a04 <xTaskCheckForTimeOut+0x70>
  4029ca:	f04f 0380 	mov.w	r3, #128	; 0x80
  4029ce:	b672      	cpsid	i
  4029d0:	f383 8811 	msr	BASEPRI, r3
  4029d4:	f3bf 8f6f 	isb	sy
  4029d8:	f3bf 8f4f 	dsb	sy
  4029dc:	b662      	cpsie	i
  4029de:	e7fe      	b.n	4029de <xTaskCheckForTimeOut+0x4a>
  4029e0:	f04f 0380 	mov.w	r3, #128	; 0x80
  4029e4:	b672      	cpsid	i
  4029e6:	f383 8811 	msr	BASEPRI, r3
  4029ea:	f3bf 8f6f 	isb	sy
  4029ee:	f3bf 8f4f 	dsb	sy
  4029f2:	b662      	cpsie	i
  4029f4:	e7fe      	b.n	4029f4 <xTaskCheckForTimeOut+0x60>
			*pxTicksToWait -= ( xConstTickCount -  pxTimeOut->xTimeOnEntering );
  4029f6:	1a9b      	subs	r3, r3, r2
  4029f8:	440b      	add	r3, r1
  4029fa:	602b      	str	r3, [r5, #0]
			vTaskSetTimeOutState( pxTimeOut );
  4029fc:	4620      	mov	r0, r4
  4029fe:	4b08      	ldr	r3, [pc, #32]	; (402a20 <xTaskCheckForTimeOut+0x8c>)
  402a00:	4798      	blx	r3
			xReturn = pdFALSE;
  402a02:	2400      	movs	r4, #0
	taskEXIT_CRITICAL();
  402a04:	4b07      	ldr	r3, [pc, #28]	; (402a24 <xTaskCheckForTimeOut+0x90>)
  402a06:	4798      	blx	r3
}
  402a08:	4620      	mov	r0, r4
  402a0a:	bd38      	pop	{r3, r4, r5, pc}
				xReturn = pdFALSE;
  402a0c:	2400      	movs	r4, #0
  402a0e:	e7f9      	b.n	402a04 <xTaskCheckForTimeOut+0x70>
			xReturn = pdTRUE;
  402a10:	2401      	movs	r4, #1
  402a12:	e7f7      	b.n	402a04 <xTaskCheckForTimeOut+0x70>
  402a14:	004014d9 	.word	0x004014d9
  402a18:	20400d6c 	.word	0x20400d6c
  402a1c:	20400d28 	.word	0x20400d28
  402a20:	00402965 	.word	0x00402965
  402a24:	00401525 	.word	0x00401525

00402a28 <vTaskMissedYield>:
	xYieldPending = pdTRUE;
  402a28:	2201      	movs	r2, #1
  402a2a:	4b01      	ldr	r3, [pc, #4]	; (402a30 <vTaskMissedYield+0x8>)
  402a2c:	601a      	str	r2, [r3, #0]
  402a2e:	4770      	bx	lr
  402a30:	20400d70 	.word	0x20400d70

00402a34 <xTaskGetSchedulerState>:

	BaseType_t xTaskGetSchedulerState( void )
	{
	BaseType_t xReturn;

		if( xSchedulerRunning == pdFALSE )
  402a34:	4b05      	ldr	r3, [pc, #20]	; (402a4c <xTaskGetSchedulerState+0x18>)
  402a36:	681b      	ldr	r3, [r3, #0]
  402a38:	b133      	cbz	r3, 402a48 <xTaskGetSchedulerState+0x14>
		{
			xReturn = taskSCHEDULER_NOT_STARTED;
		}
		else
		{
			if( uxSchedulerSuspended == ( UBaseType_t ) pdFALSE )
  402a3a:	4b05      	ldr	r3, [pc, #20]	; (402a50 <xTaskGetSchedulerState+0x1c>)
  402a3c:	681b      	ldr	r3, [r3, #0]
			{
				xReturn = taskSCHEDULER_RUNNING;
			}
			else
			{
				xReturn = taskSCHEDULER_SUSPENDED;
  402a3e:	2b00      	cmp	r3, #0
  402a40:	bf0c      	ite	eq
  402a42:	2002      	moveq	r0, #2
  402a44:	2000      	movne	r0, #0
  402a46:	4770      	bx	lr
			xReturn = taskSCHEDULER_NOT_STARTED;
  402a48:	2001      	movs	r0, #1
			}
		}

		return xReturn;
	}
  402a4a:	4770      	bx	lr
  402a4c:	20400d40 	.word	0x20400d40
  402a50:	20400cec 	.word	0x20400cec

00402a54 <vTaskPriorityInherit>:
	{
	TCB_t * const pxTCB = ( TCB_t * ) pxMutexHolder;

		/* If the mutex was given back by an interrupt while the queue was
		locked then the mutex holder might now be NULL. */
		if( pxMutexHolder != NULL )
  402a54:	2800      	cmp	r0, #0
  402a56:	d044      	beq.n	402ae2 <vTaskPriorityInherit+0x8e>
	{
  402a58:	b538      	push	{r3, r4, r5, lr}
  402a5a:	4604      	mov	r4, r0
		{
			/* If the holder of the mutex has a priority below the priority of
			the task attempting to obtain the mutex then it will temporarily
			inherit the priority of the task attempting to obtain the mutex. */
			if( pxTCB->uxPriority < pxCurrentTCB->uxPriority )
  402a5c:	6ac2      	ldr	r2, [r0, #44]	; 0x2c
  402a5e:	4921      	ldr	r1, [pc, #132]	; (402ae4 <vTaskPriorityInherit+0x90>)
  402a60:	6809      	ldr	r1, [r1, #0]
  402a62:	6ac9      	ldr	r1, [r1, #44]	; 0x2c
  402a64:	428a      	cmp	r2, r1
  402a66:	d214      	bcs.n	402a92 <vTaskPriorityInherit+0x3e>
			{
				/* Adjust the mutex holder state to account for its new
				priority.  Only reset the event list item value if the value is
				not	being used for anything else. */
				if( ( listGET_LIST_ITEM_VALUE( &( pxTCB->xEventListItem ) ) & taskEVENT_LIST_ITEM_VALUE_IN_USE ) == 0UL )
  402a68:	6981      	ldr	r1, [r0, #24]
  402a6a:	2900      	cmp	r1, #0
  402a6c:	db05      	blt.n	402a7a <vTaskPriorityInherit+0x26>
				{
					listSET_LIST_ITEM_VALUE( &( pxTCB->xEventListItem ), ( TickType_t ) configMAX_PRIORITIES - ( TickType_t ) pxCurrentTCB->uxPriority ); /*lint !e961 MISRA exception as the casts are only redundant for some ports. */
  402a6e:	491d      	ldr	r1, [pc, #116]	; (402ae4 <vTaskPriorityInherit+0x90>)
  402a70:	6809      	ldr	r1, [r1, #0]
  402a72:	6ac9      	ldr	r1, [r1, #44]	; 0x2c
  402a74:	f1c1 0105 	rsb	r1, r1, #5
  402a78:	6181      	str	r1, [r0, #24]
					mtCOVERAGE_TEST_MARKER();
				}

				/* If the task being modified is in the ready state it will need
				to be moved into a new list. */
				if( listIS_CONTAINED_WITHIN( &( pxReadyTasksLists[ pxTCB->uxPriority ] ), &( pxTCB->xGenericListItem ) ) != pdFALSE )
  402a7a:	eb02 0282 	add.w	r2, r2, r2, lsl #2
  402a7e:	491a      	ldr	r1, [pc, #104]	; (402ae8 <vTaskPriorityInherit+0x94>)
  402a80:	eb01 0282 	add.w	r2, r1, r2, lsl #2
  402a84:	6961      	ldr	r1, [r4, #20]
  402a86:	4291      	cmp	r1, r2
  402a88:	d004      	beq.n	402a94 <vTaskPriorityInherit+0x40>
					prvAddTaskToReadyList( pxTCB );
				}
				else
				{
					/* Just inherit the priority. */
					pxTCB->uxPriority = pxCurrentTCB->uxPriority;
  402a8a:	4a16      	ldr	r2, [pc, #88]	; (402ae4 <vTaskPriorityInherit+0x90>)
  402a8c:	6812      	ldr	r2, [r2, #0]
  402a8e:	6ad2      	ldr	r2, [r2, #44]	; 0x2c
  402a90:	62e2      	str	r2, [r4, #44]	; 0x2c
  402a92:	bd38      	pop	{r3, r4, r5, pc}
					if( uxListRemove( &( pxTCB->xGenericListItem ) ) == ( UBaseType_t ) 0 )
  402a94:	1d25      	adds	r5, r4, #4
  402a96:	4628      	mov	r0, r5
  402a98:	4b14      	ldr	r3, [pc, #80]	; (402aec <vTaskPriorityInherit+0x98>)
  402a9a:	4798      	blx	r3
  402a9c:	b970      	cbnz	r0, 402abc <vTaskPriorityInherit+0x68>
						taskRESET_READY_PRIORITY( pxTCB->uxPriority );
  402a9e:	6ae3      	ldr	r3, [r4, #44]	; 0x2c
  402aa0:	eb03 0183 	add.w	r1, r3, r3, lsl #2
  402aa4:	4a10      	ldr	r2, [pc, #64]	; (402ae8 <vTaskPriorityInherit+0x94>)
  402aa6:	f852 2021 	ldr.w	r2, [r2, r1, lsl #2]
  402aaa:	b93a      	cbnz	r2, 402abc <vTaskPriorityInherit+0x68>
  402aac:	4810      	ldr	r0, [pc, #64]	; (402af0 <vTaskPriorityInherit+0x9c>)
  402aae:	6802      	ldr	r2, [r0, #0]
  402ab0:	2101      	movs	r1, #1
  402ab2:	fa01 f303 	lsl.w	r3, r1, r3
  402ab6:	ea22 0303 	bic.w	r3, r2, r3
  402aba:	6003      	str	r3, [r0, #0]
					pxTCB->uxPriority = pxCurrentTCB->uxPriority;
  402abc:	4b09      	ldr	r3, [pc, #36]	; (402ae4 <vTaskPriorityInherit+0x90>)
  402abe:	681b      	ldr	r3, [r3, #0]
  402ac0:	6ad8      	ldr	r0, [r3, #44]	; 0x2c
  402ac2:	62e0      	str	r0, [r4, #44]	; 0x2c
					prvAddTaskToReadyList( pxTCB );
  402ac4:	4a0a      	ldr	r2, [pc, #40]	; (402af0 <vTaskPriorityInherit+0x9c>)
  402ac6:	6811      	ldr	r1, [r2, #0]
  402ac8:	2301      	movs	r3, #1
  402aca:	4083      	lsls	r3, r0
  402acc:	430b      	orrs	r3, r1
  402ace:	6013      	str	r3, [r2, #0]
  402ad0:	eb00 0080 	add.w	r0, r0, r0, lsl #2
  402ad4:	4629      	mov	r1, r5
  402ad6:	4b04      	ldr	r3, [pc, #16]	; (402ae8 <vTaskPriorityInherit+0x94>)
  402ad8:	eb03 0080 	add.w	r0, r3, r0, lsl #2
  402adc:	4b05      	ldr	r3, [pc, #20]	; (402af4 <vTaskPriorityInherit+0xa0>)
  402ade:	4798      	blx	r3
  402ae0:	bd38      	pop	{r3, r4, r5, pc}
  402ae2:	4770      	bx	lr
  402ae4:	20400c74 	.word	0x20400c74
  402ae8:	20400c80 	.word	0x20400c80
  402aec:	004013f5 	.word	0x004013f5
  402af0:	20400cf8 	.word	0x20400cf8
  402af4:	004013a9 	.word	0x004013a9

00402af8 <xTaskPriorityDisinherit>:
	BaseType_t xTaskPriorityDisinherit( TaskHandle_t const pxMutexHolder )
	{
	TCB_t * const pxTCB = ( TCB_t * ) pxMutexHolder;
	BaseType_t xReturn = pdFALSE;

		if( pxMutexHolder != NULL )
  402af8:	2800      	cmp	r0, #0
  402afa:	d04d      	beq.n	402b98 <xTaskPriorityDisinherit+0xa0>
	{
  402afc:	b538      	push	{r3, r4, r5, lr}
  402afe:	4604      	mov	r4, r0
		{
			/* A task can only have an inherited priority if it holds the mutex.
			If the mutex is held by a task then it cannot be given from an
			interrupt, and if a mutex is given by the holding task then it must
			be the running state task. */
			configASSERT( pxTCB == pxCurrentTCB );
  402b00:	4a27      	ldr	r2, [pc, #156]	; (402ba0 <xTaskPriorityDisinherit+0xa8>)
  402b02:	6812      	ldr	r2, [r2, #0]
  402b04:	4290      	cmp	r0, r2
  402b06:	d00a      	beq.n	402b1e <xTaskPriorityDisinherit+0x26>
  402b08:	f04f 0380 	mov.w	r3, #128	; 0x80
  402b0c:	b672      	cpsid	i
  402b0e:	f383 8811 	msr	BASEPRI, r3
  402b12:	f3bf 8f6f 	isb	sy
  402b16:	f3bf 8f4f 	dsb	sy
  402b1a:	b662      	cpsie	i
  402b1c:	e7fe      	b.n	402b1c <xTaskPriorityDisinherit+0x24>

			configASSERT( pxTCB->uxMutexesHeld );
  402b1e:	6cc2      	ldr	r2, [r0, #76]	; 0x4c
  402b20:	b952      	cbnz	r2, 402b38 <xTaskPriorityDisinherit+0x40>
  402b22:	f04f 0380 	mov.w	r3, #128	; 0x80
  402b26:	b672      	cpsid	i
  402b28:	f383 8811 	msr	BASEPRI, r3
  402b2c:	f3bf 8f6f 	isb	sy
  402b30:	f3bf 8f4f 	dsb	sy
  402b34:	b662      	cpsie	i
  402b36:	e7fe      	b.n	402b36 <xTaskPriorityDisinherit+0x3e>
			( pxTCB->uxMutexesHeld )--;
  402b38:	3a01      	subs	r2, #1
  402b3a:	64c2      	str	r2, [r0, #76]	; 0x4c

			/* Has the holder of the mutex inherited the priority of another
			task? */
			if( pxTCB->uxPriority != pxTCB->uxBasePriority )
  402b3c:	6ac0      	ldr	r0, [r0, #44]	; 0x2c
  402b3e:	6ca1      	ldr	r1, [r4, #72]	; 0x48
			{
				/* Only disinherit if no other mutexes are held. */
				if( pxTCB->uxMutexesHeld == ( UBaseType_t ) 0 )
  402b40:	4288      	cmp	r0, r1
  402b42:	d02b      	beq.n	402b9c <xTaskPriorityDisinherit+0xa4>
  402b44:	bb52      	cbnz	r2, 402b9c <xTaskPriorityDisinherit+0xa4>
					/* A task can only have an inherited priority if it holds
					the mutex.  If the mutex is held by a task then it cannot be
					given from an interrupt, and if a mutex is given by the
					holding	task then it must be the running state task.  Remove
					the	holding task from the ready	list. */
					if( uxListRemove( &( pxTCB->xGenericListItem ) ) == ( UBaseType_t ) 0 )
  402b46:	1d25      	adds	r5, r4, #4
  402b48:	4628      	mov	r0, r5
  402b4a:	4b16      	ldr	r3, [pc, #88]	; (402ba4 <xTaskPriorityDisinherit+0xac>)
  402b4c:	4798      	blx	r3
  402b4e:	b968      	cbnz	r0, 402b6c <xTaskPriorityDisinherit+0x74>
					{
						taskRESET_READY_PRIORITY( pxTCB->uxPriority );
  402b50:	6ae1      	ldr	r1, [r4, #44]	; 0x2c
  402b52:	eb01 0281 	add.w	r2, r1, r1, lsl #2
  402b56:	4b14      	ldr	r3, [pc, #80]	; (402ba8 <xTaskPriorityDisinherit+0xb0>)
  402b58:	f853 3022 	ldr.w	r3, [r3, r2, lsl #2]
  402b5c:	b933      	cbnz	r3, 402b6c <xTaskPriorityDisinherit+0x74>
  402b5e:	4813      	ldr	r0, [pc, #76]	; (402bac <xTaskPriorityDisinherit+0xb4>)
  402b60:	6803      	ldr	r3, [r0, #0]
  402b62:	2201      	movs	r2, #1
  402b64:	408a      	lsls	r2, r1
  402b66:	ea23 0302 	bic.w	r3, r3, r2
  402b6a:	6003      	str	r3, [r0, #0]
					}

					/* Disinherit the priority before adding the task into the
					new	ready list. */
					traceTASK_PRIORITY_DISINHERIT( pxTCB, pxTCB->uxBasePriority );
					pxTCB->uxPriority = pxTCB->uxBasePriority;
  402b6c:	6ca0      	ldr	r0, [r4, #72]	; 0x48
  402b6e:	62e0      	str	r0, [r4, #44]	; 0x2c

					/* Reset the event list item value.  It cannot be in use for
					any other purpose if this task is running, and it must be
					running to give back the mutex. */
					listSET_LIST_ITEM_VALUE( &( pxTCB->xEventListItem ), ( TickType_t ) configMAX_PRIORITIES - ( TickType_t ) pxTCB->uxPriority ); /*lint !e961 MISRA exception as the casts are only redundant for some ports. */
  402b70:	f1c0 0305 	rsb	r3, r0, #5
  402b74:	61a3      	str	r3, [r4, #24]
					prvAddTaskToReadyList( pxTCB );
  402b76:	4a0d      	ldr	r2, [pc, #52]	; (402bac <xTaskPriorityDisinherit+0xb4>)
  402b78:	6811      	ldr	r1, [r2, #0]
  402b7a:	2401      	movs	r4, #1
  402b7c:	fa04 f300 	lsl.w	r3, r4, r0
  402b80:	430b      	orrs	r3, r1
  402b82:	6013      	str	r3, [r2, #0]
  402b84:	eb00 0080 	add.w	r0, r0, r0, lsl #2
  402b88:	4629      	mov	r1, r5
  402b8a:	4b07      	ldr	r3, [pc, #28]	; (402ba8 <xTaskPriorityDisinherit+0xb0>)
  402b8c:	eb03 0080 	add.w	r0, r3, r0, lsl #2
  402b90:	4b07      	ldr	r3, [pc, #28]	; (402bb0 <xTaskPriorityDisinherit+0xb8>)
  402b92:	4798      	blx	r3
					in an order different to that in which they were taken.
					If a context switch did not occur when the first mutex was
					returned, even if a task was waiting on it, then a context
					switch should occur when the last mutex is returned whether
					a task is waiting on it or not. */
					xReturn = pdTRUE;
  402b94:	4620      	mov	r0, r4
  402b96:	bd38      	pop	{r3, r4, r5, pc}
	BaseType_t xReturn = pdFALSE;
  402b98:	2000      	movs	r0, #0
  402b9a:	4770      	bx	lr
  402b9c:	2000      	movs	r0, #0
		{
			mtCOVERAGE_TEST_MARKER();
		}

		return xReturn;
	}
  402b9e:	bd38      	pop	{r3, r4, r5, pc}
  402ba0:	20400c74 	.word	0x20400c74
  402ba4:	004013f5 	.word	0x004013f5
  402ba8:	20400c80 	.word	0x20400c80
  402bac:	20400cf8 	.word	0x20400cf8
  402bb0:	004013a9 	.word	0x004013a9

00402bb4 <pvTaskIncrementMutexHeldCount>:

	void *pvTaskIncrementMutexHeldCount( void )
	{
		/* If xSemaphoreCreateMutex() is called before any tasks have been created
		then pxCurrentTCB will be NULL. */
		if( pxCurrentTCB != NULL )
  402bb4:	4b05      	ldr	r3, [pc, #20]	; (402bcc <pvTaskIncrementMutexHeldCount+0x18>)
  402bb6:	681b      	ldr	r3, [r3, #0]
  402bb8:	b123      	cbz	r3, 402bc4 <pvTaskIncrementMutexHeldCount+0x10>
		{
			( pxCurrentTCB->uxMutexesHeld )++;
  402bba:	4b04      	ldr	r3, [pc, #16]	; (402bcc <pvTaskIncrementMutexHeldCount+0x18>)
  402bbc:	681a      	ldr	r2, [r3, #0]
  402bbe:	6cd3      	ldr	r3, [r2, #76]	; 0x4c
  402bc0:	3301      	adds	r3, #1
  402bc2:	64d3      	str	r3, [r2, #76]	; 0x4c
		}

		return pxCurrentTCB;
  402bc4:	4b01      	ldr	r3, [pc, #4]	; (402bcc <pvTaskIncrementMutexHeldCount+0x18>)
  402bc6:	6818      	ldr	r0, [r3, #0]
	}
  402bc8:	4770      	bx	lr
  402bca:	bf00      	nop
  402bcc:	20400c74 	.word	0x20400c74

00402bd0 <prvInsertTimerInActiveList>:
	return xTimeNow;
}
/*-----------------------------------------------------------*/

static BaseType_t prvInsertTimerInActiveList( Timer_t * const pxTimer, const TickType_t xNextExpiryTime, const TickType_t xTimeNow, const TickType_t xCommandTime )
{
  402bd0:	b508      	push	{r3, lr}
BaseType_t xProcessTimerNow = pdFALSE;

	listSET_LIST_ITEM_VALUE( &( pxTimer->xTimerListItem ), xNextExpiryTime );
  402bd2:	6041      	str	r1, [r0, #4]
	listSET_LIST_ITEM_OWNER( &( pxTimer->xTimerListItem ), pxTimer );
  402bd4:	6100      	str	r0, [r0, #16]

	if( xNextExpiryTime <= xTimeNow )
  402bd6:	4291      	cmp	r1, r2
  402bd8:	d80c      	bhi.n	402bf4 <prvInsertTimerInActiveList+0x24>
	{
		/* Has the expiry time elapsed between the command to start/reset a
		timer was issued, and the time the command was processed? */
		if( ( xTimeNow - xCommandTime ) >= pxTimer->xTimerPeriodInTicks )
  402bda:	1ad2      	subs	r2, r2, r3
  402bdc:	6983      	ldr	r3, [r0, #24]
  402bde:	429a      	cmp	r2, r3
  402be0:	d301      	bcc.n	402be6 <prvInsertTimerInActiveList+0x16>
		{
			/* The time between a command being issued and the command being
			processed actually exceeds the timers period.  */
			xProcessTimerNow = pdTRUE;
  402be2:	2001      	movs	r0, #1
  402be4:	bd08      	pop	{r3, pc}
		}
		else
		{
			vListInsert( pxOverflowTimerList, &( pxTimer->xTimerListItem ) );
  402be6:	1d01      	adds	r1, r0, #4
  402be8:	4b09      	ldr	r3, [pc, #36]	; (402c10 <prvInsertTimerInActiveList+0x40>)
  402bea:	6818      	ldr	r0, [r3, #0]
  402bec:	4b09      	ldr	r3, [pc, #36]	; (402c14 <prvInsertTimerInActiveList+0x44>)
  402bee:	4798      	blx	r3
BaseType_t xProcessTimerNow = pdFALSE;
  402bf0:	2000      	movs	r0, #0
  402bf2:	bd08      	pop	{r3, pc}
		}
	}
	else
	{
		if( ( xTimeNow < xCommandTime ) && ( xNextExpiryTime >= xCommandTime ) )
  402bf4:	429a      	cmp	r2, r3
  402bf6:	d203      	bcs.n	402c00 <prvInsertTimerInActiveList+0x30>
  402bf8:	4299      	cmp	r1, r3
  402bfa:	d301      	bcc.n	402c00 <prvInsertTimerInActiveList+0x30>
		{
			/* If, since the command was issued, the tick count has overflowed
			but the expiry time has not, then the timer must have already passed
			its expiry time and should be processed immediately. */
			xProcessTimerNow = pdTRUE;
  402bfc:	2001      	movs	r0, #1
			vListInsert( pxCurrentTimerList, &( pxTimer->xTimerListItem ) );
		}
	}

	return xProcessTimerNow;
}
  402bfe:	bd08      	pop	{r3, pc}
			vListInsert( pxCurrentTimerList, &( pxTimer->xTimerListItem ) );
  402c00:	1d01      	adds	r1, r0, #4
  402c02:	4b05      	ldr	r3, [pc, #20]	; (402c18 <prvInsertTimerInActiveList+0x48>)
  402c04:	6818      	ldr	r0, [r3, #0]
  402c06:	4b03      	ldr	r3, [pc, #12]	; (402c14 <prvInsertTimerInActiveList+0x44>)
  402c08:	4798      	blx	r3
BaseType_t xProcessTimerNow = pdFALSE;
  402c0a:	2000      	movs	r0, #0
  402c0c:	bd08      	pop	{r3, pc}
  402c0e:	bf00      	nop
  402c10:	20400d78 	.word	0x20400d78
  402c14:	004013c1 	.word	0x004013c1
  402c18:	20400d74 	.word	0x20400d74

00402c1c <prvCheckForValidListAndQueue>:
	pxOverflowTimerList = pxTemp;
}
/*-----------------------------------------------------------*/

static void prvCheckForValidListAndQueue( void )
{
  402c1c:	b570      	push	{r4, r5, r6, lr}
	/* Check that the list from which active timers are referenced, and the
	queue used to communicate with the timer service, have been
	initialised. */
	taskENTER_CRITICAL();
  402c1e:	4b15      	ldr	r3, [pc, #84]	; (402c74 <prvCheckForValidListAndQueue+0x58>)
  402c20:	4798      	blx	r3
	{
		if( xTimerQueue == NULL )
  402c22:	4b15      	ldr	r3, [pc, #84]	; (402c78 <prvCheckForValidListAndQueue+0x5c>)
  402c24:	681b      	ldr	r3, [r3, #0]
  402c26:	b113      	cbz	r3, 402c2e <prvCheckForValidListAndQueue+0x12>
		else
		{
			mtCOVERAGE_TEST_MARKER();
		}
	}
	taskEXIT_CRITICAL();
  402c28:	4b14      	ldr	r3, [pc, #80]	; (402c7c <prvCheckForValidListAndQueue+0x60>)
  402c2a:	4798      	blx	r3
  402c2c:	bd70      	pop	{r4, r5, r6, pc}
			vListInitialise( &xActiveTimerList1 );
  402c2e:	4d14      	ldr	r5, [pc, #80]	; (402c80 <prvCheckForValidListAndQueue+0x64>)
  402c30:	4628      	mov	r0, r5
  402c32:	4e14      	ldr	r6, [pc, #80]	; (402c84 <prvCheckForValidListAndQueue+0x68>)
  402c34:	47b0      	blx	r6
			vListInitialise( &xActiveTimerList2 );
  402c36:	4c14      	ldr	r4, [pc, #80]	; (402c88 <prvCheckForValidListAndQueue+0x6c>)
  402c38:	4620      	mov	r0, r4
  402c3a:	47b0      	blx	r6
			pxCurrentTimerList = &xActiveTimerList1;
  402c3c:	4b13      	ldr	r3, [pc, #76]	; (402c8c <prvCheckForValidListAndQueue+0x70>)
  402c3e:	601d      	str	r5, [r3, #0]
			pxOverflowTimerList = &xActiveTimerList2;
  402c40:	4b13      	ldr	r3, [pc, #76]	; (402c90 <prvCheckForValidListAndQueue+0x74>)
  402c42:	601c      	str	r4, [r3, #0]
			xTimerQueue = xQueueCreate( ( UBaseType_t ) configTIMER_QUEUE_LENGTH, sizeof( DaemonTaskMessage_t ) );
  402c44:	2200      	movs	r2, #0
  402c46:	2110      	movs	r1, #16
  402c48:	2005      	movs	r0, #5
  402c4a:	4b12      	ldr	r3, [pc, #72]	; (402c94 <prvCheckForValidListAndQueue+0x78>)
  402c4c:	4798      	blx	r3
  402c4e:	4b0a      	ldr	r3, [pc, #40]	; (402c78 <prvCheckForValidListAndQueue+0x5c>)
  402c50:	6018      	str	r0, [r3, #0]
			configASSERT( xTimerQueue );
  402c52:	b118      	cbz	r0, 402c5c <prvCheckForValidListAndQueue+0x40>
					vQueueAddToRegistry( xTimerQueue, "TmrQ" );
  402c54:	4910      	ldr	r1, [pc, #64]	; (402c98 <prvCheckForValidListAndQueue+0x7c>)
  402c56:	4b11      	ldr	r3, [pc, #68]	; (402c9c <prvCheckForValidListAndQueue+0x80>)
  402c58:	4798      	blx	r3
  402c5a:	e7e5      	b.n	402c28 <prvCheckForValidListAndQueue+0xc>
  402c5c:	f04f 0380 	mov.w	r3, #128	; 0x80
  402c60:	b672      	cpsid	i
  402c62:	f383 8811 	msr	BASEPRI, r3
  402c66:	f3bf 8f6f 	isb	sy
  402c6a:	f3bf 8f4f 	dsb	sy
  402c6e:	b662      	cpsie	i
  402c70:	e7fe      	b.n	402c70 <prvCheckForValidListAndQueue+0x54>
  402c72:	bf00      	nop
  402c74:	004014d9 	.word	0x004014d9
  402c78:	20400da8 	.word	0x20400da8
  402c7c:	00401525 	.word	0x00401525
  402c80:	20400d7c 	.word	0x20400d7c
  402c84:	0040138d 	.word	0x0040138d
  402c88:	20400d90 	.word	0x20400d90
  402c8c:	20400d74 	.word	0x20400d74
  402c90:	20400d78 	.word	0x20400d78
  402c94:	004019f9 	.word	0x004019f9
  402c98:	00409e24 	.word	0x00409e24
  402c9c:	00402009 	.word	0x00402009

00402ca0 <xTimerCreateTimerTask>:
{
  402ca0:	b510      	push	{r4, lr}
  402ca2:	b084      	sub	sp, #16
	prvCheckForValidListAndQueue();
  402ca4:	4b0f      	ldr	r3, [pc, #60]	; (402ce4 <xTimerCreateTimerTask+0x44>)
  402ca6:	4798      	blx	r3
	if( xTimerQueue != NULL )
  402ca8:	4b0f      	ldr	r3, [pc, #60]	; (402ce8 <xTimerCreateTimerTask+0x48>)
  402caa:	681b      	ldr	r3, [r3, #0]
  402cac:	b173      	cbz	r3, 402ccc <xTimerCreateTimerTask+0x2c>
			xReturn = xTaskCreate( prvTimerTask, "Tmr Svc", ( uint16_t ) configTIMER_TASK_STACK_DEPTH, NULL, ( ( UBaseType_t ) configTIMER_TASK_PRIORITY ) | portPRIVILEGE_BIT, NULL);
  402cae:	2300      	movs	r3, #0
  402cb0:	9303      	str	r3, [sp, #12]
  402cb2:	9302      	str	r3, [sp, #8]
  402cb4:	9301      	str	r3, [sp, #4]
  402cb6:	2204      	movs	r2, #4
  402cb8:	9200      	str	r2, [sp, #0]
  402cba:	f44f 7282 	mov.w	r2, #260	; 0x104
  402cbe:	490b      	ldr	r1, [pc, #44]	; (402cec <xTimerCreateTimerTask+0x4c>)
  402cc0:	480b      	ldr	r0, [pc, #44]	; (402cf0 <xTimerCreateTimerTask+0x50>)
  402cc2:	4c0c      	ldr	r4, [pc, #48]	; (402cf4 <xTimerCreateTimerTask+0x54>)
  402cc4:	47a0      	blx	r4
	configASSERT( xReturn );
  402cc6:	b108      	cbz	r0, 402ccc <xTimerCreateTimerTask+0x2c>
}
  402cc8:	b004      	add	sp, #16
  402cca:	bd10      	pop	{r4, pc}
  402ccc:	f04f 0380 	mov.w	r3, #128	; 0x80
  402cd0:	b672      	cpsid	i
  402cd2:	f383 8811 	msr	BASEPRI, r3
  402cd6:	f3bf 8f6f 	isb	sy
  402cda:	f3bf 8f4f 	dsb	sy
  402cde:	b662      	cpsie	i
  402ce0:	e7fe      	b.n	402ce0 <xTimerCreateTimerTask+0x40>
  402ce2:	bf00      	nop
  402ce4:	00402c1d 	.word	0x00402c1d
  402ce8:	20400da8 	.word	0x20400da8
  402cec:	00409e2c 	.word	0x00409e2c
  402cf0:	00402e21 	.word	0x00402e21
  402cf4:	00402119 	.word	0x00402119

00402cf8 <xTimerGenericCommand>:
	configASSERT( xTimer );
  402cf8:	b1d8      	cbz	r0, 402d32 <xTimerGenericCommand+0x3a>
{
  402cfa:	b530      	push	{r4, r5, lr}
  402cfc:	b085      	sub	sp, #20
  402cfe:	4615      	mov	r5, r2
  402d00:	4604      	mov	r4, r0
	if( xTimerQueue != NULL )
  402d02:	4a15      	ldr	r2, [pc, #84]	; (402d58 <xTimerGenericCommand+0x60>)
  402d04:	6810      	ldr	r0, [r2, #0]
  402d06:	b320      	cbz	r0, 402d52 <xTimerGenericCommand+0x5a>
  402d08:	461a      	mov	r2, r3
		xMessage.xMessageID = xCommandID;
  402d0a:	9100      	str	r1, [sp, #0]
		xMessage.u.xTimerParameters.xMessageValue = xOptionalValue;
  402d0c:	9501      	str	r5, [sp, #4]
		xMessage.u.xTimerParameters.pxTimer = ( Timer_t * ) xTimer;
  402d0e:	9402      	str	r4, [sp, #8]
		if( xCommandID < tmrFIRST_FROM_ISR_COMMAND )
  402d10:	2905      	cmp	r1, #5
  402d12:	dc19      	bgt.n	402d48 <xTimerGenericCommand+0x50>
			if( xTaskGetSchedulerState() == taskSCHEDULER_RUNNING )
  402d14:	4b11      	ldr	r3, [pc, #68]	; (402d5c <xTimerGenericCommand+0x64>)
  402d16:	4798      	blx	r3
  402d18:	2802      	cmp	r0, #2
				xReturn = xQueueSendToBack( xTimerQueue, &xMessage, xTicksToWait );
  402d1a:	f04f 0300 	mov.w	r3, #0
  402d1e:	bf0c      	ite	eq
  402d20:	9a08      	ldreq	r2, [sp, #32]
				xReturn = xQueueSendToBack( xTimerQueue, &xMessage, tmrNO_DELAY );
  402d22:	461a      	movne	r2, r3
  402d24:	4669      	mov	r1, sp
  402d26:	480c      	ldr	r0, [pc, #48]	; (402d58 <xTimerGenericCommand+0x60>)
  402d28:	6800      	ldr	r0, [r0, #0]
  402d2a:	4c0d      	ldr	r4, [pc, #52]	; (402d60 <xTimerGenericCommand+0x68>)
  402d2c:	47a0      	blx	r4
}
  402d2e:	b005      	add	sp, #20
  402d30:	bd30      	pop	{r4, r5, pc}
  402d32:	f04f 0380 	mov.w	r3, #128	; 0x80
  402d36:	b672      	cpsid	i
  402d38:	f383 8811 	msr	BASEPRI, r3
  402d3c:	f3bf 8f6f 	isb	sy
  402d40:	f3bf 8f4f 	dsb	sy
  402d44:	b662      	cpsie	i
  402d46:	e7fe      	b.n	402d46 <xTimerGenericCommand+0x4e>
			xReturn = xQueueSendToBackFromISR( xTimerQueue, &xMessage, pxHigherPriorityTaskWoken );
  402d48:	2300      	movs	r3, #0
  402d4a:	4669      	mov	r1, sp
  402d4c:	4c05      	ldr	r4, [pc, #20]	; (402d64 <xTimerGenericCommand+0x6c>)
  402d4e:	47a0      	blx	r4
  402d50:	e7ed      	b.n	402d2e <xTimerGenericCommand+0x36>
BaseType_t xReturn = pdFAIL;
  402d52:	2000      	movs	r0, #0
	return xReturn;
  402d54:	e7eb      	b.n	402d2e <xTimerGenericCommand+0x36>
  402d56:	bf00      	nop
  402d58:	20400da8 	.word	0x20400da8
  402d5c:	00402a35 	.word	0x00402a35
  402d60:	00401a75 	.word	0x00401a75
  402d64:	00401c59 	.word	0x00401c59

00402d68 <prvSampleTimeNow>:
{
  402d68:	e92d 47f0 	stmdb	sp!, {r4, r5, r6, r7, r8, r9, sl, lr}
  402d6c:	b082      	sub	sp, #8
  402d6e:	4680      	mov	r8, r0
	xTimeNow = xTaskGetTickCount();
  402d70:	4b24      	ldr	r3, [pc, #144]	; (402e04 <prvSampleTimeNow+0x9c>)
  402d72:	4798      	blx	r3
  402d74:	4607      	mov	r7, r0
	if( xTimeNow < xLastTime )
  402d76:	4b24      	ldr	r3, [pc, #144]	; (402e08 <prvSampleTimeNow+0xa0>)
  402d78:	681b      	ldr	r3, [r3, #0]
  402d7a:	4298      	cmp	r0, r3
  402d7c:	d31b      	bcc.n	402db6 <prvSampleTimeNow+0x4e>
		*pxTimerListsWereSwitched = pdFALSE;
  402d7e:	2300      	movs	r3, #0
  402d80:	f8c8 3000 	str.w	r3, [r8]
	xLastTime = xTimeNow;
  402d84:	4b20      	ldr	r3, [pc, #128]	; (402e08 <prvSampleTimeNow+0xa0>)
  402d86:	601f      	str	r7, [r3, #0]
}
  402d88:	4638      	mov	r0, r7
  402d8a:	b002      	add	sp, #8
  402d8c:	e8bd 87f0 	ldmia.w	sp!, {r4, r5, r6, r7, r8, r9, sl, pc}
				xResult = xTimerGenericCommand( pxTimer, tmrCOMMAND_START_DONT_TRACE, xNextExpireTime, NULL, tmrNO_DELAY );
  402d90:	2100      	movs	r1, #0
  402d92:	9100      	str	r1, [sp, #0]
  402d94:	460b      	mov	r3, r1
  402d96:	4652      	mov	r2, sl
  402d98:	4620      	mov	r0, r4
  402d9a:	4c1c      	ldr	r4, [pc, #112]	; (402e0c <prvSampleTimeNow+0xa4>)
  402d9c:	47a0      	blx	r4
				configASSERT( xResult );
  402d9e:	b960      	cbnz	r0, 402dba <prvSampleTimeNow+0x52>
  402da0:	f04f 0380 	mov.w	r3, #128	; 0x80
  402da4:	b672      	cpsid	i
  402da6:	f383 8811 	msr	BASEPRI, r3
  402daa:	f3bf 8f6f 	isb	sy
  402dae:	f3bf 8f4f 	dsb	sy
  402db2:	b662      	cpsie	i
  402db4:	e7fe      	b.n	402db4 <prvSampleTimeNow+0x4c>
	while( listLIST_IS_EMPTY( pxCurrentTimerList ) == pdFALSE )
  402db6:	4d16      	ldr	r5, [pc, #88]	; (402e10 <prvSampleTimeNow+0xa8>)
		( void ) uxListRemove( &( pxTimer->xTimerListItem ) );
  402db8:	4e16      	ldr	r6, [pc, #88]	; (402e14 <prvSampleTimeNow+0xac>)
	while( listLIST_IS_EMPTY( pxCurrentTimerList ) == pdFALSE )
  402dba:	682b      	ldr	r3, [r5, #0]
  402dbc:	681a      	ldr	r2, [r3, #0]
  402dbe:	b1c2      	cbz	r2, 402df2 <prvSampleTimeNow+0x8a>
		xNextExpireTime = listGET_ITEM_VALUE_OF_HEAD_ENTRY( pxCurrentTimerList );
  402dc0:	68db      	ldr	r3, [r3, #12]
  402dc2:	f8d3 a000 	ldr.w	sl, [r3]
		pxTimer = ( Timer_t * ) listGET_OWNER_OF_HEAD_ENTRY( pxCurrentTimerList );
  402dc6:	68dc      	ldr	r4, [r3, #12]
		( void ) uxListRemove( &( pxTimer->xTimerListItem ) );
  402dc8:	f104 0904 	add.w	r9, r4, #4
  402dcc:	4648      	mov	r0, r9
  402dce:	47b0      	blx	r6
		pxTimer->pxCallbackFunction( ( TimerHandle_t ) pxTimer );
  402dd0:	6a63      	ldr	r3, [r4, #36]	; 0x24
  402dd2:	4620      	mov	r0, r4
  402dd4:	4798      	blx	r3
		if( pxTimer->uxAutoReload == ( UBaseType_t ) pdTRUE )
  402dd6:	69e3      	ldr	r3, [r4, #28]
  402dd8:	2b01      	cmp	r3, #1
  402dda:	d1ee      	bne.n	402dba <prvSampleTimeNow+0x52>
			xReloadTime = ( xNextExpireTime + pxTimer->xTimerPeriodInTicks );
  402ddc:	69a3      	ldr	r3, [r4, #24]
  402dde:	4453      	add	r3, sl
			if( xReloadTime > xNextExpireTime )
  402de0:	459a      	cmp	sl, r3
  402de2:	d2d5      	bcs.n	402d90 <prvSampleTimeNow+0x28>
				listSET_LIST_ITEM_VALUE( &( pxTimer->xTimerListItem ), xReloadTime );
  402de4:	6063      	str	r3, [r4, #4]
				listSET_LIST_ITEM_OWNER( &( pxTimer->xTimerListItem ), pxTimer );
  402de6:	6124      	str	r4, [r4, #16]
				vListInsert( pxCurrentTimerList, &( pxTimer->xTimerListItem ) );
  402de8:	4649      	mov	r1, r9
  402dea:	6828      	ldr	r0, [r5, #0]
  402dec:	4b0a      	ldr	r3, [pc, #40]	; (402e18 <prvSampleTimeNow+0xb0>)
  402dee:	4798      	blx	r3
  402df0:	e7e3      	b.n	402dba <prvSampleTimeNow+0x52>
	pxCurrentTimerList = pxOverflowTimerList;
  402df2:	4a0a      	ldr	r2, [pc, #40]	; (402e1c <prvSampleTimeNow+0xb4>)
  402df4:	6810      	ldr	r0, [r2, #0]
  402df6:	4906      	ldr	r1, [pc, #24]	; (402e10 <prvSampleTimeNow+0xa8>)
  402df8:	6008      	str	r0, [r1, #0]
	pxOverflowTimerList = pxTemp;
  402dfa:	6013      	str	r3, [r2, #0]
		*pxTimerListsWereSwitched = pdTRUE;
  402dfc:	2301      	movs	r3, #1
  402dfe:	f8c8 3000 	str.w	r3, [r8]
  402e02:	e7bf      	b.n	402d84 <prvSampleTimeNow+0x1c>
  402e04:	004023e9 	.word	0x004023e9
  402e08:	20400da4 	.word	0x20400da4
  402e0c:	00402cf9 	.word	0x00402cf9
  402e10:	20400d74 	.word	0x20400d74
  402e14:	004013f5 	.word	0x004013f5
  402e18:	004013c1 	.word	0x004013c1
  402e1c:	20400d78 	.word	0x20400d78

00402e20 <prvTimerTask>:
{
  402e20:	e92d 47f0 	stmdb	sp!, {r4, r5, r6, r7, r8, r9, sl, lr}
  402e24:	b088      	sub	sp, #32
	*pxListWasEmpty = listLIST_IS_EMPTY( pxCurrentTimerList );
  402e26:	4e75      	ldr	r6, [pc, #468]	; (402ffc <prvTimerTask+0x1dc>)
	vTaskSuspendAll();
  402e28:	4f75      	ldr	r7, [pc, #468]	; (403000 <prvTimerTask+0x1e0>)
					portYIELD_WITHIN_API();
  402e2a:	f8df 91fc 	ldr.w	r9, [pc, #508]	; 403028 <prvTimerTask+0x208>
	( void ) uxListRemove( &( pxTimer->xTimerListItem ) );
  402e2e:	f8df 81fc 	ldr.w	r8, [pc, #508]	; 40302c <prvTimerTask+0x20c>
	*pxListWasEmpty = listLIST_IS_EMPTY( pxCurrentTimerList );
  402e32:	6833      	ldr	r3, [r6, #0]
	if( *pxListWasEmpty == pdFALSE )
  402e34:	681a      	ldr	r2, [r3, #0]
  402e36:	2a00      	cmp	r2, #0
  402e38:	f000 80ce 	beq.w	402fd8 <prvTimerTask+0x1b8>
		xNextExpireTime = listGET_ITEM_VALUE_OF_HEAD_ENTRY( pxCurrentTimerList );
  402e3c:	68db      	ldr	r3, [r3, #12]
  402e3e:	681c      	ldr	r4, [r3, #0]
	vTaskSuspendAll();
  402e40:	47b8      	blx	r7
		xTimeNow = prvSampleTimeNow( &xTimerListsWereSwitched );
  402e42:	a804      	add	r0, sp, #16
  402e44:	4b6f      	ldr	r3, [pc, #444]	; (403004 <prvTimerTask+0x1e4>)
  402e46:	4798      	blx	r3
  402e48:	4605      	mov	r5, r0
		if( xTimerListsWereSwitched == pdFALSE )
  402e4a:	9b04      	ldr	r3, [sp, #16]
  402e4c:	2b00      	cmp	r3, #0
  402e4e:	d144      	bne.n	402eda <prvTimerTask+0xba>
			if( ( xListWasEmpty == pdFALSE ) && ( xNextExpireTime <= xTimeNow ) )
  402e50:	42a0      	cmp	r0, r4
  402e52:	d212      	bcs.n	402e7a <prvTimerTask+0x5a>
  402e54:	2200      	movs	r2, #0
				vQueueWaitForMessageRestricted( xTimerQueue, ( xNextExpireTime - xTimeNow ), xListWasEmpty );
  402e56:	1b61      	subs	r1, r4, r5
  402e58:	4b6b      	ldr	r3, [pc, #428]	; (403008 <prvTimerTask+0x1e8>)
  402e5a:	6818      	ldr	r0, [r3, #0]
  402e5c:	4b6b      	ldr	r3, [pc, #428]	; (40300c <prvTimerTask+0x1ec>)
  402e5e:	4798      	blx	r3
				if( xTaskResumeAll() == pdFALSE )
  402e60:	4b6b      	ldr	r3, [pc, #428]	; (403010 <prvTimerTask+0x1f0>)
  402e62:	4798      	blx	r3
  402e64:	2800      	cmp	r0, #0
  402e66:	d13a      	bne.n	402ede <prvTimerTask+0xbe>
					portYIELD_WITHIN_API();
  402e68:	f04f 5380 	mov.w	r3, #268435456	; 0x10000000
  402e6c:	f8c9 3000 	str.w	r3, [r9]
  402e70:	f3bf 8f4f 	dsb	sy
  402e74:	f3bf 8f6f 	isb	sy
  402e78:	e031      	b.n	402ede <prvTimerTask+0xbe>
				( void ) xTaskResumeAll();
  402e7a:	4b65      	ldr	r3, [pc, #404]	; (403010 <prvTimerTask+0x1f0>)
  402e7c:	4798      	blx	r3
Timer_t * const pxTimer = ( Timer_t * ) listGET_OWNER_OF_HEAD_ENTRY( pxCurrentTimerList );
  402e7e:	6833      	ldr	r3, [r6, #0]
  402e80:	68db      	ldr	r3, [r3, #12]
  402e82:	f8d3 a00c 	ldr.w	sl, [r3, #12]
	( void ) uxListRemove( &( pxTimer->xTimerListItem ) );
  402e86:	f10a 0004 	add.w	r0, sl, #4
  402e8a:	47c0      	blx	r8
	if( pxTimer->uxAutoReload == ( UBaseType_t ) pdTRUE )
  402e8c:	f8da 301c 	ldr.w	r3, [sl, #28]
  402e90:	2b01      	cmp	r3, #1
  402e92:	d004      	beq.n	402e9e <prvTimerTask+0x7e>
	pxTimer->pxCallbackFunction( ( TimerHandle_t ) pxTimer );
  402e94:	f8da 3024 	ldr.w	r3, [sl, #36]	; 0x24
  402e98:	4650      	mov	r0, sl
  402e9a:	4798      	blx	r3
  402e9c:	e01f      	b.n	402ede <prvTimerTask+0xbe>
		if( prvInsertTimerInActiveList( pxTimer, ( xNextExpireTime + pxTimer->xTimerPeriodInTicks ), xTimeNow, xNextExpireTime ) == pdTRUE )
  402e9e:	f8da 1018 	ldr.w	r1, [sl, #24]
  402ea2:	4623      	mov	r3, r4
  402ea4:	462a      	mov	r2, r5
  402ea6:	4421      	add	r1, r4
  402ea8:	4650      	mov	r0, sl
  402eaa:	4d5a      	ldr	r5, [pc, #360]	; (403014 <prvTimerTask+0x1f4>)
  402eac:	47a8      	blx	r5
  402eae:	2801      	cmp	r0, #1
  402eb0:	d1f0      	bne.n	402e94 <prvTimerTask+0x74>
			xResult = xTimerGenericCommand( pxTimer, tmrCOMMAND_START_DONT_TRACE, xNextExpireTime, NULL, tmrNO_DELAY );
  402eb2:	2100      	movs	r1, #0
  402eb4:	9100      	str	r1, [sp, #0]
  402eb6:	460b      	mov	r3, r1
  402eb8:	4622      	mov	r2, r4
  402eba:	4650      	mov	r0, sl
  402ebc:	4c56      	ldr	r4, [pc, #344]	; (403018 <prvTimerTask+0x1f8>)
  402ebe:	47a0      	blx	r4
			configASSERT( xResult );
  402ec0:	2800      	cmp	r0, #0
  402ec2:	d1e7      	bne.n	402e94 <prvTimerTask+0x74>
  402ec4:	f04f 0380 	mov.w	r3, #128	; 0x80
  402ec8:	b672      	cpsid	i
  402eca:	f383 8811 	msr	BASEPRI, r3
  402ece:	f3bf 8f6f 	isb	sy
  402ed2:	f3bf 8f4f 	dsb	sy
  402ed6:	b662      	cpsie	i
  402ed8:	e7fe      	b.n	402ed8 <prvTimerTask+0xb8>
			( void ) xTaskResumeAll();
  402eda:	4b4d      	ldr	r3, [pc, #308]	; (403010 <prvTimerTask+0x1f0>)
  402edc:	4798      	blx	r3
	while( xQueueReceive( xTimerQueue, &xMessage, tmrNO_DELAY ) != pdFAIL ) /*lint !e603 xMessage does not have to be initialised as it is passed out, not in, and it is not used unless xQueueReceive() returns pdTRUE. */
  402ede:	4d4a      	ldr	r5, [pc, #296]	; (403008 <prvTimerTask+0x1e8>)
  402ee0:	4c4e      	ldr	r4, [pc, #312]	; (40301c <prvTimerTask+0x1fc>)
  402ee2:	e006      	b.n	402ef2 <prvTimerTask+0xd2>
				pxCallback->pxCallbackFunction( pxCallback->pvParameter1, pxCallback->ulParameter2 );
  402ee4:	9907      	ldr	r1, [sp, #28]
  402ee6:	9806      	ldr	r0, [sp, #24]
  402ee8:	9b05      	ldr	r3, [sp, #20]
  402eea:	4798      	blx	r3
		if( xMessage.xMessageID >= ( BaseType_t ) 0 )
  402eec:	9b04      	ldr	r3, [sp, #16]
  402eee:	2b00      	cmp	r3, #0
  402ef0:	da09      	bge.n	402f06 <prvTimerTask+0xe6>
	while( xQueueReceive( xTimerQueue, &xMessage, tmrNO_DELAY ) != pdFAIL ) /*lint !e603 xMessage does not have to be initialised as it is passed out, not in, and it is not used unless xQueueReceive() returns pdTRUE. */
  402ef2:	2300      	movs	r3, #0
  402ef4:	461a      	mov	r2, r3
  402ef6:	a904      	add	r1, sp, #16
  402ef8:	6828      	ldr	r0, [r5, #0]
  402efa:	47a0      	blx	r4
  402efc:	2800      	cmp	r0, #0
  402efe:	d098      	beq.n	402e32 <prvTimerTask+0x12>
			if( xMessage.xMessageID < ( BaseType_t ) 0 )
  402f00:	9b04      	ldr	r3, [sp, #16]
  402f02:	2b00      	cmp	r3, #0
  402f04:	dbee      	blt.n	402ee4 <prvTimerTask+0xc4>
			pxTimer = xMessage.u.xTimerParameters.pxTimer;
  402f06:	f8dd a018 	ldr.w	sl, [sp, #24]
			if( listIS_CONTAINED_WITHIN( NULL, &( pxTimer->xTimerListItem ) ) == pdFALSE )
  402f0a:	f8da 3014 	ldr.w	r3, [sl, #20]
  402f0e:	b113      	cbz	r3, 402f16 <prvTimerTask+0xf6>
				( void ) uxListRemove( &( pxTimer->xTimerListItem ) );
  402f10:	f10a 0004 	add.w	r0, sl, #4
  402f14:	47c0      	blx	r8
			xTimeNow = prvSampleTimeNow( &xTimerListsWereSwitched );
  402f16:	a803      	add	r0, sp, #12
  402f18:	4b3a      	ldr	r3, [pc, #232]	; (403004 <prvTimerTask+0x1e4>)
  402f1a:	4798      	blx	r3
			switch( xMessage.xMessageID )
  402f1c:	9b04      	ldr	r3, [sp, #16]
  402f1e:	2b09      	cmp	r3, #9
  402f20:	d8e7      	bhi.n	402ef2 <prvTimerTask+0xd2>
  402f22:	a201      	add	r2, pc, #4	; (adr r2, 402f28 <prvTimerTask+0x108>)
  402f24:	f852 f023 	ldr.w	pc, [r2, r3, lsl #2]
  402f28:	00402f51 	.word	0x00402f51
  402f2c:	00402f51 	.word	0x00402f51
  402f30:	00402f51 	.word	0x00402f51
  402f34:	00402ef3 	.word	0x00402ef3
  402f38:	00402fa5 	.word	0x00402fa5
  402f3c:	00402fd1 	.word	0x00402fd1
  402f40:	00402f51 	.word	0x00402f51
  402f44:	00402f51 	.word	0x00402f51
  402f48:	00402ef3 	.word	0x00402ef3
  402f4c:	00402fa5 	.word	0x00402fa5
					if( prvInsertTimerInActiveList( pxTimer,  xMessage.u.xTimerParameters.xMessageValue + pxTimer->xTimerPeriodInTicks, xTimeNow, xMessage.u.xTimerParameters.xMessageValue ) == pdTRUE )
  402f50:	9c05      	ldr	r4, [sp, #20]
  402f52:	f8da 1018 	ldr.w	r1, [sl, #24]
  402f56:	4623      	mov	r3, r4
  402f58:	4602      	mov	r2, r0
  402f5a:	4421      	add	r1, r4
  402f5c:	4650      	mov	r0, sl
  402f5e:	4c2d      	ldr	r4, [pc, #180]	; (403014 <prvTimerTask+0x1f4>)
  402f60:	47a0      	blx	r4
  402f62:	2801      	cmp	r0, #1
  402f64:	d1bc      	bne.n	402ee0 <prvTimerTask+0xc0>
						pxTimer->pxCallbackFunction( ( TimerHandle_t ) pxTimer );
  402f66:	f8da 3024 	ldr.w	r3, [sl, #36]	; 0x24
  402f6a:	4650      	mov	r0, sl
  402f6c:	4798      	blx	r3
						if( pxTimer->uxAutoReload == ( UBaseType_t ) pdTRUE )
  402f6e:	f8da 301c 	ldr.w	r3, [sl, #28]
  402f72:	2b01      	cmp	r3, #1
  402f74:	d1b4      	bne.n	402ee0 <prvTimerTask+0xc0>
							xResult = xTimerGenericCommand( pxTimer, tmrCOMMAND_START_DONT_TRACE, xMessage.u.xTimerParameters.xMessageValue + pxTimer->xTimerPeriodInTicks, NULL, tmrNO_DELAY );
  402f76:	f8da 2018 	ldr.w	r2, [sl, #24]
  402f7a:	2100      	movs	r1, #0
  402f7c:	9100      	str	r1, [sp, #0]
  402f7e:	460b      	mov	r3, r1
  402f80:	9805      	ldr	r0, [sp, #20]
  402f82:	4402      	add	r2, r0
  402f84:	4650      	mov	r0, sl
  402f86:	4c24      	ldr	r4, [pc, #144]	; (403018 <prvTimerTask+0x1f8>)
  402f88:	47a0      	blx	r4
							configASSERT( xResult );
  402f8a:	2800      	cmp	r0, #0
  402f8c:	d1a8      	bne.n	402ee0 <prvTimerTask+0xc0>
  402f8e:	f04f 0380 	mov.w	r3, #128	; 0x80
  402f92:	b672      	cpsid	i
  402f94:	f383 8811 	msr	BASEPRI, r3
  402f98:	f3bf 8f6f 	isb	sy
  402f9c:	f3bf 8f4f 	dsb	sy
  402fa0:	b662      	cpsie	i
  402fa2:	e7fe      	b.n	402fa2 <prvTimerTask+0x182>
					pxTimer->xTimerPeriodInTicks = xMessage.u.xTimerParameters.xMessageValue;
  402fa4:	9905      	ldr	r1, [sp, #20]
  402fa6:	f8ca 1018 	str.w	r1, [sl, #24]
					configASSERT( ( pxTimer->xTimerPeriodInTicks > 0 ) );
  402faa:	b131      	cbz	r1, 402fba <prvTimerTask+0x19a>
					( void ) prvInsertTimerInActiveList( pxTimer, ( xTimeNow + pxTimer->xTimerPeriodInTicks ), xTimeNow, xTimeNow );
  402fac:	4603      	mov	r3, r0
  402fae:	4602      	mov	r2, r0
  402fb0:	4401      	add	r1, r0
  402fb2:	4650      	mov	r0, sl
  402fb4:	4c17      	ldr	r4, [pc, #92]	; (403014 <prvTimerTask+0x1f4>)
  402fb6:	47a0      	blx	r4
  402fb8:	e792      	b.n	402ee0 <prvTimerTask+0xc0>
  402fba:	f04f 0380 	mov.w	r3, #128	; 0x80
  402fbe:	b672      	cpsid	i
  402fc0:	f383 8811 	msr	BASEPRI, r3
  402fc4:	f3bf 8f6f 	isb	sy
  402fc8:	f3bf 8f4f 	dsb	sy
  402fcc:	b662      	cpsie	i
  402fce:	e7fe      	b.n	402fce <prvTimerTask+0x1ae>
					vPortFree( pxTimer );
  402fd0:	4650      	mov	r0, sl
  402fd2:	4b13      	ldr	r3, [pc, #76]	; (403020 <prvTimerTask+0x200>)
  402fd4:	4798      	blx	r3
  402fd6:	e783      	b.n	402ee0 <prvTimerTask+0xc0>
	vTaskSuspendAll();
  402fd8:	47b8      	blx	r7
		xTimeNow = prvSampleTimeNow( &xTimerListsWereSwitched );
  402fda:	a804      	add	r0, sp, #16
  402fdc:	4b09      	ldr	r3, [pc, #36]	; (403004 <prvTimerTask+0x1e4>)
  402fde:	4798      	blx	r3
  402fe0:	4605      	mov	r5, r0
		if( xTimerListsWereSwitched == pdFALSE )
  402fe2:	9b04      	ldr	r3, [sp, #16]
  402fe4:	2b00      	cmp	r3, #0
  402fe6:	f47f af78 	bne.w	402eda <prvTimerTask+0xba>
					xListWasEmpty = listLIST_IS_EMPTY( pxOverflowTimerList );
  402fea:	4b0e      	ldr	r3, [pc, #56]	; (403024 <prvTimerTask+0x204>)
  402fec:	681b      	ldr	r3, [r3, #0]
  402fee:	681a      	ldr	r2, [r3, #0]
  402ff0:	fab2 f282 	clz	r2, r2
  402ff4:	0952      	lsrs	r2, r2, #5
  402ff6:	2400      	movs	r4, #0
  402ff8:	e72d      	b.n	402e56 <prvTimerTask+0x36>
  402ffa:	bf00      	nop
  402ffc:	20400d74 	.word	0x20400d74
  403000:	004023d9 	.word	0x004023d9
  403004:	00402d69 	.word	0x00402d69
  403008:	20400da8 	.word	0x20400da8
  40300c:	0040203d 	.word	0x0040203d
  403010:	00402541 	.word	0x00402541
  403014:	00402bd1 	.word	0x00402bd1
  403018:	00402cf9 	.word	0x00402cf9
  40301c:	00401e39 	.word	0x00401e39
  403020:	00401765 	.word	0x00401765
  403024:	20400d78 	.word	0x20400d78
  403028:	e000ed04 	.word	0xe000ed04
  40302c:	004013f5 	.word	0x004013f5

00403030 <but_1_callback>:

/************************************************************************/
/* handlers / callbacks                                                 */
/************************************************************************/

void but_1_callback(void) {
  403030:	b510      	push	{r4, lr}
  403032:	b082      	sub	sp, #8
	uint32_t angle = 180;
  403034:	a902      	add	r1, sp, #8
  403036:	23b4      	movs	r3, #180	; 0xb4
  403038:	f841 3d04 	str.w	r3, [r1, #-4]!
	xQueueSendFromISR(xQueueModo, &angle, 0);
  40303c:	2300      	movs	r3, #0
  40303e:	461a      	mov	r2, r3
  403040:	4802      	ldr	r0, [pc, #8]	; (40304c <but_1_callback+0x1c>)
  403042:	6800      	ldr	r0, [r0, #0]
  403044:	4c02      	ldr	r4, [pc, #8]	; (403050 <but_1_callback+0x20>)
  403046:	47a0      	blx	r4
}
  403048:	b002      	add	sp, #8
  40304a:	bd10      	pop	{r4, pc}
  40304c:	20400e30 	.word	0x20400e30
  403050:	00401c59 	.word	0x00401c59

00403054 <but_2_callback>:

void but_2_callback(void) {
  403054:	b510      	push	{r4, lr}
  403056:	b082      	sub	sp, #8
	uint32_t angle = 90;
  403058:	a902      	add	r1, sp, #8
  40305a:	235a      	movs	r3, #90	; 0x5a
  40305c:	f841 3d04 	str.w	r3, [r1, #-4]!
	xQueueSendFromISR(xQueueModo, &angle, 0);
  403060:	2300      	movs	r3, #0
  403062:	461a      	mov	r2, r3
  403064:	4802      	ldr	r0, [pc, #8]	; (403070 <but_2_callback+0x1c>)
  403066:	6800      	ldr	r0, [r0, #0]
  403068:	4c02      	ldr	r4, [pc, #8]	; (403074 <but_2_callback+0x20>)
  40306a:	47a0      	blx	r4
}
  40306c:	b002      	add	sp, #8
  40306e:	bd10      	pop	{r4, pc}
  403070:	20400e30 	.word	0x20400e30
  403074:	00401c59 	.word	0x00401c59

00403078 <but_3_callback>:

void but_3_callback(void) {
  403078:	b510      	push	{r4, lr}
  40307a:	b082      	sub	sp, #8
	uint32_t angle = 45;
  40307c:	a902      	add	r1, sp, #8
  40307e:	232d      	movs	r3, #45	; 0x2d
  403080:	f841 3d04 	str.w	r3, [r1, #-4]!
	xQueueSendFromISR(xQueueModo, &angle, 0);
  403084:	2300      	movs	r3, #0
  403086:	461a      	mov	r2, r3
  403088:	4802      	ldr	r0, [pc, #8]	; (403094 <but_3_callback+0x1c>)
  40308a:	6800      	ldr	r0, [r0, #0]
  40308c:	4c02      	ldr	r4, [pc, #8]	; (403098 <but_3_callback+0x20>)
  40308e:	47a0      	blx	r4
}
  403090:	b002      	add	sp, #8
  403092:	bd10      	pop	{r4, pc}
  403094:	20400e30 	.word	0x20400e30
  403098:	00401c59 	.word	0x00401c59

0040309c <task_motor>:
			xQueueSend(xQueueSteps, &steps, 0);
		}
	}
}

static void task_motor(void *pvParameters) {
  40309c:	e92d 4ff0 	stmdb	sp!, {r4, r5, r6, r7, r8, r9, sl, fp, lr}
  4030a0:	b083      	sub	sp, #12
	for (;;)  {
		if (xQueueReceive(xQueueSteps, &steps, (TickType_t) 0)) {
			printf("Steps: %d\n", steps);
			for (int i = 0; i < steps; i++) {
				pio_set(MOT_1_PIO, MOT_1_PIO_PIN_MASK);
				pio_clear(MOT_2_PIO, MOT_2_PIO_PIN_MASK);
  4030a2:	f8df 90e0 	ldr.w	r9, [pc, #224]	; 403184 <task_motor+0xe8>
		if (xQueueReceive(xQueueSteps, &steps, (TickType_t) 0)) {
  4030a6:	4d2e      	ldr	r5, [pc, #184]	; (403160 <task_motor+0xc4>)
  4030a8:	4c2e      	ldr	r4, [pc, #184]	; (403164 <task_motor+0xc8>)
  4030aa:	2300      	movs	r3, #0
  4030ac:	461a      	mov	r2, r3
  4030ae:	a901      	add	r1, sp, #4
  4030b0:	6828      	ldr	r0, [r5, #0]
  4030b2:	47a0      	blx	r4
  4030b4:	2800      	cmp	r0, #0
  4030b6:	d0f8      	beq.n	4030aa <task_motor+0xe>
			printf("Steps: %d\n", steps);
  4030b8:	9901      	ldr	r1, [sp, #4]
  4030ba:	482b      	ldr	r0, [pc, #172]	; (403168 <task_motor+0xcc>)
  4030bc:	4b2b      	ldr	r3, [pc, #172]	; (40316c <task_motor+0xd0>)
  4030be:	4798      	blx	r3
			for (int i = 0; i < steps; i++) {
  4030c0:	9b01      	ldr	r3, [sp, #4]
  4030c2:	2b00      	cmp	r3, #0
  4030c4:	d0ef      	beq.n	4030a6 <task_motor+0xa>
  4030c6:	f04f 0b00 	mov.w	fp, #0
				pio_set(MOT_1_PIO, MOT_1_PIO_PIN_MASK);
  4030ca:	f04f 5a80 	mov.w	sl, #268435456	; 0x10000000
				pio_clear(MOT_3_PIO, MOT_3_PIO_PIN_MASK);
  4030ce:	f44f 2500 	mov.w	r5, #524288	; 0x80000
				pio_set(MOT_1_PIO, MOT_1_PIO_PIN_MASK);
  4030d2:	4651      	mov	r1, sl
  4030d4:	4826      	ldr	r0, [pc, #152]	; (403170 <task_motor+0xd4>)
  4030d6:	f8df 80b0 	ldr.w	r8, [pc, #176]	; 403188 <task_motor+0xec>
  4030da:	47c0      	blx	r8
				pio_clear(MOT_2_PIO, MOT_2_PIO_PIN_MASK);
  4030dc:	f04f 4100 	mov.w	r1, #2147483648	; 0x80000000
  4030e0:	4648      	mov	r0, r9
  4030e2:	4c24      	ldr	r4, [pc, #144]	; (403174 <task_motor+0xd8>)
  4030e4:	47a0      	blx	r4
				pio_clear(MOT_3_PIO, MOT_3_PIO_PIN_MASK);
  4030e6:	4629      	mov	r1, r5
  4030e8:	4823      	ldr	r0, [pc, #140]	; (403178 <task_motor+0xdc>)
  4030ea:	47a0      	blx	r4
				pio_clear(MOT_4_PIO, MOT_4_PIO_PIN_MASK);
  4030ec:	4629      	mov	r1, r5
  4030ee:	4648      	mov	r0, r9
  4030f0:	47a0      	blx	r4
				
				delay_ms(5);
  4030f2:	4f22      	ldr	r7, [pc, #136]	; (40317c <task_motor+0xe0>)
  4030f4:	4638      	mov	r0, r7
  4030f6:	4e22      	ldr	r6, [pc, #136]	; (403180 <task_motor+0xe4>)
  4030f8:	47b0      	blx	r6
				
				pio_set(MOT_2_PIO, MOT_2_PIO_PIN_MASK);
  4030fa:	f04f 4100 	mov.w	r1, #2147483648	; 0x80000000
  4030fe:	4648      	mov	r0, r9
  403100:	47c0      	blx	r8
				pio_clear(MOT_1_PIO, MOT_1_PIO_PIN_MASK);
  403102:	4651      	mov	r1, sl
  403104:	481a      	ldr	r0, [pc, #104]	; (403170 <task_motor+0xd4>)
  403106:	47a0      	blx	r4
				pio_clear(MOT_3_PIO, MOT_3_PIO_PIN_MASK);
  403108:	4629      	mov	r1, r5
  40310a:	481b      	ldr	r0, [pc, #108]	; (403178 <task_motor+0xdc>)
  40310c:	47a0      	blx	r4
				pio_clear(MOT_4_PIO, MOT_4_PIO_PIN_MASK);
  40310e:	4629      	mov	r1, r5
  403110:	4648      	mov	r0, r9
  403112:	47a0      	blx	r4
				
				delay_ms(5);
  403114:	4638      	mov	r0, r7
  403116:	47b0      	blx	r6
				
				pio_set(MOT_3_PIO, MOT_3_PIO_PIN_MASK);
  403118:	4629      	mov	r1, r5
  40311a:	4817      	ldr	r0, [pc, #92]	; (403178 <task_motor+0xdc>)
  40311c:	47c0      	blx	r8
				pio_clear(MOT_2_PIO, MOT_2_PIO_PIN_MASK);
  40311e:	f04f 4100 	mov.w	r1, #2147483648	; 0x80000000
  403122:	4648      	mov	r0, r9
  403124:	47a0      	blx	r4
				pio_clear(MOT_1_PIO, MOT_1_PIO_PIN_MASK);
  403126:	4651      	mov	r1, sl
  403128:	4811      	ldr	r0, [pc, #68]	; (403170 <task_motor+0xd4>)
  40312a:	47a0      	blx	r4
				pio_clear(MOT_4_PIO, MOT_4_PIO_PIN_MASK);
  40312c:	4629      	mov	r1, r5
  40312e:	4648      	mov	r0, r9
  403130:	47a0      	blx	r4
				
				delay_ms(5);
  403132:	4638      	mov	r0, r7
  403134:	47b0      	blx	r6
				
				pio_set(MOT_4_PIO, MOT_4_PIO_PIN_MASK);
  403136:	4629      	mov	r1, r5
  403138:	4648      	mov	r0, r9
  40313a:	47c0      	blx	r8
				pio_clear(MOT_2_PIO, MOT_2_PIO_PIN_MASK);
  40313c:	f04f 4100 	mov.w	r1, #2147483648	; 0x80000000
  403140:	4648      	mov	r0, r9
  403142:	47a0      	blx	r4
				pio_clear(MOT_3_PIO, MOT_3_PIO_PIN_MASK);
  403144:	4629      	mov	r1, r5
  403146:	480c      	ldr	r0, [pc, #48]	; (403178 <task_motor+0xdc>)
  403148:	47a0      	blx	r4
				pio_clear(MOT_1_PIO, MOT_1_PIO_PIN_MASK);
  40314a:	4651      	mov	r1, sl
  40314c:	4808      	ldr	r0, [pc, #32]	; (403170 <task_motor+0xd4>)
  40314e:	47a0      	blx	r4
				
				delay_ms(5);
  403150:	4638      	mov	r0, r7
  403152:	47b0      	blx	r6
			for (int i = 0; i < steps; i++) {
  403154:	f10b 0b01 	add.w	fp, fp, #1
  403158:	9b01      	ldr	r3, [sp, #4]
  40315a:	459b      	cmp	fp, r3
  40315c:	d3b9      	bcc.n	4030d2 <task_motor+0x36>
  40315e:	e7a2      	b.n	4030a6 <task_motor+0xa>
  403160:	20400e34 	.word	0x20400e34
  403164:	00401e39 	.word	0x00401e39
  403168:	00409f10 	.word	0x00409f10
  40316c:	0040376d 	.word	0x0040376d
  403170:	400e1400 	.word	0x400e1400
  403174:	00400b47 	.word	0x00400b47
  403178:	400e1200 	.word	0x400e1200
  40317c:	0003dbc2 	.word	0x0003dbc2
  403180:	20400001 	.word	0x20400001
  403184:	400e0e00 	.word	0x400e0e00
  403188:	00400b43 	.word	0x00400b43

0040318c <task_modo>:
static void task_modo(void *pvParameters) {
  40318c:	e92d 41f0 	stmdb	sp!, {r4, r5, r6, r7, r8, lr}
  403190:	ed2d 8b02 	vpush	{d8}
  403194:	b082      	sub	sp, #8
	gfx_mono_ssd1306_init();
  403196:	4b1d      	ldr	r3, [pc, #116]	; (40320c <task_modo+0x80>)
  403198:	4798      	blx	r3
	gfx_mono_draw_string("Motor de passos", 0, 0, &sysfont);
  40319a:	4b1d      	ldr	r3, [pc, #116]	; (403210 <task_modo+0x84>)
  40319c:	2200      	movs	r2, #0
  40319e:	4611      	mov	r1, r2
  4031a0:	481c      	ldr	r0, [pc, #112]	; (403214 <task_modo+0x88>)
  4031a2:	4c1d      	ldr	r4, [pc, #116]	; (403218 <task_modo+0x8c>)
  4031a4:	47a0      	blx	r4
		if (xQueueReceive(xQueueModo, &angle, (TickType_t) 0)) {
  4031a6:	4e1d      	ldr	r6, [pc, #116]	; (40321c <task_modo+0x90>)
  4031a8:	2400      	movs	r4, #0
			steps = angle / angle_step;
  4031aa:	ed9f 8a1d 	vldr	s16, [pc, #116]	; 403220 <task_modo+0x94>
		if (xQueueReceive(xQueueModo, &angle, (TickType_t) 0)) {
  4031ae:	4d1d      	ldr	r5, [pc, #116]	; (403224 <task_modo+0x98>)
  4031b0:	4623      	mov	r3, r4
  4031b2:	4622      	mov	r2, r4
  4031b4:	a901      	add	r1, sp, #4
  4031b6:	6830      	ldr	r0, [r6, #0]
  4031b8:	47a8      	blx	r5
  4031ba:	2800      	cmp	r0, #0
  4031bc:	d0f8      	beq.n	4031b0 <task_modo+0x24>
			gfx_mono_draw_string("                 ", 0, 0, &sysfont);
  4031be:	f8df 8050 	ldr.w	r8, [pc, #80]	; 403210 <task_modo+0x84>
  4031c2:	4643      	mov	r3, r8
  4031c4:	4622      	mov	r2, r4
  4031c6:	4621      	mov	r1, r4
  4031c8:	4817      	ldr	r0, [pc, #92]	; (403228 <task_modo+0x9c>)
  4031ca:	4d13      	ldr	r5, [pc, #76]	; (403218 <task_modo+0x8c>)
  4031cc:	47a8      	blx	r5
			sprintf(str, "%d degrees", angle);
  4031ce:	9a01      	ldr	r2, [sp, #4]
  4031d0:	4916      	ldr	r1, [pc, #88]	; (40322c <task_modo+0xa0>)
  4031d2:	2700      	movs	r7, #0
  4031d4:	4638      	mov	r0, r7
  4031d6:	4b16      	ldr	r3, [pc, #88]	; (403230 <task_modo+0xa4>)
  4031d8:	4798      	blx	r3
			gfx_mono_draw_string(str, 0, 0, &sysfont);
  4031da:	4643      	mov	r3, r8
  4031dc:	4622      	mov	r2, r4
  4031de:	4621      	mov	r1, r4
  4031e0:	4638      	mov	r0, r7
  4031e2:	47a8      	blx	r5
			steps = angle / angle_step;
  4031e4:	eddd 7a01 	vldr	s15, [sp, #4]
  4031e8:	eeb8 7a67 	vcvt.f32.u32	s14, s15
  4031ec:	eec7 7a08 	vdiv.f32	s15, s14, s16
  4031f0:	eefc 7ae7 	vcvt.u32.f32	s15, s15
  4031f4:	a902      	add	r1, sp, #8
  4031f6:	ee17 3a90 	vmov	r3, s15
  4031fa:	f841 3d08 	str.w	r3, [r1, #-8]!
			xQueueSend(xQueueSteps, &steps, 0);
  4031fe:	4623      	mov	r3, r4
  403200:	4622      	mov	r2, r4
  403202:	480c      	ldr	r0, [pc, #48]	; (403234 <task_modo+0xa8>)
  403204:	6800      	ldr	r0, [r0, #0]
  403206:	4d0c      	ldr	r5, [pc, #48]	; (403238 <task_modo+0xac>)
  403208:	47a8      	blx	r5
  40320a:	e7d0      	b.n	4031ae <task_modo+0x22>
  40320c:	00400575 	.word	0x00400575
  403210:	2040000c 	.word	0x2040000c
  403214:	00409ee0 	.word	0x00409ee0
  403218:	004004dd 	.word	0x004004dd
  40321c:	20400e30 	.word	0x20400e30
  403220:	3e340000 	.word	0x3e340000
  403224:	00401e39 	.word	0x00401e39
  403228:	00409ef0 	.word	0x00409ef0
  40322c:	00409f04 	.word	0x00409f04
  403230:	004040c1 	.word	0x004040c1
  403234:	20400e34 	.word	0x20400e34
  403238:	00401a75 	.word	0x00401a75

0040323c <usart_serial_getchar>:
 * \param p_usart   Base address of the USART instance.
 * \param data   Data to read
 *
 */
static inline void usart_serial_getchar(usart_if p_usart, uint8_t *data)
{
  40323c:	b5f0      	push	{r4, r5, r6, r7, lr}
  40323e:	b083      	sub	sp, #12
  403240:	4605      	mov	r5, r0
  403242:	460c      	mov	r4, r1
	uint32_t val = 0;
  403244:	2300      	movs	r3, #0
  403246:	9301      	str	r3, [sp, #4]
	if (UART == (Uart*)p_usart) {
		while (uart_read((Uart*)p_usart, data));
	}
#else
# ifdef UART0
	if (UART0 == (Uart*)p_usart) {
  403248:	4b2a      	ldr	r3, [pc, #168]	; (4032f4 <usart_serial_getchar+0xb8>)
  40324a:	4298      	cmp	r0, r3
  40324c:	d013      	beq.n	403276 <usart_serial_getchar+0x3a>
		while (uart_read((Uart*)p_usart, data));
	}
# endif
# ifdef UART1
	if (UART1 == (Uart*)p_usart) {
  40324e:	4b2a      	ldr	r3, [pc, #168]	; (4032f8 <usart_serial_getchar+0xbc>)
  403250:	4298      	cmp	r0, r3
  403252:	d018      	beq.n	403286 <usart_serial_getchar+0x4a>
		while (uart_read((Uart*)p_usart, data));
	}
# endif
# ifdef UART2
	if (UART2 == (Uart*)p_usart) {
  403254:	4b29      	ldr	r3, [pc, #164]	; (4032fc <usart_serial_getchar+0xc0>)
  403256:	4298      	cmp	r0, r3
  403258:	d01d      	beq.n	403296 <usart_serial_getchar+0x5a>
		while (uart_read((Uart*)p_usart, data));
	}
# endif
# ifdef UART3
	if (UART3 == (Uart*)p_usart) {
  40325a:	4b29      	ldr	r3, [pc, #164]	; (403300 <usart_serial_getchar+0xc4>)
  40325c:	429d      	cmp	r5, r3
  40325e:	d022      	beq.n	4032a6 <usart_serial_getchar+0x6a>
		while (usart_read(p_usart, &val));
		*data = (uint8_t)(val & 0xFF);
	}
#else
# ifdef USART0
	if (USART0 == p_usart) {
  403260:	4b28      	ldr	r3, [pc, #160]	; (403304 <usart_serial_getchar+0xc8>)
  403262:	429d      	cmp	r5, r3
  403264:	d027      	beq.n	4032b6 <usart_serial_getchar+0x7a>
		while (usart_read(p_usart, &val));
		*data = (uint8_t)(val & 0xFF);
	}
# endif
# ifdef USART1
	if (USART1 == p_usart) {
  403266:	4b28      	ldr	r3, [pc, #160]	; (403308 <usart_serial_getchar+0xcc>)
  403268:	429d      	cmp	r5, r3
  40326a:	d02e      	beq.n	4032ca <usart_serial_getchar+0x8e>
		while (usart_read(p_usart, &val));
		*data = (uint8_t)(val & 0xFF);
	}
# endif
# ifdef USART2
	if (USART2 == p_usart) {
  40326c:	4b27      	ldr	r3, [pc, #156]	; (40330c <usart_serial_getchar+0xd0>)
  40326e:	429d      	cmp	r5, r3
  403270:	d035      	beq.n	4032de <usart_serial_getchar+0xa2>
		*data = (uint8_t)(val & 0xFF);
	}
# endif
#endif /* ifdef USART */

}
  403272:	b003      	add	sp, #12
  403274:	bdf0      	pop	{r4, r5, r6, r7, pc}
		while (uart_read((Uart*)p_usart, data));
  403276:	461f      	mov	r7, r3
  403278:	4e25      	ldr	r6, [pc, #148]	; (403310 <usart_serial_getchar+0xd4>)
  40327a:	4621      	mov	r1, r4
  40327c:	4638      	mov	r0, r7
  40327e:	47b0      	blx	r6
  403280:	2800      	cmp	r0, #0
  403282:	d1fa      	bne.n	40327a <usart_serial_getchar+0x3e>
  403284:	e7e9      	b.n	40325a <usart_serial_getchar+0x1e>
		while (uart_read((Uart*)p_usart, data));
  403286:	461f      	mov	r7, r3
  403288:	4e21      	ldr	r6, [pc, #132]	; (403310 <usart_serial_getchar+0xd4>)
  40328a:	4621      	mov	r1, r4
  40328c:	4638      	mov	r0, r7
  40328e:	47b0      	blx	r6
  403290:	2800      	cmp	r0, #0
  403292:	d1fa      	bne.n	40328a <usart_serial_getchar+0x4e>
  403294:	e7e4      	b.n	403260 <usart_serial_getchar+0x24>
		while (uart_read((Uart*)p_usart, data));
  403296:	461f      	mov	r7, r3
  403298:	4e1d      	ldr	r6, [pc, #116]	; (403310 <usart_serial_getchar+0xd4>)
  40329a:	4621      	mov	r1, r4
  40329c:	4638      	mov	r0, r7
  40329e:	47b0      	blx	r6
  4032a0:	2800      	cmp	r0, #0
  4032a2:	d1fa      	bne.n	40329a <usart_serial_getchar+0x5e>
  4032a4:	e7df      	b.n	403266 <usart_serial_getchar+0x2a>
		while (uart_read((Uart*)p_usart, data));
  4032a6:	461f      	mov	r7, r3
  4032a8:	4e19      	ldr	r6, [pc, #100]	; (403310 <usart_serial_getchar+0xd4>)
  4032aa:	4621      	mov	r1, r4
  4032ac:	4638      	mov	r0, r7
  4032ae:	47b0      	blx	r6
  4032b0:	2800      	cmp	r0, #0
  4032b2:	d1fa      	bne.n	4032aa <usart_serial_getchar+0x6e>
  4032b4:	e7da      	b.n	40326c <usart_serial_getchar+0x30>
		while (usart_read(p_usart, &val));
  4032b6:	461e      	mov	r6, r3
  4032b8:	4d16      	ldr	r5, [pc, #88]	; (403314 <usart_serial_getchar+0xd8>)
  4032ba:	a901      	add	r1, sp, #4
  4032bc:	4630      	mov	r0, r6
  4032be:	47a8      	blx	r5
  4032c0:	2800      	cmp	r0, #0
  4032c2:	d1fa      	bne.n	4032ba <usart_serial_getchar+0x7e>
		*data = (uint8_t)(val & 0xFF);
  4032c4:	9b01      	ldr	r3, [sp, #4]
  4032c6:	7023      	strb	r3, [r4, #0]
  4032c8:	e7d3      	b.n	403272 <usart_serial_getchar+0x36>
		while (usart_read(p_usart, &val));
  4032ca:	461e      	mov	r6, r3
  4032cc:	4d11      	ldr	r5, [pc, #68]	; (403314 <usart_serial_getchar+0xd8>)
  4032ce:	a901      	add	r1, sp, #4
  4032d0:	4630      	mov	r0, r6
  4032d2:	47a8      	blx	r5
  4032d4:	2800      	cmp	r0, #0
  4032d6:	d1fa      	bne.n	4032ce <usart_serial_getchar+0x92>
		*data = (uint8_t)(val & 0xFF);
  4032d8:	9b01      	ldr	r3, [sp, #4]
  4032da:	7023      	strb	r3, [r4, #0]
  4032dc:	e7c9      	b.n	403272 <usart_serial_getchar+0x36>
		while (usart_read(p_usart, &val));
  4032de:	461e      	mov	r6, r3
  4032e0:	4d0c      	ldr	r5, [pc, #48]	; (403314 <usart_serial_getchar+0xd8>)
  4032e2:	a901      	add	r1, sp, #4
  4032e4:	4630      	mov	r0, r6
  4032e6:	47a8      	blx	r5
  4032e8:	2800      	cmp	r0, #0
  4032ea:	d1fa      	bne.n	4032e2 <usart_serial_getchar+0xa6>
		*data = (uint8_t)(val & 0xFF);
  4032ec:	9b01      	ldr	r3, [sp, #4]
  4032ee:	7023      	strb	r3, [r4, #0]
}
  4032f0:	e7bf      	b.n	403272 <usart_serial_getchar+0x36>
  4032f2:	bf00      	nop
  4032f4:	400e0800 	.word	0x400e0800
  4032f8:	400e0a00 	.word	0x400e0a00
  4032fc:	400e1a00 	.word	0x400e1a00
  403300:	400e1c00 	.word	0x400e1c00
  403304:	40024000 	.word	0x40024000
  403308:	40028000 	.word	0x40028000
  40330c:	4002c000 	.word	0x4002c000
  403310:	00400fb7 	.word	0x00400fb7
  403314:	004010c3 	.word	0x004010c3

00403318 <usart_serial_putchar>:
{
  403318:	b570      	push	{r4, r5, r6, lr}
  40331a:	460c      	mov	r4, r1
	if (UART0 == (Uart*)p_usart) {
  40331c:	4b2a      	ldr	r3, [pc, #168]	; (4033c8 <usart_serial_putchar+0xb0>)
  40331e:	4298      	cmp	r0, r3
  403320:	d013      	beq.n	40334a <usart_serial_putchar+0x32>
	if (UART1 == (Uart*)p_usart) {
  403322:	4b2a      	ldr	r3, [pc, #168]	; (4033cc <usart_serial_putchar+0xb4>)
  403324:	4298      	cmp	r0, r3
  403326:	d019      	beq.n	40335c <usart_serial_putchar+0x44>
	if (UART2 == (Uart*)p_usart) {
  403328:	4b29      	ldr	r3, [pc, #164]	; (4033d0 <usart_serial_putchar+0xb8>)
  40332a:	4298      	cmp	r0, r3
  40332c:	d01f      	beq.n	40336e <usart_serial_putchar+0x56>
	if (UART3 == (Uart*)p_usart) {
  40332e:	4b29      	ldr	r3, [pc, #164]	; (4033d4 <usart_serial_putchar+0xbc>)
  403330:	4298      	cmp	r0, r3
  403332:	d025      	beq.n	403380 <usart_serial_putchar+0x68>
	if (USART0 == p_usart) {
  403334:	4b28      	ldr	r3, [pc, #160]	; (4033d8 <usart_serial_putchar+0xc0>)
  403336:	4298      	cmp	r0, r3
  403338:	d02b      	beq.n	403392 <usart_serial_putchar+0x7a>
	if (USART1 == p_usart) {
  40333a:	4b28      	ldr	r3, [pc, #160]	; (4033dc <usart_serial_putchar+0xc4>)
  40333c:	4298      	cmp	r0, r3
  40333e:	d031      	beq.n	4033a4 <usart_serial_putchar+0x8c>
	if (USART2 == p_usart) {
  403340:	4b27      	ldr	r3, [pc, #156]	; (4033e0 <usart_serial_putchar+0xc8>)
  403342:	4298      	cmp	r0, r3
  403344:	d037      	beq.n	4033b6 <usart_serial_putchar+0x9e>
	return 0;
  403346:	2000      	movs	r0, #0
}
  403348:	bd70      	pop	{r4, r5, r6, pc}
		while (uart_write((Uart*)p_usart, c)!=0);
  40334a:	461e      	mov	r6, r3
  40334c:	4d25      	ldr	r5, [pc, #148]	; (4033e4 <usart_serial_putchar+0xcc>)
  40334e:	4621      	mov	r1, r4
  403350:	4630      	mov	r0, r6
  403352:	47a8      	blx	r5
  403354:	2800      	cmp	r0, #0
  403356:	d1fa      	bne.n	40334e <usart_serial_putchar+0x36>
		return 1;
  403358:	2001      	movs	r0, #1
  40335a:	bd70      	pop	{r4, r5, r6, pc}
		while (uart_write((Uart*)p_usart, c)!=0);
  40335c:	461e      	mov	r6, r3
  40335e:	4d21      	ldr	r5, [pc, #132]	; (4033e4 <usart_serial_putchar+0xcc>)
  403360:	4621      	mov	r1, r4
  403362:	4630      	mov	r0, r6
  403364:	47a8      	blx	r5
  403366:	2800      	cmp	r0, #0
  403368:	d1fa      	bne.n	403360 <usart_serial_putchar+0x48>
		return 1;
  40336a:	2001      	movs	r0, #1
  40336c:	bd70      	pop	{r4, r5, r6, pc}
		while (uart_write((Uart*)p_usart, c)!=0);
  40336e:	461e      	mov	r6, r3
  403370:	4d1c      	ldr	r5, [pc, #112]	; (4033e4 <usart_serial_putchar+0xcc>)
  403372:	4621      	mov	r1, r4
  403374:	4630      	mov	r0, r6
  403376:	47a8      	blx	r5
  403378:	2800      	cmp	r0, #0
  40337a:	d1fa      	bne.n	403372 <usart_serial_putchar+0x5a>
		return 1;
  40337c:	2001      	movs	r0, #1
  40337e:	bd70      	pop	{r4, r5, r6, pc}
		while (uart_write((Uart*)p_usart, c)!=0);
  403380:	461e      	mov	r6, r3
  403382:	4d18      	ldr	r5, [pc, #96]	; (4033e4 <usart_serial_putchar+0xcc>)
  403384:	4621      	mov	r1, r4
  403386:	4630      	mov	r0, r6
  403388:	47a8      	blx	r5
  40338a:	2800      	cmp	r0, #0
  40338c:	d1fa      	bne.n	403384 <usart_serial_putchar+0x6c>
		return 1;
  40338e:	2001      	movs	r0, #1
  403390:	bd70      	pop	{r4, r5, r6, pc}
		while (usart_write(p_usart, c)!=0);
  403392:	461e      	mov	r6, r3
  403394:	4d14      	ldr	r5, [pc, #80]	; (4033e8 <usart_serial_putchar+0xd0>)
  403396:	4621      	mov	r1, r4
  403398:	4630      	mov	r0, r6
  40339a:	47a8      	blx	r5
  40339c:	2800      	cmp	r0, #0
  40339e:	d1fa      	bne.n	403396 <usart_serial_putchar+0x7e>
		return 1;
  4033a0:	2001      	movs	r0, #1
  4033a2:	bd70      	pop	{r4, r5, r6, pc}
		while (usart_write(p_usart, c)!=0);
  4033a4:	461e      	mov	r6, r3
  4033a6:	4d10      	ldr	r5, [pc, #64]	; (4033e8 <usart_serial_putchar+0xd0>)
  4033a8:	4621      	mov	r1, r4
  4033aa:	4630      	mov	r0, r6
  4033ac:	47a8      	blx	r5
  4033ae:	2800      	cmp	r0, #0
  4033b0:	d1fa      	bne.n	4033a8 <usart_serial_putchar+0x90>
		return 1;
  4033b2:	2001      	movs	r0, #1
  4033b4:	bd70      	pop	{r4, r5, r6, pc}
		while (usart_write(p_usart, c)!=0);
  4033b6:	461e      	mov	r6, r3
  4033b8:	4d0b      	ldr	r5, [pc, #44]	; (4033e8 <usart_serial_putchar+0xd0>)
  4033ba:	4621      	mov	r1, r4
  4033bc:	4630      	mov	r0, r6
  4033be:	47a8      	blx	r5
  4033c0:	2800      	cmp	r0, #0
  4033c2:	d1fa      	bne.n	4033ba <usart_serial_putchar+0xa2>
		return 1;
  4033c4:	2001      	movs	r0, #1
  4033c6:	bd70      	pop	{r4, r5, r6, pc}
  4033c8:	400e0800 	.word	0x400e0800
  4033cc:	400e0a00 	.word	0x400e0a00
  4033d0:	400e1a00 	.word	0x400e1a00
  4033d4:	400e1c00 	.word	0x400e1c00
  4033d8:	40024000 	.word	0x40024000
  4033dc:	40028000 	.word	0x40028000
  4033e0:	4002c000 	.word	0x4002c000
  4033e4:	00400fa5 	.word	0x00400fa5
  4033e8:	004010ad 	.word	0x004010ad

004033ec <vApplicationStackOverflowHook>:
extern void vApplicationStackOverflowHook(xTaskHandle *pxTask, signed char *pcTaskName) {
  4033ec:	b508      	push	{r3, lr}
	printf("stack overflow %x %s\r\n", pxTask, (portCHAR *)pcTaskName);
  4033ee:	460a      	mov	r2, r1
  4033f0:	4601      	mov	r1, r0
  4033f2:	4802      	ldr	r0, [pc, #8]	; (4033fc <vApplicationStackOverflowHook+0x10>)
  4033f4:	4b02      	ldr	r3, [pc, #8]	; (403400 <vApplicationStackOverflowHook+0x14>)
  4033f6:	4798      	blx	r3
  4033f8:	e7fe      	b.n	4033f8 <vApplicationStackOverflowHook+0xc>
  4033fa:	bf00      	nop
  4033fc:	00409f1c 	.word	0x00409f1c
  403400:	0040376d 	.word	0x0040376d

00403404 <vApplicationTickHook>:
extern void vApplicationTickHook(void) { }
  403404:	4770      	bx	lr

00403406 <vApplicationMallocFailedHook>:
  403406:	f04f 0380 	mov.w	r3, #128	; 0x80
  40340a:	b672      	cpsid	i
  40340c:	f383 8811 	msr	BASEPRI, r3
  403410:	f3bf 8f6f 	isb	sy
  403414:	f3bf 8f4f 	dsb	sy
  403418:	b662      	cpsie	i
  40341a:	e7fe      	b.n	40341a <vApplicationMallocFailedHook+0x14>

0040341c <RTT_Handler>:
void RTT_Handler(void) {
  40341c:	b500      	push	{lr}
  40341e:	b083      	sub	sp, #12
	ul_status = rtt_get_status(RTT);
  403420:	4808      	ldr	r0, [pc, #32]	; (403444 <RTT_Handler+0x28>)
  403422:	4b09      	ldr	r3, [pc, #36]	; (403448 <RTT_Handler+0x2c>)
  403424:	4798      	blx	r3
	if ((ul_status & RTT_SR_ALMS) == RTT_SR_ALMS) {
  403426:	f010 0f01 	tst.w	r0, #1
  40342a:	d102      	bne.n	403432 <RTT_Handler+0x16>
}
  40342c:	b003      	add	sp, #12
  40342e:	f85d fb04 	ldr.w	pc, [sp], #4
		BaseType_t xHigherPriorityTaskWoken = pdFALSE;
  403432:	a902      	add	r1, sp, #8
  403434:	2300      	movs	r3, #0
  403436:	f841 3d04 	str.w	r3, [r1, #-4]!
		xSemaphoreGiveFromISR(xSemaphoreRTT, &xHigherPriorityTaskWoken);
  40343a:	4b04      	ldr	r3, [pc, #16]	; (40344c <RTT_Handler+0x30>)
  40343c:	6818      	ldr	r0, [r3, #0]
  40343e:	4b04      	ldr	r3, [pc, #16]	; (403450 <RTT_Handler+0x34>)
  403440:	4798      	blx	r3
}
  403442:	e7f3      	b.n	40342c <RTT_Handler+0x10>
  403444:	400e1830 	.word	0x400e1830
  403448:	004001ad 	.word	0x004001ad
  40344c:	20400e2c 	.word	0x20400e2c
  403450:	00401d59 	.word	0x00401d59

00403454 <main>:

/************************************************************************/
/* main                                                                 */
/************************************************************************/

int main(void) {
  403454:	e92d 4880 	stmdb	sp!, {r7, fp, lr}
  403458:	b08b      	sub	sp, #44	; 0x2c
	/* Initialize the SAM system */
	sysclk_init();
  40345a:	4b86      	ldr	r3, [pc, #536]	; (403674 <main+0x220>)
  40345c:	4798      	blx	r3
	board_init();
  40345e:	4b86      	ldr	r3, [pc, #536]	; (403678 <main+0x224>)
  403460:	4798      	blx	r3
	pmc_enable_periph_clk(MOT_1_PIO_ID);
  403462:	2010      	movs	r0, #16
  403464:	4c85      	ldr	r4, [pc, #532]	; (40367c <main+0x228>)
  403466:	47a0      	blx	r4
	pio_configure(MOT_1_PIO, PIO_OUTPUT_0, MOT_1_PIO_PIN_MASK, PIO_DEFAULT);
  403468:	f8df 82a0 	ldr.w	r8, [pc, #672]	; 40370c <main+0x2b8>
  40346c:	2300      	movs	r3, #0
  40346e:	f04f 5280 	mov.w	r2, #268435456	; 0x10000000
  403472:	f04f 5140 	mov.w	r1, #805306368	; 0x30000000
  403476:	4640      	mov	r0, r8
  403478:	4d81      	ldr	r5, [pc, #516]	; (403680 <main+0x22c>)
  40347a:	47a8      	blx	r5
	pmc_enable_periph_clk(MOT_2_PIO_ID);
  40347c:	200a      	movs	r0, #10
  40347e:	47a0      	blx	r4
	pio_configure(MOT_2_PIO, PIO_OUTPUT_0, MOT_2_PIO_PIN_MASK, PIO_DEFAULT);
  403480:	4e80      	ldr	r6, [pc, #512]	; (403684 <main+0x230>)
  403482:	2300      	movs	r3, #0
  403484:	f04f 4200 	mov.w	r2, #2147483648	; 0x80000000
  403488:	f04f 5140 	mov.w	r1, #805306368	; 0x30000000
  40348c:	4630      	mov	r0, r6
  40348e:	47a8      	blx	r5
	pmc_enable_periph_clk(MOT_3_PIO_ID);
  403490:	200c      	movs	r0, #12
  403492:	47a0      	blx	r4
	pio_configure(MOT_3_PIO, PIO_OUTPUT_0, MOT_3_PIO_PIN_MASK, PIO_DEFAULT);
  403494:	2300      	movs	r3, #0
  403496:	f44f 2200 	mov.w	r2, #524288	; 0x80000
  40349a:	f04f 5140 	mov.w	r1, #805306368	; 0x30000000
  40349e:	487a      	ldr	r0, [pc, #488]	; (403688 <main+0x234>)
  4034a0:	47a8      	blx	r5
	pmc_enable_periph_clk(MOT_4_PIO_ID);
  4034a2:	200a      	movs	r0, #10
  4034a4:	47a0      	blx	r4
	pio_configure(MOT_4_PIO, PIO_OUTPUT_0, MOT_4_PIO_PIN_MASK, PIO_DEFAULT);
  4034a6:	2300      	movs	r3, #0
  4034a8:	f44f 2200 	mov.w	r2, #524288	; 0x80000
  4034ac:	f04f 5140 	mov.w	r1, #805306368	; 0x30000000
  4034b0:	4630      	mov	r0, r6
  4034b2:	47a8      	blx	r5
	pmc_enable_periph_clk(BUT_1_PIO_ID);
  4034b4:	2010      	movs	r0, #16
  4034b6:	47a0      	blx	r4
  NVIC->ISER[(uint32_t)((int32_t)IRQn) >> 5] = (uint32_t)(1 << ((uint32_t)((int32_t)IRQn) & (uint32_t)0x1F)); /* enable interrupt */
  4034b8:	4f74      	ldr	r7, [pc, #464]	; (40368c <main+0x238>)
  4034ba:	f44f 3380 	mov.w	r3, #65536	; 0x10000
  4034be:	603b      	str	r3, [r7, #0]
    NVIC->IP[(uint32_t)(IRQn)]            = ((priority << (8 - __NVIC_PRIO_BITS)) & 0xff); } /* set Priority for device specific Interrupts  */
  4034c0:	f04f 0b80 	mov.w	fp, #128	; 0x80
  4034c4:	f887 b310 	strb.w	fp, [r7, #784]	; 0x310
	pio_configure(BUT_1_PIO, PIO_INPUT, BUT_1_PIO_PIN_MASK, PIO_PULLUP | PIO_DEBOUNCE);
  4034c8:	2309      	movs	r3, #9
  4034ca:	f04f 5280 	mov.w	r2, #268435456	; 0x10000000
  4034ce:	f04f 5120 	mov.w	r1, #671088640	; 0x28000000
  4034d2:	4640      	mov	r0, r8
  4034d4:	47a8      	blx	r5
	pio_set_debounce_filter(BUT_1_PIO, BUT_1_PIO_PIN_MASK, 60);
  4034d6:	223c      	movs	r2, #60	; 0x3c
  4034d8:	f04f 5180 	mov.w	r1, #268435456	; 0x10000000
  4034dc:	4640      	mov	r0, r8
  4034de:	f8df a230 	ldr.w	sl, [pc, #560]	; 403710 <main+0x2bc>
  4034e2:	47d0      	blx	sl
	pio_enable_interrupt(BUT_1_PIO, BUT_1_PIO_PIN_MASK);
  4034e4:	f04f 5180 	mov.w	r1, #268435456	; 0x10000000
  4034e8:	4640      	mov	r0, r8
  4034ea:	f8df 9228 	ldr.w	r9, [pc, #552]	; 403714 <main+0x2c0>
  4034ee:	47c8      	blx	r9
	pio_handler_set(BUT_1_PIO, BUT_1_PIO_ID, BUT_1_PIO_PIN_MASK, PIO_IT_FALL_EDGE , &but_1_callback);
  4034f0:	4b67      	ldr	r3, [pc, #412]	; (403690 <main+0x23c>)
  4034f2:	9300      	str	r3, [sp, #0]
  4034f4:	2350      	movs	r3, #80	; 0x50
  4034f6:	f04f 5280 	mov.w	r2, #268435456	; 0x10000000
  4034fa:	2110      	movs	r1, #16
  4034fc:	4640      	mov	r0, r8
  4034fe:	f8df 8218 	ldr.w	r8, [pc, #536]	; 403718 <main+0x2c4>
  403502:	47c0      	blx	r8
	pmc_enable_periph_clk(BUT_2_PIO_ID);
  403504:	200c      	movs	r0, #12
  403506:	47a0      	blx	r4
  NVIC->ISER[(uint32_t)((int32_t)IRQn) >> 5] = (uint32_t)(1 << ((uint32_t)((int32_t)IRQn) & (uint32_t)0x1F)); /* enable interrupt */
  403508:	f44f 5380 	mov.w	r3, #4096	; 0x1000
  40350c:	603b      	str	r3, [r7, #0]
    NVIC->IP[(uint32_t)(IRQn)]            = ((priority << (8 - __NVIC_PRIO_BITS)) & 0xff); } /* set Priority for device specific Interrupts  */
  40350e:	f887 b30c 	strb.w	fp, [r7, #780]	; 0x30c
	pio_configure(BUT_2_PIO, PIO_INPUT, BUT_2_PIO_PIN_MASK, PIO_PULLUP | PIO_DEBOUNCE);
  403512:	2309      	movs	r3, #9
  403514:	f04f 4200 	mov.w	r2, #2147483648	; 0x80000000
  403518:	f04f 5120 	mov.w	r1, #671088640	; 0x28000000
  40351c:	485a      	ldr	r0, [pc, #360]	; (403688 <main+0x234>)
  40351e:	47a8      	blx	r5
	pio_set_debounce_filter(BUT_2_PIO, BUT_2_PIO_PIN_MASK, 60);
  403520:	223c      	movs	r2, #60	; 0x3c
  403522:	f04f 4100 	mov.w	r1, #2147483648	; 0x80000000
  403526:	4858      	ldr	r0, [pc, #352]	; (403688 <main+0x234>)
  403528:	47d0      	blx	sl
	pio_enable_interrupt(BUT_2_PIO, BUT_2_PIO_PIN_MASK);
  40352a:	f04f 4100 	mov.w	r1, #2147483648	; 0x80000000
  40352e:	4856      	ldr	r0, [pc, #344]	; (403688 <main+0x234>)
  403530:	47c8      	blx	r9
	pio_handler_set(BUT_2_PIO, BUT_2_PIO_ID, BUT_2_PIO_PIN_MASK, PIO_IT_FALL_EDGE , &but_2_callback);
  403532:	4b58      	ldr	r3, [pc, #352]	; (403694 <main+0x240>)
  403534:	9300      	str	r3, [sp, #0]
  403536:	2350      	movs	r3, #80	; 0x50
  403538:	f04f 4200 	mov.w	r2, #2147483648	; 0x80000000
  40353c:	210c      	movs	r1, #12
  40353e:	4852      	ldr	r0, [pc, #328]	; (403688 <main+0x234>)
  403540:	47c0      	blx	r8
	pmc_enable_periph_clk(BUT_3_PIO_ID);
  403542:	200a      	movs	r0, #10
  403544:	47a0      	blx	r4
  NVIC->ISER[(uint32_t)((int32_t)IRQn) >> 5] = (uint32_t)(1 << ((uint32_t)((int32_t)IRQn) & (uint32_t)0x1F)); /* enable interrupt */
  403546:	f44f 6380 	mov.w	r3, #1024	; 0x400
  40354a:	603b      	str	r3, [r7, #0]
    NVIC->IP[(uint32_t)(IRQn)]            = ((priority << (8 - __NVIC_PRIO_BITS)) & 0xff); } /* set Priority for device specific Interrupts  */
  40354c:	f887 b30a 	strb.w	fp, [r7, #778]	; 0x30a
	pio_configure(BUT_3_PIO, PIO_INPUT, BUT_3_PIO_PIN_MASK, PIO_PULLUP | PIO_DEBOUNCE);
  403550:	2309      	movs	r3, #9
  403552:	f44f 2200 	mov.w	r2, #524288	; 0x80000
  403556:	f04f 5120 	mov.w	r1, #671088640	; 0x28000000
  40355a:	4630      	mov	r0, r6
  40355c:	47a8      	blx	r5
	pio_set_debounce_filter(BUT_3_PIO, BUT_3_PIO_PIN_MASK, 60);
  40355e:	223c      	movs	r2, #60	; 0x3c
  403560:	f44f 2100 	mov.w	r1, #524288	; 0x80000
  403564:	4630      	mov	r0, r6
  403566:	47d0      	blx	sl
	pio_enable_interrupt(BUT_3_PIO, BUT_3_PIO_PIN_MASK);
  403568:	f44f 2100 	mov.w	r1, #524288	; 0x80000
  40356c:	4630      	mov	r0, r6
  40356e:	47c8      	blx	r9
	pio_handler_set(BUT_3_PIO, BUT_3_PIO_ID, BUT_3_PIO_PIN_MASK, PIO_IT_FALL_EDGE , &but_3_callback);
  403570:	4b49      	ldr	r3, [pc, #292]	; (403698 <main+0x244>)
  403572:	9300      	str	r3, [sp, #0]
  403574:	2350      	movs	r3, #80	; 0x50
  403576:	f44f 2200 	mov.w	r2, #524288	; 0x80000
  40357a:	210a      	movs	r1, #10
  40357c:	4630      	mov	r0, r6
  40357e:	47c0      	blx	r8
 * \param opt         Options needed to set up RS232 communication (see \ref usart_options_t).
 *
 */
static inline void stdio_serial_init(volatile void *usart, const usart_serial_options_t *opt)
{
	stdio_base = (void *)usart;
  403580:	4e46      	ldr	r6, [pc, #280]	; (40369c <main+0x248>)
  403582:	4b47      	ldr	r3, [pc, #284]	; (4036a0 <main+0x24c>)
  403584:	601e      	str	r6, [r3, #0]
	ptr_put = (int (*)(void volatile*,char))&usart_serial_putchar;
  403586:	4a47      	ldr	r2, [pc, #284]	; (4036a4 <main+0x250>)
  403588:	4b47      	ldr	r3, [pc, #284]	; (4036a8 <main+0x254>)
  40358a:	601a      	str	r2, [r3, #0]
	ptr_get = (void (*)(void volatile*,char*))&usart_serial_getchar;
  40358c:	4a47      	ldr	r2, [pc, #284]	; (4036ac <main+0x258>)
  40358e:	4b48      	ldr	r3, [pc, #288]	; (4036b0 <main+0x25c>)
  403590:	601a      	str	r2, [r3, #0]
	usart_settings.baudrate = opt->baudrate;
  403592:	f44f 33e1 	mov.w	r3, #115200	; 0x1c200
  403596:	9304      	str	r3, [sp, #16]
	usart_settings.char_length = opt->charlength;
  403598:	23c0      	movs	r3, #192	; 0xc0
  40359a:	9305      	str	r3, [sp, #20]
	usart_settings.parity_type = opt->paritytype;
  40359c:	f44f 6300 	mov.w	r3, #2048	; 0x800
  4035a0:	9306      	str	r3, [sp, #24]
	usart_settings.stop_bits= opt->stopbits;
  4035a2:	2500      	movs	r5, #0
  4035a4:	9507      	str	r5, [sp, #28]
	usart_settings.channel_mode= US_MR_CHMODE_NORMAL;
  4035a6:	9508      	str	r5, [sp, #32]
  4035a8:	200e      	movs	r0, #14
  4035aa:	47a0      	blx	r4
		usart_init_rs232(p_usart, &usart_settings,
  4035ac:	4a41      	ldr	r2, [pc, #260]	; (4036b4 <main+0x260>)
  4035ae:	a904      	add	r1, sp, #16
  4035b0:	4630      	mov	r0, r6
  4035b2:	4b41      	ldr	r3, [pc, #260]	; (4036b8 <main+0x264>)
  4035b4:	4798      	blx	r3
		usart_enable_tx(p_usart);
  4035b6:	4630      	mov	r0, r6
  4035b8:	4b40      	ldr	r3, [pc, #256]	; (4036bc <main+0x268>)
  4035ba:	4798      	blx	r3
		usart_enable_rx(p_usart);
  4035bc:	4630      	mov	r0, r6
  4035be:	4b40      	ldr	r3, [pc, #256]	; (4036c0 <main+0x26c>)
  4035c0:	4798      	blx	r3
	fdevopen((int (*)(char, FILE*))(_write),(int (*)(FILE*))(_read));
#  endif
#  if UC3 || SAM
	// For AVR32 and SAM GCC
	// Specify that stdout and stdin should not be buffered.
	setbuf(stdout, NULL);
  4035c2:	4e40      	ldr	r6, [pc, #256]	; (4036c4 <main+0x270>)
  4035c4:	6833      	ldr	r3, [r6, #0]
  4035c6:	4629      	mov	r1, r5
  4035c8:	6898      	ldr	r0, [r3, #8]
  4035ca:	4c3f      	ldr	r4, [pc, #252]	; (4036c8 <main+0x274>)
  4035cc:	47a0      	blx	r4
	setbuf(stdin, NULL);
  4035ce:	6833      	ldr	r3, [r6, #0]
  4035d0:	4629      	mov	r1, r5
  4035d2:	6858      	ldr	r0, [r3, #4]
  4035d4:	47a0      	blx	r4
	setbuf(stdout, NULL);
  4035d6:	6833      	ldr	r3, [r6, #0]
  4035d8:	4629      	mov	r1, r5
  4035da:	6898      	ldr	r0, [r3, #8]
  4035dc:	47a0      	blx	r4
	BUT_init();

	/* Initialize the console uart */
	configure_console();
	
	xQueueModo = xQueueCreate(32, sizeof(uint32_t));
  4035de:	462a      	mov	r2, r5
  4035e0:	2104      	movs	r1, #4
  4035e2:	2020      	movs	r0, #32
  4035e4:	4b39      	ldr	r3, [pc, #228]	; (4036cc <main+0x278>)
  4035e6:	4798      	blx	r3
  4035e8:	4b39      	ldr	r3, [pc, #228]	; (4036d0 <main+0x27c>)
  4035ea:	6018      	str	r0, [r3, #0]
	if (xQueueModo == NULL)
  4035ec:	2800      	cmp	r0, #0
  4035ee:	d034      	beq.n	40365a <main+0x206>
		printf("falha em criar o fila modo\n");
	
	xQueueSteps = xQueueCreate(32, sizeof(uint32_t));
  4035f0:	2200      	movs	r2, #0
  4035f2:	2104      	movs	r1, #4
  4035f4:	2020      	movs	r0, #32
  4035f6:	4b35      	ldr	r3, [pc, #212]	; (4036cc <main+0x278>)
  4035f8:	4798      	blx	r3
  4035fa:	4b36      	ldr	r3, [pc, #216]	; (4036d4 <main+0x280>)
  4035fc:	6018      	str	r0, [r3, #0]
	if (xQueueSteps == NULL)
  4035fe:	2800      	cmp	r0, #0
  403600:	d02f      	beq.n	403662 <main+0x20e>
		printf("falha em criar o fila steps\n");

	xSemaphoreRTT = xSemaphoreCreateBinary();
  403602:	2203      	movs	r2, #3
  403604:	2100      	movs	r1, #0
  403606:	2001      	movs	r0, #1
  403608:	4b30      	ldr	r3, [pc, #192]	; (4036cc <main+0x278>)
  40360a:	4798      	blx	r3
  40360c:	4b32      	ldr	r3, [pc, #200]	; (4036d8 <main+0x284>)
  40360e:	6018      	str	r0, [r3, #0]
	if (xSemaphoreRTT == NULL)
  403610:	2800      	cmp	r0, #0
  403612:	d02a      	beq.n	40366a <main+0x216>
		printf("falha em criar o semaforo RTT\n");

	/* Create task to control oled */
	if (xTaskCreate(task_modo, "modo", TASK_OLED_STACK_SIZE, NULL, TASK_OLED_STACK_PRIORITY, NULL) != pdPASS) {
  403614:	2300      	movs	r3, #0
  403616:	9303      	str	r3, [sp, #12]
  403618:	9302      	str	r3, [sp, #8]
  40361a:	9301      	str	r3, [sp, #4]
  40361c:	9300      	str	r3, [sp, #0]
  40361e:	f44f 62c0 	mov.w	r2, #1536	; 0x600
  403622:	492e      	ldr	r1, [pc, #184]	; (4036dc <main+0x288>)
  403624:	482e      	ldr	r0, [pc, #184]	; (4036e0 <main+0x28c>)
  403626:	4c2f      	ldr	r4, [pc, #188]	; (4036e4 <main+0x290>)
  403628:	47a0      	blx	r4
  40362a:	2801      	cmp	r0, #1
  40362c:	d002      	beq.n	403634 <main+0x1e0>
		printf("Failed to create modo task\r\n");
  40362e:	482e      	ldr	r0, [pc, #184]	; (4036e8 <main+0x294>)
  403630:	4b2e      	ldr	r3, [pc, #184]	; (4036ec <main+0x298>)
  403632:	4798      	blx	r3
	}
	
	if (xTaskCreate(task_motor, "motor", TASK_OLED_STACK_SIZE, NULL, TASK_OLED_STACK_PRIORITY, NULL) != pdPASS) {
  403634:	2300      	movs	r3, #0
  403636:	9303      	str	r3, [sp, #12]
  403638:	9302      	str	r3, [sp, #8]
  40363a:	9301      	str	r3, [sp, #4]
  40363c:	9300      	str	r3, [sp, #0]
  40363e:	f44f 62c0 	mov.w	r2, #1536	; 0x600
  403642:	492b      	ldr	r1, [pc, #172]	; (4036f0 <main+0x29c>)
  403644:	482b      	ldr	r0, [pc, #172]	; (4036f4 <main+0x2a0>)
  403646:	4c27      	ldr	r4, [pc, #156]	; (4036e4 <main+0x290>)
  403648:	47a0      	blx	r4
  40364a:	2801      	cmp	r0, #1
  40364c:	d002      	beq.n	403654 <main+0x200>
		printf("Failed to create motor task\r\n");
  40364e:	482a      	ldr	r0, [pc, #168]	; (4036f8 <main+0x2a4>)
  403650:	4b26      	ldr	r3, [pc, #152]	; (4036ec <main+0x298>)
  403652:	4798      	blx	r3
	}

	/* Start the scheduler. */
	vTaskStartScheduler();
  403654:	4b29      	ldr	r3, [pc, #164]	; (4036fc <main+0x2a8>)
  403656:	4798      	blx	r3
  403658:	e7fe      	b.n	403658 <main+0x204>
		printf("falha em criar o fila modo\n");
  40365a:	4829      	ldr	r0, [pc, #164]	; (403700 <main+0x2ac>)
  40365c:	4b23      	ldr	r3, [pc, #140]	; (4036ec <main+0x298>)
  40365e:	4798      	blx	r3
  403660:	e7c6      	b.n	4035f0 <main+0x19c>
		printf("falha em criar o fila steps\n");
  403662:	4828      	ldr	r0, [pc, #160]	; (403704 <main+0x2b0>)
  403664:	4b21      	ldr	r3, [pc, #132]	; (4036ec <main+0x298>)
  403666:	4798      	blx	r3
  403668:	e7cb      	b.n	403602 <main+0x1ae>
		printf("falha em criar o semaforo RTT\n");
  40366a:	4827      	ldr	r0, [pc, #156]	; (403708 <main+0x2b4>)
  40366c:	4b1f      	ldr	r3, [pc, #124]	; (4036ec <main+0x298>)
  40366e:	4798      	blx	r3
  403670:	e7d0      	b.n	403614 <main+0x1c0>
  403672:	bf00      	nop
  403674:	00400895 	.word	0x00400895
  403678:	00400991 	.word	0x00400991
  40367c:	00400f51 	.word	0x00400f51
  403680:	00400c3d 	.word	0x00400c3d
  403684:	400e0e00 	.word	0x400e0e00
  403688:	400e1200 	.word	0x400e1200
  40368c:	e000e100 	.word	0xe000e100
  403690:	00403031 	.word	0x00403031
  403694:	00403055 	.word	0x00403055
  403698:	00403079 	.word	0x00403079
  40369c:	40028000 	.word	0x40028000
  4036a0:	20400de8 	.word	0x20400de8
  4036a4:	00403319 	.word	0x00403319
  4036a8:	20400de4 	.word	0x20400de4
  4036ac:	0040323d 	.word	0x0040323d
  4036b0:	20400de0 	.word	0x20400de0
  4036b4:	08f0d180 	.word	0x08f0d180
  4036b8:	0040104d 	.word	0x0040104d
  4036bc:	004010a1 	.word	0x004010a1
  4036c0:	004010a7 	.word	0x004010a7
  4036c4:	20400024 	.word	0x20400024
  4036c8:	00403f21 	.word	0x00403f21
  4036cc:	004019f9 	.word	0x004019f9
  4036d0:	20400e30 	.word	0x20400e30
  4036d4:	20400e34 	.word	0x20400e34
  4036d8:	20400e2c 	.word	0x20400e2c
  4036dc:	00409e90 	.word	0x00409e90
  4036e0:	0040318d 	.word	0x0040318d
  4036e4:	00402119 	.word	0x00402119
  4036e8:	00409e98 	.word	0x00409e98
  4036ec:	0040376d 	.word	0x0040376d
  4036f0:	00409eb8 	.word	0x00409eb8
  4036f4:	0040309d 	.word	0x0040309d
  4036f8:	00409ec0 	.word	0x00409ec0
  4036fc:	0040234d 	.word	0x0040234d
  403700:	00409e34 	.word	0x00409e34
  403704:	00409e50 	.word	0x00409e50
  403708:	00409e70 	.word	0x00409e70
  40370c:	400e1400 	.word	0x400e1400
  403710:	00400b29 	.word	0x00400b29
  403714:	00400cff 	.word	0x00400cff
  403718:	00400d5d 	.word	0x00400d5d

0040371c <__libc_init_array>:
  40371c:	b570      	push	{r4, r5, r6, lr}
  40371e:	4e0f      	ldr	r6, [pc, #60]	; (40375c <__libc_init_array+0x40>)
  403720:	4d0f      	ldr	r5, [pc, #60]	; (403760 <__libc_init_array+0x44>)
  403722:	1b76      	subs	r6, r6, r5
  403724:	10b6      	asrs	r6, r6, #2
  403726:	bf18      	it	ne
  403728:	2400      	movne	r4, #0
  40372a:	d005      	beq.n	403738 <__libc_init_array+0x1c>
  40372c:	3401      	adds	r4, #1
  40372e:	f855 3b04 	ldr.w	r3, [r5], #4
  403732:	4798      	blx	r3
  403734:	42a6      	cmp	r6, r4
  403736:	d1f9      	bne.n	40372c <__libc_init_array+0x10>
  403738:	4e0a      	ldr	r6, [pc, #40]	; (403764 <__libc_init_array+0x48>)
  40373a:	4d0b      	ldr	r5, [pc, #44]	; (403768 <__libc_init_array+0x4c>)
  40373c:	1b76      	subs	r6, r6, r5
  40373e:	f006 fd4f 	bl	40a1e0 <_init>
  403742:	10b6      	asrs	r6, r6, #2
  403744:	bf18      	it	ne
  403746:	2400      	movne	r4, #0
  403748:	d006      	beq.n	403758 <__libc_init_array+0x3c>
  40374a:	3401      	adds	r4, #1
  40374c:	f855 3b04 	ldr.w	r3, [r5], #4
  403750:	4798      	blx	r3
  403752:	42a6      	cmp	r6, r4
  403754:	d1f9      	bne.n	40374a <__libc_init_array+0x2e>
  403756:	bd70      	pop	{r4, r5, r6, pc}
  403758:	bd70      	pop	{r4, r5, r6, pc}
  40375a:	bf00      	nop
  40375c:	0040a1ec 	.word	0x0040a1ec
  403760:	0040a1ec 	.word	0x0040a1ec
  403764:	0040a1f4 	.word	0x0040a1f4
  403768:	0040a1ec 	.word	0x0040a1ec

0040376c <iprintf>:
  40376c:	b40f      	push	{r0, r1, r2, r3}
  40376e:	b500      	push	{lr}
  403770:	4907      	ldr	r1, [pc, #28]	; (403790 <iprintf+0x24>)
  403772:	b083      	sub	sp, #12
  403774:	ab04      	add	r3, sp, #16
  403776:	6808      	ldr	r0, [r1, #0]
  403778:	f853 2b04 	ldr.w	r2, [r3], #4
  40377c:	6881      	ldr	r1, [r0, #8]
  40377e:	9301      	str	r3, [sp, #4]
  403780:	f001 ffba 	bl	4056f8 <_vfiprintf_r>
  403784:	b003      	add	sp, #12
  403786:	f85d eb04 	ldr.w	lr, [sp], #4
  40378a:	b004      	add	sp, #16
  40378c:	4770      	bx	lr
  40378e:	bf00      	nop
  403790:	20400024 	.word	0x20400024

00403794 <malloc>:
  403794:	4b02      	ldr	r3, [pc, #8]	; (4037a0 <malloc+0xc>)
  403796:	4601      	mov	r1, r0
  403798:	6818      	ldr	r0, [r3, #0]
  40379a:	f000 b80b 	b.w	4037b4 <_malloc_r>
  40379e:	bf00      	nop
  4037a0:	20400024 	.word	0x20400024

004037a4 <free>:
  4037a4:	4b02      	ldr	r3, [pc, #8]	; (4037b0 <free+0xc>)
  4037a6:	4601      	mov	r1, r0
  4037a8:	6818      	ldr	r0, [r3, #0]
  4037aa:	f004 b881 	b.w	4078b0 <_free_r>
  4037ae:	bf00      	nop
  4037b0:	20400024 	.word	0x20400024

004037b4 <_malloc_r>:
  4037b4:	e92d 4ff0 	stmdb	sp!, {r4, r5, r6, r7, r8, r9, sl, fp, lr}
  4037b8:	f101 060b 	add.w	r6, r1, #11
  4037bc:	2e16      	cmp	r6, #22
  4037be:	b083      	sub	sp, #12
  4037c0:	4605      	mov	r5, r0
  4037c2:	f240 809e 	bls.w	403902 <_malloc_r+0x14e>
  4037c6:	f036 0607 	bics.w	r6, r6, #7
  4037ca:	f100 80bd 	bmi.w	403948 <_malloc_r+0x194>
  4037ce:	42b1      	cmp	r1, r6
  4037d0:	f200 80ba 	bhi.w	403948 <_malloc_r+0x194>
  4037d4:	f000 fb86 	bl	403ee4 <__malloc_lock>
  4037d8:	f5b6 7ffc 	cmp.w	r6, #504	; 0x1f8
  4037dc:	f0c0 8293 	bcc.w	403d06 <_malloc_r+0x552>
  4037e0:	0a73      	lsrs	r3, r6, #9
  4037e2:	f000 80b8 	beq.w	403956 <_malloc_r+0x1a2>
  4037e6:	2b04      	cmp	r3, #4
  4037e8:	f200 8179 	bhi.w	403ade <_malloc_r+0x32a>
  4037ec:	09b3      	lsrs	r3, r6, #6
  4037ee:	f103 0039 	add.w	r0, r3, #57	; 0x39
  4037f2:	f103 0e38 	add.w	lr, r3, #56	; 0x38
  4037f6:	00c3      	lsls	r3, r0, #3
  4037f8:	4fbf      	ldr	r7, [pc, #764]	; (403af8 <_malloc_r+0x344>)
  4037fa:	443b      	add	r3, r7
  4037fc:	f1a3 0108 	sub.w	r1, r3, #8
  403800:	685c      	ldr	r4, [r3, #4]
  403802:	42a1      	cmp	r1, r4
  403804:	d106      	bne.n	403814 <_malloc_r+0x60>
  403806:	e00c      	b.n	403822 <_malloc_r+0x6e>
  403808:	2a00      	cmp	r2, #0
  40380a:	f280 80aa 	bge.w	403962 <_malloc_r+0x1ae>
  40380e:	68e4      	ldr	r4, [r4, #12]
  403810:	42a1      	cmp	r1, r4
  403812:	d006      	beq.n	403822 <_malloc_r+0x6e>
  403814:	6863      	ldr	r3, [r4, #4]
  403816:	f023 0303 	bic.w	r3, r3, #3
  40381a:	1b9a      	subs	r2, r3, r6
  40381c:	2a0f      	cmp	r2, #15
  40381e:	ddf3      	ble.n	403808 <_malloc_r+0x54>
  403820:	4670      	mov	r0, lr
  403822:	693c      	ldr	r4, [r7, #16]
  403824:	f8df e2e4 	ldr.w	lr, [pc, #740]	; 403b0c <_malloc_r+0x358>
  403828:	4574      	cmp	r4, lr
  40382a:	f000 81ab 	beq.w	403b84 <_malloc_r+0x3d0>
  40382e:	6863      	ldr	r3, [r4, #4]
  403830:	f023 0303 	bic.w	r3, r3, #3
  403834:	1b9a      	subs	r2, r3, r6
  403836:	2a0f      	cmp	r2, #15
  403838:	f300 8190 	bgt.w	403b5c <_malloc_r+0x3a8>
  40383c:	2a00      	cmp	r2, #0
  40383e:	f8c7 e014 	str.w	lr, [r7, #20]
  403842:	f8c7 e010 	str.w	lr, [r7, #16]
  403846:	f280 809d 	bge.w	403984 <_malloc_r+0x1d0>
  40384a:	f5b3 7f00 	cmp.w	r3, #512	; 0x200
  40384e:	f080 8161 	bcs.w	403b14 <_malloc_r+0x360>
  403852:	08db      	lsrs	r3, r3, #3
  403854:	f103 0c01 	add.w	ip, r3, #1
  403858:	1099      	asrs	r1, r3, #2
  40385a:	687a      	ldr	r2, [r7, #4]
  40385c:	f857 803c 	ldr.w	r8, [r7, ip, lsl #3]
  403860:	f8c4 8008 	str.w	r8, [r4, #8]
  403864:	2301      	movs	r3, #1
  403866:	408b      	lsls	r3, r1
  403868:	eb07 01cc 	add.w	r1, r7, ip, lsl #3
  40386c:	4313      	orrs	r3, r2
  40386e:	3908      	subs	r1, #8
  403870:	60e1      	str	r1, [r4, #12]
  403872:	607b      	str	r3, [r7, #4]
  403874:	f847 403c 	str.w	r4, [r7, ip, lsl #3]
  403878:	f8c8 400c 	str.w	r4, [r8, #12]
  40387c:	1082      	asrs	r2, r0, #2
  40387e:	2401      	movs	r4, #1
  403880:	4094      	lsls	r4, r2
  403882:	429c      	cmp	r4, r3
  403884:	f200 808b 	bhi.w	40399e <_malloc_r+0x1ea>
  403888:	421c      	tst	r4, r3
  40388a:	d106      	bne.n	40389a <_malloc_r+0xe6>
  40388c:	f020 0003 	bic.w	r0, r0, #3
  403890:	0064      	lsls	r4, r4, #1
  403892:	421c      	tst	r4, r3
  403894:	f100 0004 	add.w	r0, r0, #4
  403898:	d0fa      	beq.n	403890 <_malloc_r+0xdc>
  40389a:	eb07 09c0 	add.w	r9, r7, r0, lsl #3
  40389e:	46cc      	mov	ip, r9
  4038a0:	4680      	mov	r8, r0
  4038a2:	f8dc 300c 	ldr.w	r3, [ip, #12]
  4038a6:	459c      	cmp	ip, r3
  4038a8:	d107      	bne.n	4038ba <_malloc_r+0x106>
  4038aa:	e16d      	b.n	403b88 <_malloc_r+0x3d4>
  4038ac:	2a00      	cmp	r2, #0
  4038ae:	f280 817b 	bge.w	403ba8 <_malloc_r+0x3f4>
  4038b2:	68db      	ldr	r3, [r3, #12]
  4038b4:	459c      	cmp	ip, r3
  4038b6:	f000 8167 	beq.w	403b88 <_malloc_r+0x3d4>
  4038ba:	6859      	ldr	r1, [r3, #4]
  4038bc:	f021 0103 	bic.w	r1, r1, #3
  4038c0:	1b8a      	subs	r2, r1, r6
  4038c2:	2a0f      	cmp	r2, #15
  4038c4:	ddf2      	ble.n	4038ac <_malloc_r+0xf8>
  4038c6:	f8d3 c00c 	ldr.w	ip, [r3, #12]
  4038ca:	f8d3 8008 	ldr.w	r8, [r3, #8]
  4038ce:	9300      	str	r3, [sp, #0]
  4038d0:	199c      	adds	r4, r3, r6
  4038d2:	4628      	mov	r0, r5
  4038d4:	f046 0601 	orr.w	r6, r6, #1
  4038d8:	f042 0501 	orr.w	r5, r2, #1
  4038dc:	605e      	str	r6, [r3, #4]
  4038de:	f8c8 c00c 	str.w	ip, [r8, #12]
  4038e2:	f8cc 8008 	str.w	r8, [ip, #8]
  4038e6:	617c      	str	r4, [r7, #20]
  4038e8:	613c      	str	r4, [r7, #16]
  4038ea:	f8c4 e00c 	str.w	lr, [r4, #12]
  4038ee:	f8c4 e008 	str.w	lr, [r4, #8]
  4038f2:	6065      	str	r5, [r4, #4]
  4038f4:	505a      	str	r2, [r3, r1]
  4038f6:	f000 fafb 	bl	403ef0 <__malloc_unlock>
  4038fa:	9b00      	ldr	r3, [sp, #0]
  4038fc:	f103 0408 	add.w	r4, r3, #8
  403900:	e01e      	b.n	403940 <_malloc_r+0x18c>
  403902:	2910      	cmp	r1, #16
  403904:	d820      	bhi.n	403948 <_malloc_r+0x194>
  403906:	f000 faed 	bl	403ee4 <__malloc_lock>
  40390a:	2610      	movs	r6, #16
  40390c:	2318      	movs	r3, #24
  40390e:	2002      	movs	r0, #2
  403910:	4f79      	ldr	r7, [pc, #484]	; (403af8 <_malloc_r+0x344>)
  403912:	443b      	add	r3, r7
  403914:	f1a3 0208 	sub.w	r2, r3, #8
  403918:	685c      	ldr	r4, [r3, #4]
  40391a:	4294      	cmp	r4, r2
  40391c:	f000 813d 	beq.w	403b9a <_malloc_r+0x3e6>
  403920:	6863      	ldr	r3, [r4, #4]
  403922:	68e1      	ldr	r1, [r4, #12]
  403924:	68a6      	ldr	r6, [r4, #8]
  403926:	f023 0303 	bic.w	r3, r3, #3
  40392a:	4423      	add	r3, r4
  40392c:	4628      	mov	r0, r5
  40392e:	685a      	ldr	r2, [r3, #4]
  403930:	60f1      	str	r1, [r6, #12]
  403932:	f042 0201 	orr.w	r2, r2, #1
  403936:	608e      	str	r6, [r1, #8]
  403938:	605a      	str	r2, [r3, #4]
  40393a:	f000 fad9 	bl	403ef0 <__malloc_unlock>
  40393e:	3408      	adds	r4, #8
  403940:	4620      	mov	r0, r4
  403942:	b003      	add	sp, #12
  403944:	e8bd 8ff0 	ldmia.w	sp!, {r4, r5, r6, r7, r8, r9, sl, fp, pc}
  403948:	2400      	movs	r4, #0
  40394a:	230c      	movs	r3, #12
  40394c:	4620      	mov	r0, r4
  40394e:	602b      	str	r3, [r5, #0]
  403950:	b003      	add	sp, #12
  403952:	e8bd 8ff0 	ldmia.w	sp!, {r4, r5, r6, r7, r8, r9, sl, fp, pc}
  403956:	2040      	movs	r0, #64	; 0x40
  403958:	f44f 7300 	mov.w	r3, #512	; 0x200
  40395c:	f04f 0e3f 	mov.w	lr, #63	; 0x3f
  403960:	e74a      	b.n	4037f8 <_malloc_r+0x44>
  403962:	4423      	add	r3, r4
  403964:	68e1      	ldr	r1, [r4, #12]
  403966:	685a      	ldr	r2, [r3, #4]
  403968:	68a6      	ldr	r6, [r4, #8]
  40396a:	f042 0201 	orr.w	r2, r2, #1
  40396e:	60f1      	str	r1, [r6, #12]
  403970:	4628      	mov	r0, r5
  403972:	608e      	str	r6, [r1, #8]
  403974:	605a      	str	r2, [r3, #4]
  403976:	f000 fabb 	bl	403ef0 <__malloc_unlock>
  40397a:	3408      	adds	r4, #8
  40397c:	4620      	mov	r0, r4
  40397e:	b003      	add	sp, #12
  403980:	e8bd 8ff0 	ldmia.w	sp!, {r4, r5, r6, r7, r8, r9, sl, fp, pc}
  403984:	4423      	add	r3, r4
  403986:	4628      	mov	r0, r5
  403988:	685a      	ldr	r2, [r3, #4]
  40398a:	f042 0201 	orr.w	r2, r2, #1
  40398e:	605a      	str	r2, [r3, #4]
  403990:	f000 faae 	bl	403ef0 <__malloc_unlock>
  403994:	3408      	adds	r4, #8
  403996:	4620      	mov	r0, r4
  403998:	b003      	add	sp, #12
  40399a:	e8bd 8ff0 	ldmia.w	sp!, {r4, r5, r6, r7, r8, r9, sl, fp, pc}
  40399e:	68bc      	ldr	r4, [r7, #8]
  4039a0:	6863      	ldr	r3, [r4, #4]
  4039a2:	f023 0803 	bic.w	r8, r3, #3
  4039a6:	45b0      	cmp	r8, r6
  4039a8:	d304      	bcc.n	4039b4 <_malloc_r+0x200>
  4039aa:	eba8 0306 	sub.w	r3, r8, r6
  4039ae:	2b0f      	cmp	r3, #15
  4039b0:	f300 8085 	bgt.w	403abe <_malloc_r+0x30a>
  4039b4:	f8df 9158 	ldr.w	r9, [pc, #344]	; 403b10 <_malloc_r+0x35c>
  4039b8:	4b50      	ldr	r3, [pc, #320]	; (403afc <_malloc_r+0x348>)
  4039ba:	f8d9 2000 	ldr.w	r2, [r9]
  4039be:	681b      	ldr	r3, [r3, #0]
  4039c0:	3201      	adds	r2, #1
  4039c2:	4433      	add	r3, r6
  4039c4:	eb04 0a08 	add.w	sl, r4, r8
  4039c8:	f000 8155 	beq.w	403c76 <_malloc_r+0x4c2>
  4039cc:	f503 5380 	add.w	r3, r3, #4096	; 0x1000
  4039d0:	330f      	adds	r3, #15
  4039d2:	f423 6b7f 	bic.w	fp, r3, #4080	; 0xff0
  4039d6:	f02b 0b0f 	bic.w	fp, fp, #15
  4039da:	4659      	mov	r1, fp
  4039dc:	4628      	mov	r0, r5
  4039de:	f000 fa8d 	bl	403efc <_sbrk_r>
  4039e2:	1c41      	adds	r1, r0, #1
  4039e4:	4602      	mov	r2, r0
  4039e6:	f000 80fc 	beq.w	403be2 <_malloc_r+0x42e>
  4039ea:	4582      	cmp	sl, r0
  4039ec:	f200 80f7 	bhi.w	403bde <_malloc_r+0x42a>
  4039f0:	4b43      	ldr	r3, [pc, #268]	; (403b00 <_malloc_r+0x34c>)
  4039f2:	6819      	ldr	r1, [r3, #0]
  4039f4:	4459      	add	r1, fp
  4039f6:	6019      	str	r1, [r3, #0]
  4039f8:	f000 814d 	beq.w	403c96 <_malloc_r+0x4e2>
  4039fc:	f8d9 0000 	ldr.w	r0, [r9]
  403a00:	3001      	adds	r0, #1
  403a02:	bf1b      	ittet	ne
  403a04:	eba2 0a0a 	subne.w	sl, r2, sl
  403a08:	4451      	addne	r1, sl
  403a0a:	f8c9 2000 	streq.w	r2, [r9]
  403a0e:	6019      	strne	r1, [r3, #0]
  403a10:	f012 0107 	ands.w	r1, r2, #7
  403a14:	f000 8115 	beq.w	403c42 <_malloc_r+0x48e>
  403a18:	f1c1 0008 	rsb	r0, r1, #8
  403a1c:	f5c1 5180 	rsb	r1, r1, #4096	; 0x1000
  403a20:	4402      	add	r2, r0
  403a22:	3108      	adds	r1, #8
  403a24:	eb02 090b 	add.w	r9, r2, fp
  403a28:	f3c9 090b 	ubfx	r9, r9, #0, #12
  403a2c:	eba1 0909 	sub.w	r9, r1, r9
  403a30:	4649      	mov	r1, r9
  403a32:	4628      	mov	r0, r5
  403a34:	9301      	str	r3, [sp, #4]
  403a36:	9200      	str	r2, [sp, #0]
  403a38:	f000 fa60 	bl	403efc <_sbrk_r>
  403a3c:	1c43      	adds	r3, r0, #1
  403a3e:	e89d 000c 	ldmia.w	sp, {r2, r3}
  403a42:	f000 8143 	beq.w	403ccc <_malloc_r+0x518>
  403a46:	1a80      	subs	r0, r0, r2
  403a48:	4448      	add	r0, r9
  403a4a:	f040 0001 	orr.w	r0, r0, #1
  403a4e:	6819      	ldr	r1, [r3, #0]
  403a50:	60ba      	str	r2, [r7, #8]
  403a52:	4449      	add	r1, r9
  403a54:	42bc      	cmp	r4, r7
  403a56:	6050      	str	r0, [r2, #4]
  403a58:	6019      	str	r1, [r3, #0]
  403a5a:	d017      	beq.n	403a8c <_malloc_r+0x2d8>
  403a5c:	f1b8 0f0f 	cmp.w	r8, #15
  403a60:	f240 80fb 	bls.w	403c5a <_malloc_r+0x4a6>
  403a64:	6860      	ldr	r0, [r4, #4]
  403a66:	f1a8 020c 	sub.w	r2, r8, #12
  403a6a:	f022 0207 	bic.w	r2, r2, #7
  403a6e:	eb04 0e02 	add.w	lr, r4, r2
  403a72:	f000 0001 	and.w	r0, r0, #1
  403a76:	f04f 0c05 	mov.w	ip, #5
  403a7a:	4310      	orrs	r0, r2
  403a7c:	2a0f      	cmp	r2, #15
  403a7e:	6060      	str	r0, [r4, #4]
  403a80:	f8ce c004 	str.w	ip, [lr, #4]
  403a84:	f8ce c008 	str.w	ip, [lr, #8]
  403a88:	f200 8117 	bhi.w	403cba <_malloc_r+0x506>
  403a8c:	4b1d      	ldr	r3, [pc, #116]	; (403b04 <_malloc_r+0x350>)
  403a8e:	68bc      	ldr	r4, [r7, #8]
  403a90:	681a      	ldr	r2, [r3, #0]
  403a92:	4291      	cmp	r1, r2
  403a94:	bf88      	it	hi
  403a96:	6019      	strhi	r1, [r3, #0]
  403a98:	4b1b      	ldr	r3, [pc, #108]	; (403b08 <_malloc_r+0x354>)
  403a9a:	681a      	ldr	r2, [r3, #0]
  403a9c:	4291      	cmp	r1, r2
  403a9e:	6862      	ldr	r2, [r4, #4]
  403aa0:	bf88      	it	hi
  403aa2:	6019      	strhi	r1, [r3, #0]
  403aa4:	f022 0203 	bic.w	r2, r2, #3
  403aa8:	4296      	cmp	r6, r2
  403aaa:	eba2 0306 	sub.w	r3, r2, r6
  403aae:	d801      	bhi.n	403ab4 <_malloc_r+0x300>
  403ab0:	2b0f      	cmp	r3, #15
  403ab2:	dc04      	bgt.n	403abe <_malloc_r+0x30a>
  403ab4:	4628      	mov	r0, r5
  403ab6:	f000 fa1b 	bl	403ef0 <__malloc_unlock>
  403aba:	2400      	movs	r4, #0
  403abc:	e740      	b.n	403940 <_malloc_r+0x18c>
  403abe:	19a2      	adds	r2, r4, r6
  403ac0:	f043 0301 	orr.w	r3, r3, #1
  403ac4:	f046 0601 	orr.w	r6, r6, #1
  403ac8:	6066      	str	r6, [r4, #4]
  403aca:	4628      	mov	r0, r5
  403acc:	60ba      	str	r2, [r7, #8]
  403ace:	6053      	str	r3, [r2, #4]
  403ad0:	f000 fa0e 	bl	403ef0 <__malloc_unlock>
  403ad4:	3408      	adds	r4, #8
  403ad6:	4620      	mov	r0, r4
  403ad8:	b003      	add	sp, #12
  403ada:	e8bd 8ff0 	ldmia.w	sp!, {r4, r5, r6, r7, r8, r9, sl, fp, pc}
  403ade:	2b14      	cmp	r3, #20
  403ae0:	d971      	bls.n	403bc6 <_malloc_r+0x412>
  403ae2:	2b54      	cmp	r3, #84	; 0x54
  403ae4:	f200 80a3 	bhi.w	403c2e <_malloc_r+0x47a>
  403ae8:	0b33      	lsrs	r3, r6, #12
  403aea:	f103 006f 	add.w	r0, r3, #111	; 0x6f
  403aee:	f103 0e6e 	add.w	lr, r3, #110	; 0x6e
  403af2:	00c3      	lsls	r3, r0, #3
  403af4:	e680      	b.n	4037f8 <_malloc_r+0x44>
  403af6:	bf00      	nop
  403af8:	20400450 	.word	0x20400450
  403afc:	20400ddc 	.word	0x20400ddc
  403b00:	20400dac 	.word	0x20400dac
  403b04:	20400dd4 	.word	0x20400dd4
  403b08:	20400dd8 	.word	0x20400dd8
  403b0c:	20400458 	.word	0x20400458
  403b10:	20400858 	.word	0x20400858
  403b14:	0a5a      	lsrs	r2, r3, #9
  403b16:	2a04      	cmp	r2, #4
  403b18:	d95b      	bls.n	403bd2 <_malloc_r+0x41e>
  403b1a:	2a14      	cmp	r2, #20
  403b1c:	f200 80ae 	bhi.w	403c7c <_malloc_r+0x4c8>
  403b20:	f102 015c 	add.w	r1, r2, #92	; 0x5c
  403b24:	00c9      	lsls	r1, r1, #3
  403b26:	325b      	adds	r2, #91	; 0x5b
  403b28:	eb07 0c01 	add.w	ip, r7, r1
  403b2c:	5879      	ldr	r1, [r7, r1]
  403b2e:	f1ac 0c08 	sub.w	ip, ip, #8
  403b32:	458c      	cmp	ip, r1
  403b34:	f000 8088 	beq.w	403c48 <_malloc_r+0x494>
  403b38:	684a      	ldr	r2, [r1, #4]
  403b3a:	f022 0203 	bic.w	r2, r2, #3
  403b3e:	4293      	cmp	r3, r2
  403b40:	d273      	bcs.n	403c2a <_malloc_r+0x476>
  403b42:	6889      	ldr	r1, [r1, #8]
  403b44:	458c      	cmp	ip, r1
  403b46:	d1f7      	bne.n	403b38 <_malloc_r+0x384>
  403b48:	f8dc 200c 	ldr.w	r2, [ip, #12]
  403b4c:	687b      	ldr	r3, [r7, #4]
  403b4e:	60e2      	str	r2, [r4, #12]
  403b50:	f8c4 c008 	str.w	ip, [r4, #8]
  403b54:	6094      	str	r4, [r2, #8]
  403b56:	f8cc 400c 	str.w	r4, [ip, #12]
  403b5a:	e68f      	b.n	40387c <_malloc_r+0xc8>
  403b5c:	19a1      	adds	r1, r4, r6
  403b5e:	f046 0c01 	orr.w	ip, r6, #1
  403b62:	f042 0601 	orr.w	r6, r2, #1
  403b66:	f8c4 c004 	str.w	ip, [r4, #4]
  403b6a:	4628      	mov	r0, r5
  403b6c:	6179      	str	r1, [r7, #20]
  403b6e:	6139      	str	r1, [r7, #16]
  403b70:	f8c1 e00c 	str.w	lr, [r1, #12]
  403b74:	f8c1 e008 	str.w	lr, [r1, #8]
  403b78:	604e      	str	r6, [r1, #4]
  403b7a:	50e2      	str	r2, [r4, r3]
  403b7c:	f000 f9b8 	bl	403ef0 <__malloc_unlock>
  403b80:	3408      	adds	r4, #8
  403b82:	e6dd      	b.n	403940 <_malloc_r+0x18c>
  403b84:	687b      	ldr	r3, [r7, #4]
  403b86:	e679      	b.n	40387c <_malloc_r+0xc8>
  403b88:	f108 0801 	add.w	r8, r8, #1
  403b8c:	f018 0f03 	tst.w	r8, #3
  403b90:	f10c 0c08 	add.w	ip, ip, #8
  403b94:	f47f ae85 	bne.w	4038a2 <_malloc_r+0xee>
  403b98:	e02d      	b.n	403bf6 <_malloc_r+0x442>
  403b9a:	68dc      	ldr	r4, [r3, #12]
  403b9c:	42a3      	cmp	r3, r4
  403b9e:	bf08      	it	eq
  403ba0:	3002      	addeq	r0, #2
  403ba2:	f43f ae3e 	beq.w	403822 <_malloc_r+0x6e>
  403ba6:	e6bb      	b.n	403920 <_malloc_r+0x16c>
  403ba8:	4419      	add	r1, r3
  403baa:	461c      	mov	r4, r3
  403bac:	684a      	ldr	r2, [r1, #4]
  403bae:	68db      	ldr	r3, [r3, #12]
  403bb0:	f854 6f08 	ldr.w	r6, [r4, #8]!
  403bb4:	f042 0201 	orr.w	r2, r2, #1
  403bb8:	604a      	str	r2, [r1, #4]
  403bba:	4628      	mov	r0, r5
  403bbc:	60f3      	str	r3, [r6, #12]
  403bbe:	609e      	str	r6, [r3, #8]
  403bc0:	f000 f996 	bl	403ef0 <__malloc_unlock>
  403bc4:	e6bc      	b.n	403940 <_malloc_r+0x18c>
  403bc6:	f103 005c 	add.w	r0, r3, #92	; 0x5c
  403bca:	f103 0e5b 	add.w	lr, r3, #91	; 0x5b
  403bce:	00c3      	lsls	r3, r0, #3
  403bd0:	e612      	b.n	4037f8 <_malloc_r+0x44>
  403bd2:	099a      	lsrs	r2, r3, #6
  403bd4:	f102 0139 	add.w	r1, r2, #57	; 0x39
  403bd8:	00c9      	lsls	r1, r1, #3
  403bda:	3238      	adds	r2, #56	; 0x38
  403bdc:	e7a4      	b.n	403b28 <_malloc_r+0x374>
  403bde:	42bc      	cmp	r4, r7
  403be0:	d054      	beq.n	403c8c <_malloc_r+0x4d8>
  403be2:	68bc      	ldr	r4, [r7, #8]
  403be4:	6862      	ldr	r2, [r4, #4]
  403be6:	f022 0203 	bic.w	r2, r2, #3
  403bea:	e75d      	b.n	403aa8 <_malloc_r+0x2f4>
  403bec:	f859 3908 	ldr.w	r3, [r9], #-8
  403bf0:	4599      	cmp	r9, r3
  403bf2:	f040 8086 	bne.w	403d02 <_malloc_r+0x54e>
  403bf6:	f010 0f03 	tst.w	r0, #3
  403bfa:	f100 30ff 	add.w	r0, r0, #4294967295
  403bfe:	d1f5      	bne.n	403bec <_malloc_r+0x438>
  403c00:	687b      	ldr	r3, [r7, #4]
  403c02:	ea23 0304 	bic.w	r3, r3, r4
  403c06:	607b      	str	r3, [r7, #4]
  403c08:	0064      	lsls	r4, r4, #1
  403c0a:	429c      	cmp	r4, r3
  403c0c:	f63f aec7 	bhi.w	40399e <_malloc_r+0x1ea>
  403c10:	2c00      	cmp	r4, #0
  403c12:	f43f aec4 	beq.w	40399e <_malloc_r+0x1ea>
  403c16:	421c      	tst	r4, r3
  403c18:	4640      	mov	r0, r8
  403c1a:	f47f ae3e 	bne.w	40389a <_malloc_r+0xe6>
  403c1e:	0064      	lsls	r4, r4, #1
  403c20:	421c      	tst	r4, r3
  403c22:	f100 0004 	add.w	r0, r0, #4
  403c26:	d0fa      	beq.n	403c1e <_malloc_r+0x46a>
  403c28:	e637      	b.n	40389a <_malloc_r+0xe6>
  403c2a:	468c      	mov	ip, r1
  403c2c:	e78c      	b.n	403b48 <_malloc_r+0x394>
  403c2e:	f5b3 7faa 	cmp.w	r3, #340	; 0x154
  403c32:	d815      	bhi.n	403c60 <_malloc_r+0x4ac>
  403c34:	0bf3      	lsrs	r3, r6, #15
  403c36:	f103 0078 	add.w	r0, r3, #120	; 0x78
  403c3a:	f103 0e77 	add.w	lr, r3, #119	; 0x77
  403c3e:	00c3      	lsls	r3, r0, #3
  403c40:	e5da      	b.n	4037f8 <_malloc_r+0x44>
  403c42:	f44f 5180 	mov.w	r1, #4096	; 0x1000
  403c46:	e6ed      	b.n	403a24 <_malloc_r+0x270>
  403c48:	687b      	ldr	r3, [r7, #4]
  403c4a:	1092      	asrs	r2, r2, #2
  403c4c:	2101      	movs	r1, #1
  403c4e:	fa01 f202 	lsl.w	r2, r1, r2
  403c52:	4313      	orrs	r3, r2
  403c54:	607b      	str	r3, [r7, #4]
  403c56:	4662      	mov	r2, ip
  403c58:	e779      	b.n	403b4e <_malloc_r+0x39a>
  403c5a:	2301      	movs	r3, #1
  403c5c:	6053      	str	r3, [r2, #4]
  403c5e:	e729      	b.n	403ab4 <_malloc_r+0x300>
  403c60:	f240 5254 	movw	r2, #1364	; 0x554
  403c64:	4293      	cmp	r3, r2
  403c66:	d822      	bhi.n	403cae <_malloc_r+0x4fa>
  403c68:	0cb3      	lsrs	r3, r6, #18
  403c6a:	f103 007d 	add.w	r0, r3, #125	; 0x7d
  403c6e:	f103 0e7c 	add.w	lr, r3, #124	; 0x7c
  403c72:	00c3      	lsls	r3, r0, #3
  403c74:	e5c0      	b.n	4037f8 <_malloc_r+0x44>
  403c76:	f103 0b10 	add.w	fp, r3, #16
  403c7a:	e6ae      	b.n	4039da <_malloc_r+0x226>
  403c7c:	2a54      	cmp	r2, #84	; 0x54
  403c7e:	d829      	bhi.n	403cd4 <_malloc_r+0x520>
  403c80:	0b1a      	lsrs	r2, r3, #12
  403c82:	f102 016f 	add.w	r1, r2, #111	; 0x6f
  403c86:	00c9      	lsls	r1, r1, #3
  403c88:	326e      	adds	r2, #110	; 0x6e
  403c8a:	e74d      	b.n	403b28 <_malloc_r+0x374>
  403c8c:	4b20      	ldr	r3, [pc, #128]	; (403d10 <_malloc_r+0x55c>)
  403c8e:	6819      	ldr	r1, [r3, #0]
  403c90:	4459      	add	r1, fp
  403c92:	6019      	str	r1, [r3, #0]
  403c94:	e6b2      	b.n	4039fc <_malloc_r+0x248>
  403c96:	f3ca 000b 	ubfx	r0, sl, #0, #12
  403c9a:	2800      	cmp	r0, #0
  403c9c:	f47f aeae 	bne.w	4039fc <_malloc_r+0x248>
  403ca0:	eb08 030b 	add.w	r3, r8, fp
  403ca4:	68ba      	ldr	r2, [r7, #8]
  403ca6:	f043 0301 	orr.w	r3, r3, #1
  403caa:	6053      	str	r3, [r2, #4]
  403cac:	e6ee      	b.n	403a8c <_malloc_r+0x2d8>
  403cae:	207f      	movs	r0, #127	; 0x7f
  403cb0:	f44f 737e 	mov.w	r3, #1016	; 0x3f8
  403cb4:	f04f 0e7e 	mov.w	lr, #126	; 0x7e
  403cb8:	e59e      	b.n	4037f8 <_malloc_r+0x44>
  403cba:	f104 0108 	add.w	r1, r4, #8
  403cbe:	4628      	mov	r0, r5
  403cc0:	9300      	str	r3, [sp, #0]
  403cc2:	f003 fdf5 	bl	4078b0 <_free_r>
  403cc6:	9b00      	ldr	r3, [sp, #0]
  403cc8:	6819      	ldr	r1, [r3, #0]
  403cca:	e6df      	b.n	403a8c <_malloc_r+0x2d8>
  403ccc:	2001      	movs	r0, #1
  403cce:	f04f 0900 	mov.w	r9, #0
  403cd2:	e6bc      	b.n	403a4e <_malloc_r+0x29a>
  403cd4:	f5b2 7faa 	cmp.w	r2, #340	; 0x154
  403cd8:	d805      	bhi.n	403ce6 <_malloc_r+0x532>
  403cda:	0bda      	lsrs	r2, r3, #15
  403cdc:	f102 0178 	add.w	r1, r2, #120	; 0x78
  403ce0:	00c9      	lsls	r1, r1, #3
  403ce2:	3277      	adds	r2, #119	; 0x77
  403ce4:	e720      	b.n	403b28 <_malloc_r+0x374>
  403ce6:	f240 5154 	movw	r1, #1364	; 0x554
  403cea:	428a      	cmp	r2, r1
  403cec:	d805      	bhi.n	403cfa <_malloc_r+0x546>
  403cee:	0c9a      	lsrs	r2, r3, #18
  403cf0:	f102 017d 	add.w	r1, r2, #125	; 0x7d
  403cf4:	00c9      	lsls	r1, r1, #3
  403cf6:	327c      	adds	r2, #124	; 0x7c
  403cf8:	e716      	b.n	403b28 <_malloc_r+0x374>
  403cfa:	f44f 717e 	mov.w	r1, #1016	; 0x3f8
  403cfe:	227e      	movs	r2, #126	; 0x7e
  403d00:	e712      	b.n	403b28 <_malloc_r+0x374>
  403d02:	687b      	ldr	r3, [r7, #4]
  403d04:	e780      	b.n	403c08 <_malloc_r+0x454>
  403d06:	08f0      	lsrs	r0, r6, #3
  403d08:	f106 0308 	add.w	r3, r6, #8
  403d0c:	e600      	b.n	403910 <_malloc_r+0x15c>
  403d0e:	bf00      	nop
  403d10:	20400dac 	.word	0x20400dac

00403d14 <memcpy>:
  403d14:	4684      	mov	ip, r0
  403d16:	ea41 0300 	orr.w	r3, r1, r0
  403d1a:	f013 0303 	ands.w	r3, r3, #3
  403d1e:	d16d      	bne.n	403dfc <memcpy+0xe8>
  403d20:	3a40      	subs	r2, #64	; 0x40
  403d22:	d341      	bcc.n	403da8 <memcpy+0x94>
  403d24:	f851 3b04 	ldr.w	r3, [r1], #4
  403d28:	f840 3b04 	str.w	r3, [r0], #4
  403d2c:	f851 3b04 	ldr.w	r3, [r1], #4
  403d30:	f840 3b04 	str.w	r3, [r0], #4
  403d34:	f851 3b04 	ldr.w	r3, [r1], #4
  403d38:	f840 3b04 	str.w	r3, [r0], #4
  403d3c:	f851 3b04 	ldr.w	r3, [r1], #4
  403d40:	f840 3b04 	str.w	r3, [r0], #4
  403d44:	f851 3b04 	ldr.w	r3, [r1], #4
  403d48:	f840 3b04 	str.w	r3, [r0], #4
  403d4c:	f851 3b04 	ldr.w	r3, [r1], #4
  403d50:	f840 3b04 	str.w	r3, [r0], #4
  403d54:	f851 3b04 	ldr.w	r3, [r1], #4
  403d58:	f840 3b04 	str.w	r3, [r0], #4
  403d5c:	f851 3b04 	ldr.w	r3, [r1], #4
  403d60:	f840 3b04 	str.w	r3, [r0], #4
  403d64:	f851 3b04 	ldr.w	r3, [r1], #4
  403d68:	f840 3b04 	str.w	r3, [r0], #4
  403d6c:	f851 3b04 	ldr.w	r3, [r1], #4
  403d70:	f840 3b04 	str.w	r3, [r0], #4
  403d74:	f851 3b04 	ldr.w	r3, [r1], #4
  403d78:	f840 3b04 	str.w	r3, [r0], #4
  403d7c:	f851 3b04 	ldr.w	r3, [r1], #4
  403d80:	f840 3b04 	str.w	r3, [r0], #4
  403d84:	f851 3b04 	ldr.w	r3, [r1], #4
  403d88:	f840 3b04 	str.w	r3, [r0], #4
  403d8c:	f851 3b04 	ldr.w	r3, [r1], #4
  403d90:	f840 3b04 	str.w	r3, [r0], #4
  403d94:	f851 3b04 	ldr.w	r3, [r1], #4
  403d98:	f840 3b04 	str.w	r3, [r0], #4
  403d9c:	f851 3b04 	ldr.w	r3, [r1], #4
  403da0:	f840 3b04 	str.w	r3, [r0], #4
  403da4:	3a40      	subs	r2, #64	; 0x40
  403da6:	d2bd      	bcs.n	403d24 <memcpy+0x10>
  403da8:	3230      	adds	r2, #48	; 0x30
  403daa:	d311      	bcc.n	403dd0 <memcpy+0xbc>
  403dac:	f851 3b04 	ldr.w	r3, [r1], #4
  403db0:	f840 3b04 	str.w	r3, [r0], #4
  403db4:	f851 3b04 	ldr.w	r3, [r1], #4
  403db8:	f840 3b04 	str.w	r3, [r0], #4
  403dbc:	f851 3b04 	ldr.w	r3, [r1], #4
  403dc0:	f840 3b04 	str.w	r3, [r0], #4
  403dc4:	f851 3b04 	ldr.w	r3, [r1], #4
  403dc8:	f840 3b04 	str.w	r3, [r0], #4
  403dcc:	3a10      	subs	r2, #16
  403dce:	d2ed      	bcs.n	403dac <memcpy+0x98>
  403dd0:	320c      	adds	r2, #12
  403dd2:	d305      	bcc.n	403de0 <memcpy+0xcc>
  403dd4:	f851 3b04 	ldr.w	r3, [r1], #4
  403dd8:	f840 3b04 	str.w	r3, [r0], #4
  403ddc:	3a04      	subs	r2, #4
  403dde:	d2f9      	bcs.n	403dd4 <memcpy+0xc0>
  403de0:	3204      	adds	r2, #4
  403de2:	d008      	beq.n	403df6 <memcpy+0xe2>
  403de4:	07d2      	lsls	r2, r2, #31
  403de6:	bf1c      	itt	ne
  403de8:	f811 3b01 	ldrbne.w	r3, [r1], #1
  403dec:	f800 3b01 	strbne.w	r3, [r0], #1
  403df0:	d301      	bcc.n	403df6 <memcpy+0xe2>
  403df2:	880b      	ldrh	r3, [r1, #0]
  403df4:	8003      	strh	r3, [r0, #0]
  403df6:	4660      	mov	r0, ip
  403df8:	4770      	bx	lr
  403dfa:	bf00      	nop
  403dfc:	2a08      	cmp	r2, #8
  403dfe:	d313      	bcc.n	403e28 <memcpy+0x114>
  403e00:	078b      	lsls	r3, r1, #30
  403e02:	d08d      	beq.n	403d20 <memcpy+0xc>
  403e04:	f010 0303 	ands.w	r3, r0, #3
  403e08:	d08a      	beq.n	403d20 <memcpy+0xc>
  403e0a:	f1c3 0304 	rsb	r3, r3, #4
  403e0e:	1ad2      	subs	r2, r2, r3
  403e10:	07db      	lsls	r3, r3, #31
  403e12:	bf1c      	itt	ne
  403e14:	f811 3b01 	ldrbne.w	r3, [r1], #1
  403e18:	f800 3b01 	strbne.w	r3, [r0], #1
  403e1c:	d380      	bcc.n	403d20 <memcpy+0xc>
  403e1e:	f831 3b02 	ldrh.w	r3, [r1], #2
  403e22:	f820 3b02 	strh.w	r3, [r0], #2
  403e26:	e77b      	b.n	403d20 <memcpy+0xc>
  403e28:	3a04      	subs	r2, #4
  403e2a:	d3d9      	bcc.n	403de0 <memcpy+0xcc>
  403e2c:	3a01      	subs	r2, #1
  403e2e:	f811 3b01 	ldrb.w	r3, [r1], #1
  403e32:	f800 3b01 	strb.w	r3, [r0], #1
  403e36:	d2f9      	bcs.n	403e2c <memcpy+0x118>
  403e38:	780b      	ldrb	r3, [r1, #0]
  403e3a:	7003      	strb	r3, [r0, #0]
  403e3c:	784b      	ldrb	r3, [r1, #1]
  403e3e:	7043      	strb	r3, [r0, #1]
  403e40:	788b      	ldrb	r3, [r1, #2]
  403e42:	7083      	strb	r3, [r0, #2]
  403e44:	4660      	mov	r0, ip
  403e46:	4770      	bx	lr

00403e48 <memset>:
  403e48:	b470      	push	{r4, r5, r6}
  403e4a:	0786      	lsls	r6, r0, #30
  403e4c:	d046      	beq.n	403edc <memset+0x94>
  403e4e:	1e54      	subs	r4, r2, #1
  403e50:	2a00      	cmp	r2, #0
  403e52:	d041      	beq.n	403ed8 <memset+0x90>
  403e54:	b2ca      	uxtb	r2, r1
  403e56:	4603      	mov	r3, r0
  403e58:	e002      	b.n	403e60 <memset+0x18>
  403e5a:	f114 34ff 	adds.w	r4, r4, #4294967295
  403e5e:	d33b      	bcc.n	403ed8 <memset+0x90>
  403e60:	f803 2b01 	strb.w	r2, [r3], #1
  403e64:	079d      	lsls	r5, r3, #30
  403e66:	d1f8      	bne.n	403e5a <memset+0x12>
  403e68:	2c03      	cmp	r4, #3
  403e6a:	d92e      	bls.n	403eca <memset+0x82>
  403e6c:	b2cd      	uxtb	r5, r1
  403e6e:	ea45 2505 	orr.w	r5, r5, r5, lsl #8
  403e72:	2c0f      	cmp	r4, #15
  403e74:	ea45 4505 	orr.w	r5, r5, r5, lsl #16
  403e78:	d919      	bls.n	403eae <memset+0x66>
  403e7a:	f103 0210 	add.w	r2, r3, #16
  403e7e:	4626      	mov	r6, r4
  403e80:	3e10      	subs	r6, #16
  403e82:	2e0f      	cmp	r6, #15
  403e84:	f842 5c10 	str.w	r5, [r2, #-16]
  403e88:	f842 5c0c 	str.w	r5, [r2, #-12]
  403e8c:	f842 5c08 	str.w	r5, [r2, #-8]
  403e90:	f842 5c04 	str.w	r5, [r2, #-4]
  403e94:	f102 0210 	add.w	r2, r2, #16
  403e98:	d8f2      	bhi.n	403e80 <memset+0x38>
  403e9a:	f1a4 0210 	sub.w	r2, r4, #16
  403e9e:	f022 020f 	bic.w	r2, r2, #15
  403ea2:	f004 040f 	and.w	r4, r4, #15
  403ea6:	3210      	adds	r2, #16
  403ea8:	2c03      	cmp	r4, #3
  403eaa:	4413      	add	r3, r2
  403eac:	d90d      	bls.n	403eca <memset+0x82>
  403eae:	461e      	mov	r6, r3
  403eb0:	4622      	mov	r2, r4
  403eb2:	3a04      	subs	r2, #4
  403eb4:	2a03      	cmp	r2, #3
  403eb6:	f846 5b04 	str.w	r5, [r6], #4
  403eba:	d8fa      	bhi.n	403eb2 <memset+0x6a>
  403ebc:	1f22      	subs	r2, r4, #4
  403ebe:	f022 0203 	bic.w	r2, r2, #3
  403ec2:	3204      	adds	r2, #4
  403ec4:	4413      	add	r3, r2
  403ec6:	f004 0403 	and.w	r4, r4, #3
  403eca:	b12c      	cbz	r4, 403ed8 <memset+0x90>
  403ecc:	b2c9      	uxtb	r1, r1
  403ece:	441c      	add	r4, r3
  403ed0:	f803 1b01 	strb.w	r1, [r3], #1
  403ed4:	429c      	cmp	r4, r3
  403ed6:	d1fb      	bne.n	403ed0 <memset+0x88>
  403ed8:	bc70      	pop	{r4, r5, r6}
  403eda:	4770      	bx	lr
  403edc:	4614      	mov	r4, r2
  403ede:	4603      	mov	r3, r0
  403ee0:	e7c2      	b.n	403e68 <memset+0x20>
  403ee2:	bf00      	nop

00403ee4 <__malloc_lock>:
  403ee4:	4801      	ldr	r0, [pc, #4]	; (403eec <__malloc_lock+0x8>)
  403ee6:	f003 bf8b 	b.w	407e00 <__retarget_lock_acquire_recursive>
  403eea:	bf00      	nop
  403eec:	20400e48 	.word	0x20400e48

00403ef0 <__malloc_unlock>:
  403ef0:	4801      	ldr	r0, [pc, #4]	; (403ef8 <__malloc_unlock+0x8>)
  403ef2:	f003 bf87 	b.w	407e04 <__retarget_lock_release_recursive>
  403ef6:	bf00      	nop
  403ef8:	20400e48 	.word	0x20400e48

00403efc <_sbrk_r>:
  403efc:	b538      	push	{r3, r4, r5, lr}
  403efe:	4c07      	ldr	r4, [pc, #28]	; (403f1c <_sbrk_r+0x20>)
  403f00:	2300      	movs	r3, #0
  403f02:	4605      	mov	r5, r0
  403f04:	4608      	mov	r0, r1
  403f06:	6023      	str	r3, [r4, #0]
  403f08:	f7fd fa18 	bl	40133c <_sbrk>
  403f0c:	1c43      	adds	r3, r0, #1
  403f0e:	d000      	beq.n	403f12 <_sbrk_r+0x16>
  403f10:	bd38      	pop	{r3, r4, r5, pc}
  403f12:	6823      	ldr	r3, [r4, #0]
  403f14:	2b00      	cmp	r3, #0
  403f16:	d0fb      	beq.n	403f10 <_sbrk_r+0x14>
  403f18:	602b      	str	r3, [r5, #0]
  403f1a:	bd38      	pop	{r3, r4, r5, pc}
  403f1c:	20400e5c 	.word	0x20400e5c

00403f20 <setbuf>:
  403f20:	2900      	cmp	r1, #0
  403f22:	bf0c      	ite	eq
  403f24:	2202      	moveq	r2, #2
  403f26:	2200      	movne	r2, #0
  403f28:	f44f 6380 	mov.w	r3, #1024	; 0x400
  403f2c:	f000 b800 	b.w	403f30 <setvbuf>

00403f30 <setvbuf>:
  403f30:	e92d 43f0 	stmdb	sp!, {r4, r5, r6, r7, r8, r9, lr}
  403f34:	4c61      	ldr	r4, [pc, #388]	; (4040bc <setvbuf+0x18c>)
  403f36:	6825      	ldr	r5, [r4, #0]
  403f38:	b083      	sub	sp, #12
  403f3a:	4604      	mov	r4, r0
  403f3c:	460f      	mov	r7, r1
  403f3e:	4690      	mov	r8, r2
  403f40:	461e      	mov	r6, r3
  403f42:	b115      	cbz	r5, 403f4a <setvbuf+0x1a>
  403f44:	6bab      	ldr	r3, [r5, #56]	; 0x38
  403f46:	2b00      	cmp	r3, #0
  403f48:	d064      	beq.n	404014 <setvbuf+0xe4>
  403f4a:	f1b8 0f02 	cmp.w	r8, #2
  403f4e:	d006      	beq.n	403f5e <setvbuf+0x2e>
  403f50:	f1b8 0f01 	cmp.w	r8, #1
  403f54:	f200 809f 	bhi.w	404096 <setvbuf+0x166>
  403f58:	2e00      	cmp	r6, #0
  403f5a:	f2c0 809c 	blt.w	404096 <setvbuf+0x166>
  403f5e:	6e63      	ldr	r3, [r4, #100]	; 0x64
  403f60:	07d8      	lsls	r0, r3, #31
  403f62:	d534      	bpl.n	403fce <setvbuf+0x9e>
  403f64:	4621      	mov	r1, r4
  403f66:	4628      	mov	r0, r5
  403f68:	f003 fb24 	bl	4075b4 <_fflush_r>
  403f6c:	6b21      	ldr	r1, [r4, #48]	; 0x30
  403f6e:	b141      	cbz	r1, 403f82 <setvbuf+0x52>
  403f70:	f104 0340 	add.w	r3, r4, #64	; 0x40
  403f74:	4299      	cmp	r1, r3
  403f76:	d002      	beq.n	403f7e <setvbuf+0x4e>
  403f78:	4628      	mov	r0, r5
  403f7a:	f003 fc99 	bl	4078b0 <_free_r>
  403f7e:	2300      	movs	r3, #0
  403f80:	6323      	str	r3, [r4, #48]	; 0x30
  403f82:	f9b4 300c 	ldrsh.w	r3, [r4, #12]
  403f86:	2200      	movs	r2, #0
  403f88:	61a2      	str	r2, [r4, #24]
  403f8a:	6062      	str	r2, [r4, #4]
  403f8c:	061a      	lsls	r2, r3, #24
  403f8e:	d43a      	bmi.n	404006 <setvbuf+0xd6>
  403f90:	f423 634a 	bic.w	r3, r3, #3232	; 0xca0
  403f94:	f023 0303 	bic.w	r3, r3, #3
  403f98:	f1b8 0f02 	cmp.w	r8, #2
  403f9c:	81a3      	strh	r3, [r4, #12]
  403f9e:	d01d      	beq.n	403fdc <setvbuf+0xac>
  403fa0:	ab01      	add	r3, sp, #4
  403fa2:	466a      	mov	r2, sp
  403fa4:	4621      	mov	r1, r4
  403fa6:	4628      	mov	r0, r5
  403fa8:	f003 ff2e 	bl	407e08 <__swhatbuf_r>
  403fac:	89a3      	ldrh	r3, [r4, #12]
  403fae:	4318      	orrs	r0, r3
  403fb0:	81a0      	strh	r0, [r4, #12]
  403fb2:	2e00      	cmp	r6, #0
  403fb4:	d132      	bne.n	40401c <setvbuf+0xec>
  403fb6:	9e00      	ldr	r6, [sp, #0]
  403fb8:	4630      	mov	r0, r6
  403fba:	f7ff fbeb 	bl	403794 <malloc>
  403fbe:	4607      	mov	r7, r0
  403fc0:	2800      	cmp	r0, #0
  403fc2:	d06b      	beq.n	40409c <setvbuf+0x16c>
  403fc4:	89a3      	ldrh	r3, [r4, #12]
  403fc6:	f043 0380 	orr.w	r3, r3, #128	; 0x80
  403fca:	81a3      	strh	r3, [r4, #12]
  403fcc:	e028      	b.n	404020 <setvbuf+0xf0>
  403fce:	89a3      	ldrh	r3, [r4, #12]
  403fd0:	0599      	lsls	r1, r3, #22
  403fd2:	d4c7      	bmi.n	403f64 <setvbuf+0x34>
  403fd4:	6da0      	ldr	r0, [r4, #88]	; 0x58
  403fd6:	f003 ff13 	bl	407e00 <__retarget_lock_acquire_recursive>
  403fda:	e7c3      	b.n	403f64 <setvbuf+0x34>
  403fdc:	2500      	movs	r5, #0
  403fde:	6e61      	ldr	r1, [r4, #100]	; 0x64
  403fe0:	2600      	movs	r6, #0
  403fe2:	f104 0243 	add.w	r2, r4, #67	; 0x43
  403fe6:	f043 0302 	orr.w	r3, r3, #2
  403fea:	2001      	movs	r0, #1
  403fec:	60a6      	str	r6, [r4, #8]
  403fee:	07ce      	lsls	r6, r1, #31
  403ff0:	81a3      	strh	r3, [r4, #12]
  403ff2:	6022      	str	r2, [r4, #0]
  403ff4:	6122      	str	r2, [r4, #16]
  403ff6:	6160      	str	r0, [r4, #20]
  403ff8:	d401      	bmi.n	403ffe <setvbuf+0xce>
  403ffa:	0598      	lsls	r0, r3, #22
  403ffc:	d53e      	bpl.n	40407c <setvbuf+0x14c>
  403ffe:	4628      	mov	r0, r5
  404000:	b003      	add	sp, #12
  404002:	e8bd 83f0 	ldmia.w	sp!, {r4, r5, r6, r7, r8, r9, pc}
  404006:	6921      	ldr	r1, [r4, #16]
  404008:	4628      	mov	r0, r5
  40400a:	f003 fc51 	bl	4078b0 <_free_r>
  40400e:	f9b4 300c 	ldrsh.w	r3, [r4, #12]
  404012:	e7bd      	b.n	403f90 <setvbuf+0x60>
  404014:	4628      	mov	r0, r5
  404016:	f003 fb25 	bl	407664 <__sinit>
  40401a:	e796      	b.n	403f4a <setvbuf+0x1a>
  40401c:	2f00      	cmp	r7, #0
  40401e:	d0cb      	beq.n	403fb8 <setvbuf+0x88>
  404020:	6bab      	ldr	r3, [r5, #56]	; 0x38
  404022:	2b00      	cmp	r3, #0
  404024:	d033      	beq.n	40408e <setvbuf+0x15e>
  404026:	9b00      	ldr	r3, [sp, #0]
  404028:	f9b4 200c 	ldrsh.w	r2, [r4, #12]
  40402c:	6027      	str	r7, [r4, #0]
  40402e:	429e      	cmp	r6, r3
  404030:	bf1c      	itt	ne
  404032:	f442 6200 	orrne.w	r2, r2, #2048	; 0x800
  404036:	81a2      	strhne	r2, [r4, #12]
  404038:	f1b8 0f01 	cmp.w	r8, #1
  40403c:	bf04      	itt	eq
  40403e:	f042 0201 	orreq.w	r2, r2, #1
  404042:	81a2      	strheq	r2, [r4, #12]
  404044:	b292      	uxth	r2, r2
  404046:	f012 0308 	ands.w	r3, r2, #8
  40404a:	6127      	str	r7, [r4, #16]
  40404c:	6166      	str	r6, [r4, #20]
  40404e:	d00e      	beq.n	40406e <setvbuf+0x13e>
  404050:	07d1      	lsls	r1, r2, #31
  404052:	d51a      	bpl.n	40408a <setvbuf+0x15a>
  404054:	6e65      	ldr	r5, [r4, #100]	; 0x64
  404056:	4276      	negs	r6, r6
  404058:	2300      	movs	r3, #0
  40405a:	f015 0501 	ands.w	r5, r5, #1
  40405e:	61a6      	str	r6, [r4, #24]
  404060:	60a3      	str	r3, [r4, #8]
  404062:	d009      	beq.n	404078 <setvbuf+0x148>
  404064:	2500      	movs	r5, #0
  404066:	4628      	mov	r0, r5
  404068:	b003      	add	sp, #12
  40406a:	e8bd 83f0 	ldmia.w	sp!, {r4, r5, r6, r7, r8, r9, pc}
  40406e:	60a3      	str	r3, [r4, #8]
  404070:	6e65      	ldr	r5, [r4, #100]	; 0x64
  404072:	f015 0501 	ands.w	r5, r5, #1
  404076:	d1f5      	bne.n	404064 <setvbuf+0x134>
  404078:	0593      	lsls	r3, r2, #22
  40407a:	d4c0      	bmi.n	403ffe <setvbuf+0xce>
  40407c:	6da0      	ldr	r0, [r4, #88]	; 0x58
  40407e:	f003 fec1 	bl	407e04 <__retarget_lock_release_recursive>
  404082:	4628      	mov	r0, r5
  404084:	b003      	add	sp, #12
  404086:	e8bd 83f0 	ldmia.w	sp!, {r4, r5, r6, r7, r8, r9, pc}
  40408a:	60a6      	str	r6, [r4, #8]
  40408c:	e7f0      	b.n	404070 <setvbuf+0x140>
  40408e:	4628      	mov	r0, r5
  404090:	f003 fae8 	bl	407664 <__sinit>
  404094:	e7c7      	b.n	404026 <setvbuf+0xf6>
  404096:	f04f 35ff 	mov.w	r5, #4294967295
  40409a:	e7b0      	b.n	403ffe <setvbuf+0xce>
  40409c:	f8dd 9000 	ldr.w	r9, [sp]
  4040a0:	45b1      	cmp	r9, r6
  4040a2:	d004      	beq.n	4040ae <setvbuf+0x17e>
  4040a4:	4648      	mov	r0, r9
  4040a6:	f7ff fb75 	bl	403794 <malloc>
  4040aa:	4607      	mov	r7, r0
  4040ac:	b920      	cbnz	r0, 4040b8 <setvbuf+0x188>
  4040ae:	f9b4 300c 	ldrsh.w	r3, [r4, #12]
  4040b2:	f04f 35ff 	mov.w	r5, #4294967295
  4040b6:	e792      	b.n	403fde <setvbuf+0xae>
  4040b8:	464e      	mov	r6, r9
  4040ba:	e783      	b.n	403fc4 <setvbuf+0x94>
  4040bc:	20400024 	.word	0x20400024

004040c0 <sprintf>:
  4040c0:	b40e      	push	{r1, r2, r3}
  4040c2:	b5f0      	push	{r4, r5, r6, r7, lr}
  4040c4:	b09c      	sub	sp, #112	; 0x70
  4040c6:	ab21      	add	r3, sp, #132	; 0x84
  4040c8:	490f      	ldr	r1, [pc, #60]	; (404108 <sprintf+0x48>)
  4040ca:	f853 2b04 	ldr.w	r2, [r3], #4
  4040ce:	9301      	str	r3, [sp, #4]
  4040d0:	4605      	mov	r5, r0
  4040d2:	f06f 4400 	mvn.w	r4, #2147483648	; 0x80000000
  4040d6:	6808      	ldr	r0, [r1, #0]
  4040d8:	9502      	str	r5, [sp, #8]
  4040da:	f44f 7702 	mov.w	r7, #520	; 0x208
  4040de:	f64f 76ff 	movw	r6, #65535	; 0xffff
  4040e2:	a902      	add	r1, sp, #8
  4040e4:	9506      	str	r5, [sp, #24]
  4040e6:	f8ad 7014 	strh.w	r7, [sp, #20]
  4040ea:	9404      	str	r4, [sp, #16]
  4040ec:	9407      	str	r4, [sp, #28]
  4040ee:	f8ad 6016 	strh.w	r6, [sp, #22]
  4040f2:	f000 f893 	bl	40421c <_svfprintf_r>
  4040f6:	9b02      	ldr	r3, [sp, #8]
  4040f8:	2200      	movs	r2, #0
  4040fa:	701a      	strb	r2, [r3, #0]
  4040fc:	b01c      	add	sp, #112	; 0x70
  4040fe:	e8bd 40f0 	ldmia.w	sp!, {r4, r5, r6, r7, lr}
  404102:	b003      	add	sp, #12
  404104:	4770      	bx	lr
  404106:	bf00      	nop
  404108:	20400024 	.word	0x20400024
	...

00404140 <strlen>:
  404140:	f890 f000 	pld	[r0]
  404144:	e96d 4502 	strd	r4, r5, [sp, #-8]!
  404148:	f020 0107 	bic.w	r1, r0, #7
  40414c:	f06f 0c00 	mvn.w	ip, #0
  404150:	f010 0407 	ands.w	r4, r0, #7
  404154:	f891 f020 	pld	[r1, #32]
  404158:	f040 8049 	bne.w	4041ee <strlen+0xae>
  40415c:	f04f 0400 	mov.w	r4, #0
  404160:	f06f 0007 	mvn.w	r0, #7
  404164:	e9d1 2300 	ldrd	r2, r3, [r1]
  404168:	f891 f040 	pld	[r1, #64]	; 0x40
  40416c:	f100 0008 	add.w	r0, r0, #8
  404170:	fa82 f24c 	uadd8	r2, r2, ip
  404174:	faa4 f28c 	sel	r2, r4, ip
  404178:	fa83 f34c 	uadd8	r3, r3, ip
  40417c:	faa2 f38c 	sel	r3, r2, ip
  404180:	bb4b      	cbnz	r3, 4041d6 <strlen+0x96>
  404182:	e9d1 2302 	ldrd	r2, r3, [r1, #8]
  404186:	fa82 f24c 	uadd8	r2, r2, ip
  40418a:	f100 0008 	add.w	r0, r0, #8
  40418e:	faa4 f28c 	sel	r2, r4, ip
  404192:	fa83 f34c 	uadd8	r3, r3, ip
  404196:	faa2 f38c 	sel	r3, r2, ip
  40419a:	b9e3      	cbnz	r3, 4041d6 <strlen+0x96>
  40419c:	e9d1 2304 	ldrd	r2, r3, [r1, #16]
  4041a0:	fa82 f24c 	uadd8	r2, r2, ip
  4041a4:	f100 0008 	add.w	r0, r0, #8
  4041a8:	faa4 f28c 	sel	r2, r4, ip
  4041ac:	fa83 f34c 	uadd8	r3, r3, ip
  4041b0:	faa2 f38c 	sel	r3, r2, ip
  4041b4:	b97b      	cbnz	r3, 4041d6 <strlen+0x96>
  4041b6:	e9d1 2306 	ldrd	r2, r3, [r1, #24]
  4041ba:	f101 0120 	add.w	r1, r1, #32
  4041be:	fa82 f24c 	uadd8	r2, r2, ip
  4041c2:	f100 0008 	add.w	r0, r0, #8
  4041c6:	faa4 f28c 	sel	r2, r4, ip
  4041ca:	fa83 f34c 	uadd8	r3, r3, ip
  4041ce:	faa2 f38c 	sel	r3, r2, ip
  4041d2:	2b00      	cmp	r3, #0
  4041d4:	d0c6      	beq.n	404164 <strlen+0x24>
  4041d6:	2a00      	cmp	r2, #0
  4041d8:	bf04      	itt	eq
  4041da:	3004      	addeq	r0, #4
  4041dc:	461a      	moveq	r2, r3
  4041de:	ba12      	rev	r2, r2
  4041e0:	fab2 f282 	clz	r2, r2
  4041e4:	e8fd 4502 	ldrd	r4, r5, [sp], #8
  4041e8:	eb00 00d2 	add.w	r0, r0, r2, lsr #3
  4041ec:	4770      	bx	lr
  4041ee:	e9d1 2300 	ldrd	r2, r3, [r1]
  4041f2:	f004 0503 	and.w	r5, r4, #3
  4041f6:	f1c4 0000 	rsb	r0, r4, #0
  4041fa:	ea4f 05c5 	mov.w	r5, r5, lsl #3
  4041fe:	f014 0f04 	tst.w	r4, #4
  404202:	f891 f040 	pld	[r1, #64]	; 0x40
  404206:	fa0c f505 	lsl.w	r5, ip, r5
  40420a:	ea62 0205 	orn	r2, r2, r5
  40420e:	bf1c      	itt	ne
  404210:	ea63 0305 	ornne	r3, r3, r5
  404214:	4662      	movne	r2, ip
  404216:	f04f 0400 	mov.w	r4, #0
  40421a:	e7a9      	b.n	404170 <strlen+0x30>

0040421c <_svfprintf_r>:
  40421c:	e92d 4ff0 	stmdb	sp!, {r4, r5, r6, r7, r8, r9, sl, fp, lr}
  404220:	b0c3      	sub	sp, #268	; 0x10c
  404222:	460c      	mov	r4, r1
  404224:	910b      	str	r1, [sp, #44]	; 0x2c
  404226:	4692      	mov	sl, r2
  404228:	930f      	str	r3, [sp, #60]	; 0x3c
  40422a:	900c      	str	r0, [sp, #48]	; 0x30
  40422c:	f003 fdd6 	bl	407ddc <_localeconv_r>
  404230:	6803      	ldr	r3, [r0, #0]
  404232:	931a      	str	r3, [sp, #104]	; 0x68
  404234:	4618      	mov	r0, r3
  404236:	f7ff ff83 	bl	404140 <strlen>
  40423a:	89a3      	ldrh	r3, [r4, #12]
  40423c:	9019      	str	r0, [sp, #100]	; 0x64
  40423e:	0619      	lsls	r1, r3, #24
  404240:	d503      	bpl.n	40424a <_svfprintf_r+0x2e>
  404242:	6923      	ldr	r3, [r4, #16]
  404244:	2b00      	cmp	r3, #0
  404246:	f001 8003 	beq.w	405250 <_svfprintf_r+0x1034>
  40424a:	2300      	movs	r3, #0
  40424c:	f10d 09c8 	add.w	r9, sp, #200	; 0xc8
  404250:	9313      	str	r3, [sp, #76]	; 0x4c
  404252:	9315      	str	r3, [sp, #84]	; 0x54
  404254:	9314      	str	r3, [sp, #80]	; 0x50
  404256:	9327      	str	r3, [sp, #156]	; 0x9c
  404258:	9326      	str	r3, [sp, #152]	; 0x98
  40425a:	9318      	str	r3, [sp, #96]	; 0x60
  40425c:	931b      	str	r3, [sp, #108]	; 0x6c
  40425e:	9309      	str	r3, [sp, #36]	; 0x24
  404260:	f8cd 9094 	str.w	r9, [sp, #148]	; 0x94
  404264:	46c8      	mov	r8, r9
  404266:	9316      	str	r3, [sp, #88]	; 0x58
  404268:	9317      	str	r3, [sp, #92]	; 0x5c
  40426a:	f89a 3000 	ldrb.w	r3, [sl]
  40426e:	4654      	mov	r4, sl
  404270:	b1e3      	cbz	r3, 4042ac <_svfprintf_r+0x90>
  404272:	2b25      	cmp	r3, #37	; 0x25
  404274:	d102      	bne.n	40427c <_svfprintf_r+0x60>
  404276:	e019      	b.n	4042ac <_svfprintf_r+0x90>
  404278:	2b25      	cmp	r3, #37	; 0x25
  40427a:	d003      	beq.n	404284 <_svfprintf_r+0x68>
  40427c:	f814 3f01 	ldrb.w	r3, [r4, #1]!
  404280:	2b00      	cmp	r3, #0
  404282:	d1f9      	bne.n	404278 <_svfprintf_r+0x5c>
  404284:	eba4 050a 	sub.w	r5, r4, sl
  404288:	b185      	cbz	r5, 4042ac <_svfprintf_r+0x90>
  40428a:	9b26      	ldr	r3, [sp, #152]	; 0x98
  40428c:	9a27      	ldr	r2, [sp, #156]	; 0x9c
  40428e:	f8c8 a000 	str.w	sl, [r8]
  404292:	3301      	adds	r3, #1
  404294:	442a      	add	r2, r5
  404296:	2b07      	cmp	r3, #7
  404298:	f8c8 5004 	str.w	r5, [r8, #4]
  40429c:	9227      	str	r2, [sp, #156]	; 0x9c
  40429e:	9326      	str	r3, [sp, #152]	; 0x98
  4042a0:	dc7f      	bgt.n	4043a2 <_svfprintf_r+0x186>
  4042a2:	f108 0808 	add.w	r8, r8, #8
  4042a6:	9b09      	ldr	r3, [sp, #36]	; 0x24
  4042a8:	442b      	add	r3, r5
  4042aa:	9309      	str	r3, [sp, #36]	; 0x24
  4042ac:	7823      	ldrb	r3, [r4, #0]
  4042ae:	2b00      	cmp	r3, #0
  4042b0:	d07f      	beq.n	4043b2 <_svfprintf_r+0x196>
  4042b2:	2300      	movs	r3, #0
  4042b4:	461a      	mov	r2, r3
  4042b6:	f88d 3077 	strb.w	r3, [sp, #119]	; 0x77
  4042ba:	4619      	mov	r1, r3
  4042bc:	930d      	str	r3, [sp, #52]	; 0x34
  4042be:	469b      	mov	fp, r3
  4042c0:	f04f 30ff 	mov.w	r0, #4294967295
  4042c4:	7863      	ldrb	r3, [r4, #1]
  4042c6:	900a      	str	r0, [sp, #40]	; 0x28
  4042c8:	f104 0a01 	add.w	sl, r4, #1
  4042cc:	f10a 0a01 	add.w	sl, sl, #1
  4042d0:	f1a3 0020 	sub.w	r0, r3, #32
  4042d4:	2858      	cmp	r0, #88	; 0x58
  4042d6:	f200 83c1 	bhi.w	404a5c <_svfprintf_r+0x840>
  4042da:	e8df f010 	tbh	[pc, r0, lsl #1]
  4042de:	0238      	.short	0x0238
  4042e0:	03bf03bf 	.word	0x03bf03bf
  4042e4:	03bf0240 	.word	0x03bf0240
  4042e8:	03bf03bf 	.word	0x03bf03bf
  4042ec:	03bf03bf 	.word	0x03bf03bf
  4042f0:	024503bf 	.word	0x024503bf
  4042f4:	03bf0203 	.word	0x03bf0203
  4042f8:	026b005d 	.word	0x026b005d
  4042fc:	028603bf 	.word	0x028603bf
  404300:	039d039d 	.word	0x039d039d
  404304:	039d039d 	.word	0x039d039d
  404308:	039d039d 	.word	0x039d039d
  40430c:	039d039d 	.word	0x039d039d
  404310:	03bf039d 	.word	0x03bf039d
  404314:	03bf03bf 	.word	0x03bf03bf
  404318:	03bf03bf 	.word	0x03bf03bf
  40431c:	03bf03bf 	.word	0x03bf03bf
  404320:	03bf03bf 	.word	0x03bf03bf
  404324:	033703bf 	.word	0x033703bf
  404328:	03bf0357 	.word	0x03bf0357
  40432c:	03bf0357 	.word	0x03bf0357
  404330:	03bf03bf 	.word	0x03bf03bf
  404334:	039803bf 	.word	0x039803bf
  404338:	03bf03bf 	.word	0x03bf03bf
  40433c:	03bf03ad 	.word	0x03bf03ad
  404340:	03bf03bf 	.word	0x03bf03bf
  404344:	03bf03bf 	.word	0x03bf03bf
  404348:	03bf0259 	.word	0x03bf0259
  40434c:	031e03bf 	.word	0x031e03bf
  404350:	03bf03bf 	.word	0x03bf03bf
  404354:	03bf03bf 	.word	0x03bf03bf
  404358:	03bf03bf 	.word	0x03bf03bf
  40435c:	03bf03bf 	.word	0x03bf03bf
  404360:	03bf03bf 	.word	0x03bf03bf
  404364:	02db02c6 	.word	0x02db02c6
  404368:	03570357 	.word	0x03570357
  40436c:	028b0357 	.word	0x028b0357
  404370:	03bf02db 	.word	0x03bf02db
  404374:	029003bf 	.word	0x029003bf
  404378:	029d03bf 	.word	0x029d03bf
  40437c:	02b401cc 	.word	0x02b401cc
  404380:	03bf0208 	.word	0x03bf0208
  404384:	03bf01e1 	.word	0x03bf01e1
  404388:	03bf007e 	.word	0x03bf007e
  40438c:	020d03bf 	.word	0x020d03bf
  404390:	980d      	ldr	r0, [sp, #52]	; 0x34
  404392:	930f      	str	r3, [sp, #60]	; 0x3c
  404394:	4240      	negs	r0, r0
  404396:	900d      	str	r0, [sp, #52]	; 0x34
  404398:	f04b 0b04 	orr.w	fp, fp, #4
  40439c:	f89a 3000 	ldrb.w	r3, [sl]
  4043a0:	e794      	b.n	4042cc <_svfprintf_r+0xb0>
  4043a2:	aa25      	add	r2, sp, #148	; 0x94
  4043a4:	990b      	ldr	r1, [sp, #44]	; 0x2c
  4043a6:	980c      	ldr	r0, [sp, #48]	; 0x30
  4043a8:	f004 fb5a 	bl	408a60 <__ssprint_r>
  4043ac:	b940      	cbnz	r0, 4043c0 <_svfprintf_r+0x1a4>
  4043ae:	46c8      	mov	r8, r9
  4043b0:	e779      	b.n	4042a6 <_svfprintf_r+0x8a>
  4043b2:	9b27      	ldr	r3, [sp, #156]	; 0x9c
  4043b4:	b123      	cbz	r3, 4043c0 <_svfprintf_r+0x1a4>
  4043b6:	980c      	ldr	r0, [sp, #48]	; 0x30
  4043b8:	990b      	ldr	r1, [sp, #44]	; 0x2c
  4043ba:	aa25      	add	r2, sp, #148	; 0x94
  4043bc:	f004 fb50 	bl	408a60 <__ssprint_r>
  4043c0:	9b0b      	ldr	r3, [sp, #44]	; 0x2c
  4043c2:	899b      	ldrh	r3, [r3, #12]
  4043c4:	f013 0f40 	tst.w	r3, #64	; 0x40
  4043c8:	9b09      	ldr	r3, [sp, #36]	; 0x24
  4043ca:	bf18      	it	ne
  4043cc:	f04f 33ff 	movne.w	r3, #4294967295
  4043d0:	9309      	str	r3, [sp, #36]	; 0x24
  4043d2:	9809      	ldr	r0, [sp, #36]	; 0x24
  4043d4:	b043      	add	sp, #268	; 0x10c
  4043d6:	e8bd 8ff0 	ldmia.w	sp!, {r4, r5, r6, r7, r8, r9, sl, fp, pc}
  4043da:	f01b 0f20 	tst.w	fp, #32
  4043de:	9311      	str	r3, [sp, #68]	; 0x44
  4043e0:	f040 81dd 	bne.w	40479e <_svfprintf_r+0x582>
  4043e4:	9a0f      	ldr	r2, [sp, #60]	; 0x3c
  4043e6:	f01b 0f10 	tst.w	fp, #16
  4043ea:	4613      	mov	r3, r2
  4043ec:	f040 856e 	bne.w	404ecc <_svfprintf_r+0xcb0>
  4043f0:	f01b 0f40 	tst.w	fp, #64	; 0x40
  4043f4:	f000 856a 	beq.w	404ecc <_svfprintf_r+0xcb0>
  4043f8:	8814      	ldrh	r4, [r2, #0]
  4043fa:	3204      	adds	r2, #4
  4043fc:	2500      	movs	r5, #0
  4043fe:	2301      	movs	r3, #1
  404400:	920f      	str	r2, [sp, #60]	; 0x3c
  404402:	2700      	movs	r7, #0
  404404:	f88d 7077 	strb.w	r7, [sp, #119]	; 0x77
  404408:	990a      	ldr	r1, [sp, #40]	; 0x28
  40440a:	1c4a      	adds	r2, r1, #1
  40440c:	f000 8265 	beq.w	4048da <_svfprintf_r+0x6be>
  404410:	f02b 0280 	bic.w	r2, fp, #128	; 0x80
  404414:	9207      	str	r2, [sp, #28]
  404416:	ea54 0205 	orrs.w	r2, r4, r5
  40441a:	f040 8264 	bne.w	4048e6 <_svfprintf_r+0x6ca>
  40441e:	2900      	cmp	r1, #0
  404420:	f040 843c 	bne.w	404c9c <_svfprintf_r+0xa80>
  404424:	2b00      	cmp	r3, #0
  404426:	f040 84d7 	bne.w	404dd8 <_svfprintf_r+0xbbc>
  40442a:	f01b 0301 	ands.w	r3, fp, #1
  40442e:	930e      	str	r3, [sp, #56]	; 0x38
  404430:	f000 8604 	beq.w	40503c <_svfprintf_r+0xe20>
  404434:	ae42      	add	r6, sp, #264	; 0x108
  404436:	2330      	movs	r3, #48	; 0x30
  404438:	f806 3d41 	strb.w	r3, [r6, #-65]!
  40443c:	9b0a      	ldr	r3, [sp, #40]	; 0x28
  40443e:	9a0e      	ldr	r2, [sp, #56]	; 0x38
  404440:	4293      	cmp	r3, r2
  404442:	bfb8      	it	lt
  404444:	4613      	movlt	r3, r2
  404446:	9308      	str	r3, [sp, #32]
  404448:	2300      	movs	r3, #0
  40444a:	9312      	str	r3, [sp, #72]	; 0x48
  40444c:	b117      	cbz	r7, 404454 <_svfprintf_r+0x238>
  40444e:	9b08      	ldr	r3, [sp, #32]
  404450:	3301      	adds	r3, #1
  404452:	9308      	str	r3, [sp, #32]
  404454:	9b07      	ldr	r3, [sp, #28]
  404456:	f013 0302 	ands.w	r3, r3, #2
  40445a:	9310      	str	r3, [sp, #64]	; 0x40
  40445c:	d002      	beq.n	404464 <_svfprintf_r+0x248>
  40445e:	9b08      	ldr	r3, [sp, #32]
  404460:	3302      	adds	r3, #2
  404462:	9308      	str	r3, [sp, #32]
  404464:	9b07      	ldr	r3, [sp, #28]
  404466:	f013 0584 	ands.w	r5, r3, #132	; 0x84
  40446a:	f040 830e 	bne.w	404a8a <_svfprintf_r+0x86e>
  40446e:	9b0d      	ldr	r3, [sp, #52]	; 0x34
  404470:	9a08      	ldr	r2, [sp, #32]
  404472:	eba3 0b02 	sub.w	fp, r3, r2
  404476:	f1bb 0f00 	cmp.w	fp, #0
  40447a:	f340 8306 	ble.w	404a8a <_svfprintf_r+0x86e>
  40447e:	f1bb 0f10 	cmp.w	fp, #16
  404482:	9c27      	ldr	r4, [sp, #156]	; 0x9c
  404484:	9a26      	ldr	r2, [sp, #152]	; 0x98
  404486:	dd29      	ble.n	4044dc <_svfprintf_r+0x2c0>
  404488:	4643      	mov	r3, r8
  40448a:	4621      	mov	r1, r4
  40448c:	46a8      	mov	r8, r5
  40448e:	2710      	movs	r7, #16
  404490:	9c0c      	ldr	r4, [sp, #48]	; 0x30
  404492:	9d0b      	ldr	r5, [sp, #44]	; 0x2c
  404494:	e006      	b.n	4044a4 <_svfprintf_r+0x288>
  404496:	f1ab 0b10 	sub.w	fp, fp, #16
  40449a:	f1bb 0f10 	cmp.w	fp, #16
  40449e:	f103 0308 	add.w	r3, r3, #8
  4044a2:	dd18      	ble.n	4044d6 <_svfprintf_r+0x2ba>
  4044a4:	3201      	adds	r2, #1
  4044a6:	48b7      	ldr	r0, [pc, #732]	; (404784 <_svfprintf_r+0x568>)
  4044a8:	9226      	str	r2, [sp, #152]	; 0x98
  4044aa:	3110      	adds	r1, #16
  4044ac:	2a07      	cmp	r2, #7
  4044ae:	9127      	str	r1, [sp, #156]	; 0x9c
  4044b0:	e883 0081 	stmia.w	r3, {r0, r7}
  4044b4:	ddef      	ble.n	404496 <_svfprintf_r+0x27a>
  4044b6:	aa25      	add	r2, sp, #148	; 0x94
  4044b8:	4629      	mov	r1, r5
  4044ba:	4620      	mov	r0, r4
  4044bc:	f004 fad0 	bl	408a60 <__ssprint_r>
  4044c0:	2800      	cmp	r0, #0
  4044c2:	f47f af7d 	bne.w	4043c0 <_svfprintf_r+0x1a4>
  4044c6:	f1ab 0b10 	sub.w	fp, fp, #16
  4044ca:	f1bb 0f10 	cmp.w	fp, #16
  4044ce:	9927      	ldr	r1, [sp, #156]	; 0x9c
  4044d0:	9a26      	ldr	r2, [sp, #152]	; 0x98
  4044d2:	464b      	mov	r3, r9
  4044d4:	dce6      	bgt.n	4044a4 <_svfprintf_r+0x288>
  4044d6:	4645      	mov	r5, r8
  4044d8:	460c      	mov	r4, r1
  4044da:	4698      	mov	r8, r3
  4044dc:	3201      	adds	r2, #1
  4044de:	4ba9      	ldr	r3, [pc, #676]	; (404784 <_svfprintf_r+0x568>)
  4044e0:	9226      	str	r2, [sp, #152]	; 0x98
  4044e2:	445c      	add	r4, fp
  4044e4:	2a07      	cmp	r2, #7
  4044e6:	9427      	str	r4, [sp, #156]	; 0x9c
  4044e8:	e888 0808 	stmia.w	r8, {r3, fp}
  4044ec:	f300 8498 	bgt.w	404e20 <_svfprintf_r+0xc04>
  4044f0:	f89d 7077 	ldrb.w	r7, [sp, #119]	; 0x77
  4044f4:	f108 0808 	add.w	r8, r8, #8
  4044f8:	b177      	cbz	r7, 404518 <_svfprintf_r+0x2fc>
  4044fa:	9b26      	ldr	r3, [sp, #152]	; 0x98
  4044fc:	3301      	adds	r3, #1
  4044fe:	3401      	adds	r4, #1
  404500:	f10d 0177 	add.w	r1, sp, #119	; 0x77
  404504:	2201      	movs	r2, #1
  404506:	2b07      	cmp	r3, #7
  404508:	9427      	str	r4, [sp, #156]	; 0x9c
  40450a:	9326      	str	r3, [sp, #152]	; 0x98
  40450c:	e888 0006 	stmia.w	r8, {r1, r2}
  404510:	f300 83db 	bgt.w	404cca <_svfprintf_r+0xaae>
  404514:	f108 0808 	add.w	r8, r8, #8
  404518:	9b10      	ldr	r3, [sp, #64]	; 0x40
  40451a:	b16b      	cbz	r3, 404538 <_svfprintf_r+0x31c>
  40451c:	9b26      	ldr	r3, [sp, #152]	; 0x98
  40451e:	3301      	adds	r3, #1
  404520:	3402      	adds	r4, #2
  404522:	a91e      	add	r1, sp, #120	; 0x78
  404524:	2202      	movs	r2, #2
  404526:	2b07      	cmp	r3, #7
  404528:	9427      	str	r4, [sp, #156]	; 0x9c
  40452a:	9326      	str	r3, [sp, #152]	; 0x98
  40452c:	e888 0006 	stmia.w	r8, {r1, r2}
  404530:	f300 83d6 	bgt.w	404ce0 <_svfprintf_r+0xac4>
  404534:	f108 0808 	add.w	r8, r8, #8
  404538:	2d80      	cmp	r5, #128	; 0x80
  40453a:	f000 8315 	beq.w	404b68 <_svfprintf_r+0x94c>
  40453e:	9b0a      	ldr	r3, [sp, #40]	; 0x28
  404540:	9a0e      	ldr	r2, [sp, #56]	; 0x38
  404542:	1a9f      	subs	r7, r3, r2
  404544:	2f00      	cmp	r7, #0
  404546:	dd36      	ble.n	4045b6 <_svfprintf_r+0x39a>
  404548:	2f10      	cmp	r7, #16
  40454a:	9b26      	ldr	r3, [sp, #152]	; 0x98
  40454c:	4d8e      	ldr	r5, [pc, #568]	; (404788 <_svfprintf_r+0x56c>)
  40454e:	dd27      	ble.n	4045a0 <_svfprintf_r+0x384>
  404550:	4642      	mov	r2, r8
  404552:	4621      	mov	r1, r4
  404554:	46b0      	mov	r8, r6
  404556:	f04f 0b10 	mov.w	fp, #16
  40455a:	462e      	mov	r6, r5
  40455c:	9c0c      	ldr	r4, [sp, #48]	; 0x30
  40455e:	9d0b      	ldr	r5, [sp, #44]	; 0x2c
  404560:	e004      	b.n	40456c <_svfprintf_r+0x350>
  404562:	3f10      	subs	r7, #16
  404564:	2f10      	cmp	r7, #16
  404566:	f102 0208 	add.w	r2, r2, #8
  40456a:	dd15      	ble.n	404598 <_svfprintf_r+0x37c>
  40456c:	3301      	adds	r3, #1
  40456e:	3110      	adds	r1, #16
  404570:	2b07      	cmp	r3, #7
  404572:	9127      	str	r1, [sp, #156]	; 0x9c
  404574:	9326      	str	r3, [sp, #152]	; 0x98
  404576:	e882 0840 	stmia.w	r2, {r6, fp}
  40457a:	ddf2      	ble.n	404562 <_svfprintf_r+0x346>
  40457c:	aa25      	add	r2, sp, #148	; 0x94
  40457e:	4629      	mov	r1, r5
  404580:	4620      	mov	r0, r4
  404582:	f004 fa6d 	bl	408a60 <__ssprint_r>
  404586:	2800      	cmp	r0, #0
  404588:	f47f af1a 	bne.w	4043c0 <_svfprintf_r+0x1a4>
  40458c:	3f10      	subs	r7, #16
  40458e:	2f10      	cmp	r7, #16
  404590:	9927      	ldr	r1, [sp, #156]	; 0x9c
  404592:	9b26      	ldr	r3, [sp, #152]	; 0x98
  404594:	464a      	mov	r2, r9
  404596:	dce9      	bgt.n	40456c <_svfprintf_r+0x350>
  404598:	4635      	mov	r5, r6
  40459a:	460c      	mov	r4, r1
  40459c:	4646      	mov	r6, r8
  40459e:	4690      	mov	r8, r2
  4045a0:	3301      	adds	r3, #1
  4045a2:	443c      	add	r4, r7
  4045a4:	2b07      	cmp	r3, #7
  4045a6:	9427      	str	r4, [sp, #156]	; 0x9c
  4045a8:	9326      	str	r3, [sp, #152]	; 0x98
  4045aa:	e888 00a0 	stmia.w	r8, {r5, r7}
  4045ae:	f300 8381 	bgt.w	404cb4 <_svfprintf_r+0xa98>
  4045b2:	f108 0808 	add.w	r8, r8, #8
  4045b6:	9b07      	ldr	r3, [sp, #28]
  4045b8:	05df      	lsls	r7, r3, #23
  4045ba:	f100 8268 	bmi.w	404a8e <_svfprintf_r+0x872>
  4045be:	9b26      	ldr	r3, [sp, #152]	; 0x98
  4045c0:	990e      	ldr	r1, [sp, #56]	; 0x38
  4045c2:	f8c8 6000 	str.w	r6, [r8]
  4045c6:	3301      	adds	r3, #1
  4045c8:	440c      	add	r4, r1
  4045ca:	2b07      	cmp	r3, #7
  4045cc:	9427      	str	r4, [sp, #156]	; 0x9c
  4045ce:	f8c8 1004 	str.w	r1, [r8, #4]
  4045d2:	9326      	str	r3, [sp, #152]	; 0x98
  4045d4:	f300 834d 	bgt.w	404c72 <_svfprintf_r+0xa56>
  4045d8:	f108 0808 	add.w	r8, r8, #8
  4045dc:	9b07      	ldr	r3, [sp, #28]
  4045de:	075b      	lsls	r3, r3, #29
  4045e0:	d53a      	bpl.n	404658 <_svfprintf_r+0x43c>
  4045e2:	9b0d      	ldr	r3, [sp, #52]	; 0x34
  4045e4:	9a08      	ldr	r2, [sp, #32]
  4045e6:	1a9d      	subs	r5, r3, r2
  4045e8:	2d00      	cmp	r5, #0
  4045ea:	dd35      	ble.n	404658 <_svfprintf_r+0x43c>
  4045ec:	2d10      	cmp	r5, #16
  4045ee:	9b26      	ldr	r3, [sp, #152]	; 0x98
  4045f0:	dd20      	ble.n	404634 <_svfprintf_r+0x418>
  4045f2:	2610      	movs	r6, #16
  4045f4:	9f0c      	ldr	r7, [sp, #48]	; 0x30
  4045f6:	f8dd b02c 	ldr.w	fp, [sp, #44]	; 0x2c
  4045fa:	e004      	b.n	404606 <_svfprintf_r+0x3ea>
  4045fc:	3d10      	subs	r5, #16
  4045fe:	2d10      	cmp	r5, #16
  404600:	f108 0808 	add.w	r8, r8, #8
  404604:	dd16      	ble.n	404634 <_svfprintf_r+0x418>
  404606:	3301      	adds	r3, #1
  404608:	4a5e      	ldr	r2, [pc, #376]	; (404784 <_svfprintf_r+0x568>)
  40460a:	9326      	str	r3, [sp, #152]	; 0x98
  40460c:	3410      	adds	r4, #16
  40460e:	2b07      	cmp	r3, #7
  404610:	9427      	str	r4, [sp, #156]	; 0x9c
  404612:	e888 0044 	stmia.w	r8, {r2, r6}
  404616:	ddf1      	ble.n	4045fc <_svfprintf_r+0x3e0>
  404618:	aa25      	add	r2, sp, #148	; 0x94
  40461a:	4659      	mov	r1, fp
  40461c:	4638      	mov	r0, r7
  40461e:	f004 fa1f 	bl	408a60 <__ssprint_r>
  404622:	2800      	cmp	r0, #0
  404624:	f47f aecc 	bne.w	4043c0 <_svfprintf_r+0x1a4>
  404628:	3d10      	subs	r5, #16
  40462a:	2d10      	cmp	r5, #16
  40462c:	9c27      	ldr	r4, [sp, #156]	; 0x9c
  40462e:	9b26      	ldr	r3, [sp, #152]	; 0x98
  404630:	46c8      	mov	r8, r9
  404632:	dce8      	bgt.n	404606 <_svfprintf_r+0x3ea>
  404634:	3301      	adds	r3, #1
  404636:	4a53      	ldr	r2, [pc, #332]	; (404784 <_svfprintf_r+0x568>)
  404638:	9326      	str	r3, [sp, #152]	; 0x98
  40463a:	442c      	add	r4, r5
  40463c:	2b07      	cmp	r3, #7
  40463e:	9427      	str	r4, [sp, #156]	; 0x9c
  404640:	e888 0024 	stmia.w	r8, {r2, r5}
  404644:	dd08      	ble.n	404658 <_svfprintf_r+0x43c>
  404646:	aa25      	add	r2, sp, #148	; 0x94
  404648:	990b      	ldr	r1, [sp, #44]	; 0x2c
  40464a:	980c      	ldr	r0, [sp, #48]	; 0x30
  40464c:	f004 fa08 	bl	408a60 <__ssprint_r>
  404650:	2800      	cmp	r0, #0
  404652:	f47f aeb5 	bne.w	4043c0 <_svfprintf_r+0x1a4>
  404656:	9c27      	ldr	r4, [sp, #156]	; 0x9c
  404658:	9b09      	ldr	r3, [sp, #36]	; 0x24
  40465a:	9a0d      	ldr	r2, [sp, #52]	; 0x34
  40465c:	9908      	ldr	r1, [sp, #32]
  40465e:	428a      	cmp	r2, r1
  404660:	bfac      	ite	ge
  404662:	189b      	addge	r3, r3, r2
  404664:	185b      	addlt	r3, r3, r1
  404666:	9309      	str	r3, [sp, #36]	; 0x24
  404668:	2c00      	cmp	r4, #0
  40466a:	f040 830d 	bne.w	404c88 <_svfprintf_r+0xa6c>
  40466e:	2300      	movs	r3, #0
  404670:	9326      	str	r3, [sp, #152]	; 0x98
  404672:	46c8      	mov	r8, r9
  404674:	e5f9      	b.n	40426a <_svfprintf_r+0x4e>
  404676:	9311      	str	r3, [sp, #68]	; 0x44
  404678:	f01b 0320 	ands.w	r3, fp, #32
  40467c:	f040 81e3 	bne.w	404a46 <_svfprintf_r+0x82a>
  404680:	f01b 0210 	ands.w	r2, fp, #16
  404684:	f040 842e 	bne.w	404ee4 <_svfprintf_r+0xcc8>
  404688:	f01b 0340 	ands.w	r3, fp, #64	; 0x40
  40468c:	f000 842a 	beq.w	404ee4 <_svfprintf_r+0xcc8>
  404690:	990f      	ldr	r1, [sp, #60]	; 0x3c
  404692:	4613      	mov	r3, r2
  404694:	460a      	mov	r2, r1
  404696:	3204      	adds	r2, #4
  404698:	880c      	ldrh	r4, [r1, #0]
  40469a:	920f      	str	r2, [sp, #60]	; 0x3c
  40469c:	2500      	movs	r5, #0
  40469e:	e6b0      	b.n	404402 <_svfprintf_r+0x1e6>
  4046a0:	9a0f      	ldr	r2, [sp, #60]	; 0x3c
  4046a2:	9311      	str	r3, [sp, #68]	; 0x44
  4046a4:	6816      	ldr	r6, [r2, #0]
  4046a6:	2400      	movs	r4, #0
  4046a8:	f88d 4077 	strb.w	r4, [sp, #119]	; 0x77
  4046ac:	1d15      	adds	r5, r2, #4
  4046ae:	2e00      	cmp	r6, #0
  4046b0:	f000 86a7 	beq.w	405402 <_svfprintf_r+0x11e6>
  4046b4:	9a0a      	ldr	r2, [sp, #40]	; 0x28
  4046b6:	1c53      	adds	r3, r2, #1
  4046b8:	f000 8609 	beq.w	4052ce <_svfprintf_r+0x10b2>
  4046bc:	4621      	mov	r1, r4
  4046be:	4630      	mov	r0, r6
  4046c0:	f003 fc36 	bl	407f30 <memchr>
  4046c4:	2800      	cmp	r0, #0
  4046c6:	f000 86e1 	beq.w	40548c <_svfprintf_r+0x1270>
  4046ca:	1b83      	subs	r3, r0, r6
  4046cc:	930e      	str	r3, [sp, #56]	; 0x38
  4046ce:	940a      	str	r4, [sp, #40]	; 0x28
  4046d0:	950f      	str	r5, [sp, #60]	; 0x3c
  4046d2:	f8cd b01c 	str.w	fp, [sp, #28]
  4046d6:	ea23 73e3 	bic.w	r3, r3, r3, asr #31
  4046da:	9308      	str	r3, [sp, #32]
  4046dc:	9412      	str	r4, [sp, #72]	; 0x48
  4046de:	f89d 7077 	ldrb.w	r7, [sp, #119]	; 0x77
  4046e2:	e6b3      	b.n	40444c <_svfprintf_r+0x230>
  4046e4:	f89a 3000 	ldrb.w	r3, [sl]
  4046e8:	2201      	movs	r2, #1
  4046ea:	212b      	movs	r1, #43	; 0x2b
  4046ec:	e5ee      	b.n	4042cc <_svfprintf_r+0xb0>
  4046ee:	f04b 0b20 	orr.w	fp, fp, #32
  4046f2:	f89a 3000 	ldrb.w	r3, [sl]
  4046f6:	e5e9      	b.n	4042cc <_svfprintf_r+0xb0>
  4046f8:	9311      	str	r3, [sp, #68]	; 0x44
  4046fa:	2a00      	cmp	r2, #0
  4046fc:	f040 8795 	bne.w	40562a <_svfprintf_r+0x140e>
  404700:	4b22      	ldr	r3, [pc, #136]	; (40478c <_svfprintf_r+0x570>)
  404702:	9318      	str	r3, [sp, #96]	; 0x60
  404704:	f01b 0f20 	tst.w	fp, #32
  404708:	f040 8111 	bne.w	40492e <_svfprintf_r+0x712>
  40470c:	9a0f      	ldr	r2, [sp, #60]	; 0x3c
  40470e:	f01b 0f10 	tst.w	fp, #16
  404712:	4613      	mov	r3, r2
  404714:	f040 83e1 	bne.w	404eda <_svfprintf_r+0xcbe>
  404718:	f01b 0f40 	tst.w	fp, #64	; 0x40
  40471c:	f000 83dd 	beq.w	404eda <_svfprintf_r+0xcbe>
  404720:	3304      	adds	r3, #4
  404722:	8814      	ldrh	r4, [r2, #0]
  404724:	930f      	str	r3, [sp, #60]	; 0x3c
  404726:	2500      	movs	r5, #0
  404728:	f01b 0f01 	tst.w	fp, #1
  40472c:	f000 810c 	beq.w	404948 <_svfprintf_r+0x72c>
  404730:	ea54 0305 	orrs.w	r3, r4, r5
  404734:	f000 8108 	beq.w	404948 <_svfprintf_r+0x72c>
  404738:	2330      	movs	r3, #48	; 0x30
  40473a:	f89d 2044 	ldrb.w	r2, [sp, #68]	; 0x44
  40473e:	f88d 3078 	strb.w	r3, [sp, #120]	; 0x78
  404742:	f88d 2079 	strb.w	r2, [sp, #121]	; 0x79
  404746:	f04b 0b02 	orr.w	fp, fp, #2
  40474a:	2302      	movs	r3, #2
  40474c:	e659      	b.n	404402 <_svfprintf_r+0x1e6>
  40474e:	f89a 3000 	ldrb.w	r3, [sl]
  404752:	2900      	cmp	r1, #0
  404754:	f47f adba 	bne.w	4042cc <_svfprintf_r+0xb0>
  404758:	2201      	movs	r2, #1
  40475a:	2120      	movs	r1, #32
  40475c:	e5b6      	b.n	4042cc <_svfprintf_r+0xb0>
  40475e:	f04b 0b01 	orr.w	fp, fp, #1
  404762:	f89a 3000 	ldrb.w	r3, [sl]
  404766:	e5b1      	b.n	4042cc <_svfprintf_r+0xb0>
  404768:	9c0f      	ldr	r4, [sp, #60]	; 0x3c
  40476a:	6823      	ldr	r3, [r4, #0]
  40476c:	930d      	str	r3, [sp, #52]	; 0x34
  40476e:	4618      	mov	r0, r3
  404770:	2800      	cmp	r0, #0
  404772:	4623      	mov	r3, r4
  404774:	f103 0304 	add.w	r3, r3, #4
  404778:	f6ff ae0a 	blt.w	404390 <_svfprintf_r+0x174>
  40477c:	930f      	str	r3, [sp, #60]	; 0x3c
  40477e:	f89a 3000 	ldrb.w	r3, [sl]
  404782:	e5a3      	b.n	4042cc <_svfprintf_r+0xb0>
  404784:	00409f7c 	.word	0x00409f7c
  404788:	00409f8c 	.word	0x00409f8c
  40478c:	00409f5c 	.word	0x00409f5c
  404790:	f04b 0b10 	orr.w	fp, fp, #16
  404794:	f01b 0f20 	tst.w	fp, #32
  404798:	9311      	str	r3, [sp, #68]	; 0x44
  40479a:	f43f ae23 	beq.w	4043e4 <_svfprintf_r+0x1c8>
  40479e:	9d0f      	ldr	r5, [sp, #60]	; 0x3c
  4047a0:	3507      	adds	r5, #7
  4047a2:	f025 0307 	bic.w	r3, r5, #7
  4047a6:	f103 0208 	add.w	r2, r3, #8
  4047aa:	e9d3 4500 	ldrd	r4, r5, [r3]
  4047ae:	920f      	str	r2, [sp, #60]	; 0x3c
  4047b0:	2301      	movs	r3, #1
  4047b2:	e626      	b.n	404402 <_svfprintf_r+0x1e6>
  4047b4:	f89a 3000 	ldrb.w	r3, [sl]
  4047b8:	2b2a      	cmp	r3, #42	; 0x2a
  4047ba:	f10a 0401 	add.w	r4, sl, #1
  4047be:	f000 8727 	beq.w	405610 <_svfprintf_r+0x13f4>
  4047c2:	f1a3 0030 	sub.w	r0, r3, #48	; 0x30
  4047c6:	2809      	cmp	r0, #9
  4047c8:	46a2      	mov	sl, r4
  4047ca:	f200 86ad 	bhi.w	405528 <_svfprintf_r+0x130c>
  4047ce:	2300      	movs	r3, #0
  4047d0:	461c      	mov	r4, r3
  4047d2:	f81a 3b01 	ldrb.w	r3, [sl], #1
  4047d6:	eb04 0484 	add.w	r4, r4, r4, lsl #2
  4047da:	eb00 0444 	add.w	r4, r0, r4, lsl #1
  4047de:	f1a3 0030 	sub.w	r0, r3, #48	; 0x30
  4047e2:	2809      	cmp	r0, #9
  4047e4:	d9f5      	bls.n	4047d2 <_svfprintf_r+0x5b6>
  4047e6:	940a      	str	r4, [sp, #40]	; 0x28
  4047e8:	e572      	b.n	4042d0 <_svfprintf_r+0xb4>
  4047ea:	f04b 0b80 	orr.w	fp, fp, #128	; 0x80
  4047ee:	f89a 3000 	ldrb.w	r3, [sl]
  4047f2:	e56b      	b.n	4042cc <_svfprintf_r+0xb0>
  4047f4:	f04b 0b40 	orr.w	fp, fp, #64	; 0x40
  4047f8:	f89a 3000 	ldrb.w	r3, [sl]
  4047fc:	e566      	b.n	4042cc <_svfprintf_r+0xb0>
  4047fe:	f89a 3000 	ldrb.w	r3, [sl]
  404802:	2b6c      	cmp	r3, #108	; 0x6c
  404804:	bf03      	ittte	eq
  404806:	f89a 3001 	ldrbeq.w	r3, [sl, #1]
  40480a:	f04b 0b20 	orreq.w	fp, fp, #32
  40480e:	f10a 0a01 	addeq.w	sl, sl, #1
  404812:	f04b 0b10 	orrne.w	fp, fp, #16
  404816:	e559      	b.n	4042cc <_svfprintf_r+0xb0>
  404818:	2a00      	cmp	r2, #0
  40481a:	f040 8711 	bne.w	405640 <_svfprintf_r+0x1424>
  40481e:	f01b 0f20 	tst.w	fp, #32
  404822:	f040 84f9 	bne.w	405218 <_svfprintf_r+0xffc>
  404826:	f01b 0f10 	tst.w	fp, #16
  40482a:	f040 84ac 	bne.w	405186 <_svfprintf_r+0xf6a>
  40482e:	f01b 0f40 	tst.w	fp, #64	; 0x40
  404832:	f000 84a8 	beq.w	405186 <_svfprintf_r+0xf6a>
  404836:	9a0f      	ldr	r2, [sp, #60]	; 0x3c
  404838:	6813      	ldr	r3, [r2, #0]
  40483a:	3204      	adds	r2, #4
  40483c:	920f      	str	r2, [sp, #60]	; 0x3c
  40483e:	f8bd 2024 	ldrh.w	r2, [sp, #36]	; 0x24
  404842:	801a      	strh	r2, [r3, #0]
  404844:	e511      	b.n	40426a <_svfprintf_r+0x4e>
  404846:	990f      	ldr	r1, [sp, #60]	; 0x3c
  404848:	4bb3      	ldr	r3, [pc, #716]	; (404b18 <_svfprintf_r+0x8fc>)
  40484a:	680c      	ldr	r4, [r1, #0]
  40484c:	9318      	str	r3, [sp, #96]	; 0x60
  40484e:	2230      	movs	r2, #48	; 0x30
  404850:	2378      	movs	r3, #120	; 0x78
  404852:	3104      	adds	r1, #4
  404854:	f88d 3079 	strb.w	r3, [sp, #121]	; 0x79
  404858:	9311      	str	r3, [sp, #68]	; 0x44
  40485a:	f04b 0b02 	orr.w	fp, fp, #2
  40485e:	910f      	str	r1, [sp, #60]	; 0x3c
  404860:	2500      	movs	r5, #0
  404862:	f88d 2078 	strb.w	r2, [sp, #120]	; 0x78
  404866:	2302      	movs	r3, #2
  404868:	e5cb      	b.n	404402 <_svfprintf_r+0x1e6>
  40486a:	990f      	ldr	r1, [sp, #60]	; 0x3c
  40486c:	9311      	str	r3, [sp, #68]	; 0x44
  40486e:	680a      	ldr	r2, [r1, #0]
  404870:	f88d 20a0 	strb.w	r2, [sp, #160]	; 0xa0
  404874:	2300      	movs	r3, #0
  404876:	460a      	mov	r2, r1
  404878:	461f      	mov	r7, r3
  40487a:	f88d 3077 	strb.w	r3, [sp, #119]	; 0x77
  40487e:	3204      	adds	r2, #4
  404880:	2301      	movs	r3, #1
  404882:	9308      	str	r3, [sp, #32]
  404884:	f8cd b01c 	str.w	fp, [sp, #28]
  404888:	970a      	str	r7, [sp, #40]	; 0x28
  40488a:	9712      	str	r7, [sp, #72]	; 0x48
  40488c:	920f      	str	r2, [sp, #60]	; 0x3c
  40488e:	930e      	str	r3, [sp, #56]	; 0x38
  404890:	ae28      	add	r6, sp, #160	; 0xa0
  404892:	e5df      	b.n	404454 <_svfprintf_r+0x238>
  404894:	9311      	str	r3, [sp, #68]	; 0x44
  404896:	2a00      	cmp	r2, #0
  404898:	f040 86ea 	bne.w	405670 <_svfprintf_r+0x1454>
  40489c:	f01b 0f20 	tst.w	fp, #32
  4048a0:	d15d      	bne.n	40495e <_svfprintf_r+0x742>
  4048a2:	f01b 0f10 	tst.w	fp, #16
  4048a6:	f040 8308 	bne.w	404eba <_svfprintf_r+0xc9e>
  4048aa:	f01b 0f40 	tst.w	fp, #64	; 0x40
  4048ae:	f000 8304 	beq.w	404eba <_svfprintf_r+0xc9e>
  4048b2:	990f      	ldr	r1, [sp, #60]	; 0x3c
  4048b4:	f9b1 4000 	ldrsh.w	r4, [r1]
  4048b8:	3104      	adds	r1, #4
  4048ba:	17e5      	asrs	r5, r4, #31
  4048bc:	4622      	mov	r2, r4
  4048be:	462b      	mov	r3, r5
  4048c0:	910f      	str	r1, [sp, #60]	; 0x3c
  4048c2:	2a00      	cmp	r2, #0
  4048c4:	f173 0300 	sbcs.w	r3, r3, #0
  4048c8:	db58      	blt.n	40497c <_svfprintf_r+0x760>
  4048ca:	990a      	ldr	r1, [sp, #40]	; 0x28
  4048cc:	f89d 7077 	ldrb.w	r7, [sp, #119]	; 0x77
  4048d0:	1c4a      	adds	r2, r1, #1
  4048d2:	f04f 0301 	mov.w	r3, #1
  4048d6:	f47f ad9b 	bne.w	404410 <_svfprintf_r+0x1f4>
  4048da:	ea54 0205 	orrs.w	r2, r4, r5
  4048de:	f000 81df 	beq.w	404ca0 <_svfprintf_r+0xa84>
  4048e2:	f8cd b01c 	str.w	fp, [sp, #28]
  4048e6:	2b01      	cmp	r3, #1
  4048e8:	f000 827b 	beq.w	404de2 <_svfprintf_r+0xbc6>
  4048ec:	2b02      	cmp	r3, #2
  4048ee:	f040 8206 	bne.w	404cfe <_svfprintf_r+0xae2>
  4048f2:	9818      	ldr	r0, [sp, #96]	; 0x60
  4048f4:	464e      	mov	r6, r9
  4048f6:	0923      	lsrs	r3, r4, #4
  4048f8:	f004 010f 	and.w	r1, r4, #15
  4048fc:	ea43 7305 	orr.w	r3, r3, r5, lsl #28
  404900:	092a      	lsrs	r2, r5, #4
  404902:	461c      	mov	r4, r3
  404904:	4615      	mov	r5, r2
  404906:	5c43      	ldrb	r3, [r0, r1]
  404908:	f806 3d01 	strb.w	r3, [r6, #-1]!
  40490c:	ea54 0305 	orrs.w	r3, r4, r5
  404910:	d1f1      	bne.n	4048f6 <_svfprintf_r+0x6da>
  404912:	eba9 0306 	sub.w	r3, r9, r6
  404916:	930e      	str	r3, [sp, #56]	; 0x38
  404918:	e590      	b.n	40443c <_svfprintf_r+0x220>
  40491a:	9311      	str	r3, [sp, #68]	; 0x44
  40491c:	2a00      	cmp	r2, #0
  40491e:	f040 86a3 	bne.w	405668 <_svfprintf_r+0x144c>
  404922:	4b7e      	ldr	r3, [pc, #504]	; (404b1c <_svfprintf_r+0x900>)
  404924:	9318      	str	r3, [sp, #96]	; 0x60
  404926:	f01b 0f20 	tst.w	fp, #32
  40492a:	f43f aeef 	beq.w	40470c <_svfprintf_r+0x4f0>
  40492e:	9d0f      	ldr	r5, [sp, #60]	; 0x3c
  404930:	3507      	adds	r5, #7
  404932:	f025 0307 	bic.w	r3, r5, #7
  404936:	f103 0208 	add.w	r2, r3, #8
  40493a:	f01b 0f01 	tst.w	fp, #1
  40493e:	920f      	str	r2, [sp, #60]	; 0x3c
  404940:	e9d3 4500 	ldrd	r4, r5, [r3]
  404944:	f47f aef4 	bne.w	404730 <_svfprintf_r+0x514>
  404948:	2302      	movs	r3, #2
  40494a:	e55a      	b.n	404402 <_svfprintf_r+0x1e6>
  40494c:	9311      	str	r3, [sp, #68]	; 0x44
  40494e:	2a00      	cmp	r2, #0
  404950:	f040 8686 	bne.w	405660 <_svfprintf_r+0x1444>
  404954:	f04b 0b10 	orr.w	fp, fp, #16
  404958:	f01b 0f20 	tst.w	fp, #32
  40495c:	d0a1      	beq.n	4048a2 <_svfprintf_r+0x686>
  40495e:	9d0f      	ldr	r5, [sp, #60]	; 0x3c
  404960:	3507      	adds	r5, #7
  404962:	f025 0507 	bic.w	r5, r5, #7
  404966:	e9d5 2300 	ldrd	r2, r3, [r5]
  40496a:	2a00      	cmp	r2, #0
  40496c:	f105 0108 	add.w	r1, r5, #8
  404970:	461d      	mov	r5, r3
  404972:	f173 0300 	sbcs.w	r3, r3, #0
  404976:	910f      	str	r1, [sp, #60]	; 0x3c
  404978:	4614      	mov	r4, r2
  40497a:	daa6      	bge.n	4048ca <_svfprintf_r+0x6ae>
  40497c:	272d      	movs	r7, #45	; 0x2d
  40497e:	4264      	negs	r4, r4
  404980:	eb65 0545 	sbc.w	r5, r5, r5, lsl #1
  404984:	f88d 7077 	strb.w	r7, [sp, #119]	; 0x77
  404988:	2301      	movs	r3, #1
  40498a:	e53d      	b.n	404408 <_svfprintf_r+0x1ec>
  40498c:	9311      	str	r3, [sp, #68]	; 0x44
  40498e:	2a00      	cmp	r2, #0
  404990:	f040 8662 	bne.w	405658 <_svfprintf_r+0x143c>
  404994:	9d0f      	ldr	r5, [sp, #60]	; 0x3c
  404996:	3507      	adds	r5, #7
  404998:	f025 0307 	bic.w	r3, r5, #7
  40499c:	f103 0208 	add.w	r2, r3, #8
  4049a0:	920f      	str	r2, [sp, #60]	; 0x3c
  4049a2:	681a      	ldr	r2, [r3, #0]
  4049a4:	9215      	str	r2, [sp, #84]	; 0x54
  4049a6:	685b      	ldr	r3, [r3, #4]
  4049a8:	9314      	str	r3, [sp, #80]	; 0x50
  4049aa:	9b14      	ldr	r3, [sp, #80]	; 0x50
  4049ac:	9d15      	ldr	r5, [sp, #84]	; 0x54
  4049ae:	f023 4400 	bic.w	r4, r3, #2147483648	; 0x80000000
  4049b2:	4628      	mov	r0, r5
  4049b4:	4621      	mov	r1, r4
  4049b6:	f04f 32ff 	mov.w	r2, #4294967295
  4049ba:	4b59      	ldr	r3, [pc, #356]	; (404b20 <_svfprintf_r+0x904>)
  4049bc:	f004 ff1e 	bl	4097fc <__aeabi_dcmpun>
  4049c0:	2800      	cmp	r0, #0
  4049c2:	f040 834a 	bne.w	40505a <_svfprintf_r+0xe3e>
  4049c6:	4628      	mov	r0, r5
  4049c8:	4621      	mov	r1, r4
  4049ca:	f04f 32ff 	mov.w	r2, #4294967295
  4049ce:	4b54      	ldr	r3, [pc, #336]	; (404b20 <_svfprintf_r+0x904>)
  4049d0:	f004 fef6 	bl	4097c0 <__aeabi_dcmple>
  4049d4:	2800      	cmp	r0, #0
  4049d6:	f040 8340 	bne.w	40505a <_svfprintf_r+0xe3e>
  4049da:	a815      	add	r0, sp, #84	; 0x54
  4049dc:	c80d      	ldmia	r0, {r0, r2, r3}
  4049de:	9914      	ldr	r1, [sp, #80]	; 0x50
  4049e0:	f004 fee4 	bl	4097ac <__aeabi_dcmplt>
  4049e4:	2800      	cmp	r0, #0
  4049e6:	f040 8530 	bne.w	40544a <_svfprintf_r+0x122e>
  4049ea:	f89d 7077 	ldrb.w	r7, [sp, #119]	; 0x77
  4049ee:	4e4d      	ldr	r6, [pc, #308]	; (404b24 <_svfprintf_r+0x908>)
  4049f0:	4b4d      	ldr	r3, [pc, #308]	; (404b28 <_svfprintf_r+0x90c>)
  4049f2:	f02b 0080 	bic.w	r0, fp, #128	; 0x80
  4049f6:	9007      	str	r0, [sp, #28]
  4049f8:	9811      	ldr	r0, [sp, #68]	; 0x44
  4049fa:	2203      	movs	r2, #3
  4049fc:	2100      	movs	r1, #0
  4049fe:	9208      	str	r2, [sp, #32]
  404a00:	910a      	str	r1, [sp, #40]	; 0x28
  404a02:	2847      	cmp	r0, #71	; 0x47
  404a04:	bfd8      	it	le
  404a06:	461e      	movle	r6, r3
  404a08:	920e      	str	r2, [sp, #56]	; 0x38
  404a0a:	9112      	str	r1, [sp, #72]	; 0x48
  404a0c:	e51e      	b.n	40444c <_svfprintf_r+0x230>
  404a0e:	f04b 0b08 	orr.w	fp, fp, #8
  404a12:	f89a 3000 	ldrb.w	r3, [sl]
  404a16:	e459      	b.n	4042cc <_svfprintf_r+0xb0>
  404a18:	f1a3 0030 	sub.w	r0, r3, #48	; 0x30
  404a1c:	2300      	movs	r3, #0
  404a1e:	461c      	mov	r4, r3
  404a20:	f81a 3b01 	ldrb.w	r3, [sl], #1
  404a24:	eb04 0484 	add.w	r4, r4, r4, lsl #2
  404a28:	eb00 0444 	add.w	r4, r0, r4, lsl #1
  404a2c:	f1a3 0030 	sub.w	r0, r3, #48	; 0x30
  404a30:	2809      	cmp	r0, #9
  404a32:	d9f5      	bls.n	404a20 <_svfprintf_r+0x804>
  404a34:	940d      	str	r4, [sp, #52]	; 0x34
  404a36:	e44b      	b.n	4042d0 <_svfprintf_r+0xb4>
  404a38:	f04b 0b10 	orr.w	fp, fp, #16
  404a3c:	9311      	str	r3, [sp, #68]	; 0x44
  404a3e:	f01b 0320 	ands.w	r3, fp, #32
  404a42:	f43f ae1d 	beq.w	404680 <_svfprintf_r+0x464>
  404a46:	9d0f      	ldr	r5, [sp, #60]	; 0x3c
  404a48:	3507      	adds	r5, #7
  404a4a:	f025 0307 	bic.w	r3, r5, #7
  404a4e:	f103 0208 	add.w	r2, r3, #8
  404a52:	e9d3 4500 	ldrd	r4, r5, [r3]
  404a56:	920f      	str	r2, [sp, #60]	; 0x3c
  404a58:	2300      	movs	r3, #0
  404a5a:	e4d2      	b.n	404402 <_svfprintf_r+0x1e6>
  404a5c:	9311      	str	r3, [sp, #68]	; 0x44
  404a5e:	2a00      	cmp	r2, #0
  404a60:	f040 85e7 	bne.w	405632 <_svfprintf_r+0x1416>
  404a64:	9a11      	ldr	r2, [sp, #68]	; 0x44
  404a66:	2a00      	cmp	r2, #0
  404a68:	f43f aca3 	beq.w	4043b2 <_svfprintf_r+0x196>
  404a6c:	2300      	movs	r3, #0
  404a6e:	2101      	movs	r1, #1
  404a70:	461f      	mov	r7, r3
  404a72:	9108      	str	r1, [sp, #32]
  404a74:	f88d 20a0 	strb.w	r2, [sp, #160]	; 0xa0
  404a78:	f8cd b01c 	str.w	fp, [sp, #28]
  404a7c:	f88d 3077 	strb.w	r3, [sp, #119]	; 0x77
  404a80:	930a      	str	r3, [sp, #40]	; 0x28
  404a82:	9312      	str	r3, [sp, #72]	; 0x48
  404a84:	910e      	str	r1, [sp, #56]	; 0x38
  404a86:	ae28      	add	r6, sp, #160	; 0xa0
  404a88:	e4e4      	b.n	404454 <_svfprintf_r+0x238>
  404a8a:	9c27      	ldr	r4, [sp, #156]	; 0x9c
  404a8c:	e534      	b.n	4044f8 <_svfprintf_r+0x2dc>
  404a8e:	9b11      	ldr	r3, [sp, #68]	; 0x44
  404a90:	2b65      	cmp	r3, #101	; 0x65
  404a92:	f340 80a7 	ble.w	404be4 <_svfprintf_r+0x9c8>
  404a96:	a815      	add	r0, sp, #84	; 0x54
  404a98:	c80d      	ldmia	r0, {r0, r2, r3}
  404a9a:	9914      	ldr	r1, [sp, #80]	; 0x50
  404a9c:	f004 fe7c 	bl	409798 <__aeabi_dcmpeq>
  404aa0:	2800      	cmp	r0, #0
  404aa2:	f000 8150 	beq.w	404d46 <_svfprintf_r+0xb2a>
  404aa6:	9b26      	ldr	r3, [sp, #152]	; 0x98
  404aa8:	4a20      	ldr	r2, [pc, #128]	; (404b2c <_svfprintf_r+0x910>)
  404aaa:	f8c8 2000 	str.w	r2, [r8]
  404aae:	3301      	adds	r3, #1
  404ab0:	3401      	adds	r4, #1
  404ab2:	2201      	movs	r2, #1
  404ab4:	2b07      	cmp	r3, #7
  404ab6:	9427      	str	r4, [sp, #156]	; 0x9c
  404ab8:	9326      	str	r3, [sp, #152]	; 0x98
  404aba:	f8c8 2004 	str.w	r2, [r8, #4]
  404abe:	f300 836a 	bgt.w	405196 <_svfprintf_r+0xf7a>
  404ac2:	f108 0808 	add.w	r8, r8, #8
  404ac6:	9b1f      	ldr	r3, [sp, #124]	; 0x7c
  404ac8:	9a13      	ldr	r2, [sp, #76]	; 0x4c
  404aca:	9c27      	ldr	r4, [sp, #156]	; 0x9c
  404acc:	4293      	cmp	r3, r2
  404ace:	db03      	blt.n	404ad8 <_svfprintf_r+0x8bc>
  404ad0:	9b07      	ldr	r3, [sp, #28]
  404ad2:	07dd      	lsls	r5, r3, #31
  404ad4:	f57f ad82 	bpl.w	4045dc <_svfprintf_r+0x3c0>
  404ad8:	9b26      	ldr	r3, [sp, #152]	; 0x98
  404ada:	9919      	ldr	r1, [sp, #100]	; 0x64
  404adc:	9a1a      	ldr	r2, [sp, #104]	; 0x68
  404ade:	f8c8 2000 	str.w	r2, [r8]
  404ae2:	3301      	adds	r3, #1
  404ae4:	440c      	add	r4, r1
  404ae6:	2b07      	cmp	r3, #7
  404ae8:	f8c8 1004 	str.w	r1, [r8, #4]
  404aec:	9427      	str	r4, [sp, #156]	; 0x9c
  404aee:	9326      	str	r3, [sp, #152]	; 0x98
  404af0:	f300 839e 	bgt.w	405230 <_svfprintf_r+0x1014>
  404af4:	f108 0808 	add.w	r8, r8, #8
  404af8:	9b13      	ldr	r3, [sp, #76]	; 0x4c
  404afa:	1e5e      	subs	r6, r3, #1
  404afc:	2e00      	cmp	r6, #0
  404afe:	f77f ad6d 	ble.w	4045dc <_svfprintf_r+0x3c0>
  404b02:	2e10      	cmp	r6, #16
  404b04:	9b26      	ldr	r3, [sp, #152]	; 0x98
  404b06:	4d0a      	ldr	r5, [pc, #40]	; (404b30 <_svfprintf_r+0x914>)
  404b08:	f340 81f5 	ble.w	404ef6 <_svfprintf_r+0xcda>
  404b0c:	4622      	mov	r2, r4
  404b0e:	2710      	movs	r7, #16
  404b10:	f8dd b030 	ldr.w	fp, [sp, #48]	; 0x30
  404b14:	9c0b      	ldr	r4, [sp, #44]	; 0x2c
  404b16:	e013      	b.n	404b40 <_svfprintf_r+0x924>
  404b18:	00409f5c 	.word	0x00409f5c
  404b1c:	00409f48 	.word	0x00409f48
  404b20:	7fefffff 	.word	0x7fefffff
  404b24:	00409f3c 	.word	0x00409f3c
  404b28:	00409f38 	.word	0x00409f38
  404b2c:	00409f78 	.word	0x00409f78
  404b30:	00409f8c 	.word	0x00409f8c
  404b34:	f108 0808 	add.w	r8, r8, #8
  404b38:	3e10      	subs	r6, #16
  404b3a:	2e10      	cmp	r6, #16
  404b3c:	f340 81da 	ble.w	404ef4 <_svfprintf_r+0xcd8>
  404b40:	3301      	adds	r3, #1
  404b42:	3210      	adds	r2, #16
  404b44:	2b07      	cmp	r3, #7
  404b46:	9227      	str	r2, [sp, #156]	; 0x9c
  404b48:	9326      	str	r3, [sp, #152]	; 0x98
  404b4a:	e888 00a0 	stmia.w	r8, {r5, r7}
  404b4e:	ddf1      	ble.n	404b34 <_svfprintf_r+0x918>
  404b50:	aa25      	add	r2, sp, #148	; 0x94
  404b52:	4621      	mov	r1, r4
  404b54:	4658      	mov	r0, fp
  404b56:	f003 ff83 	bl	408a60 <__ssprint_r>
  404b5a:	2800      	cmp	r0, #0
  404b5c:	f47f ac30 	bne.w	4043c0 <_svfprintf_r+0x1a4>
  404b60:	9a27      	ldr	r2, [sp, #156]	; 0x9c
  404b62:	9b26      	ldr	r3, [sp, #152]	; 0x98
  404b64:	46c8      	mov	r8, r9
  404b66:	e7e7      	b.n	404b38 <_svfprintf_r+0x91c>
  404b68:	9b0d      	ldr	r3, [sp, #52]	; 0x34
  404b6a:	9a08      	ldr	r2, [sp, #32]
  404b6c:	1a9f      	subs	r7, r3, r2
  404b6e:	2f00      	cmp	r7, #0
  404b70:	f77f ace5 	ble.w	40453e <_svfprintf_r+0x322>
  404b74:	2f10      	cmp	r7, #16
  404b76:	9b26      	ldr	r3, [sp, #152]	; 0x98
  404b78:	4db6      	ldr	r5, [pc, #728]	; (404e54 <_svfprintf_r+0xc38>)
  404b7a:	dd27      	ble.n	404bcc <_svfprintf_r+0x9b0>
  404b7c:	4642      	mov	r2, r8
  404b7e:	4621      	mov	r1, r4
  404b80:	46b0      	mov	r8, r6
  404b82:	f04f 0b10 	mov.w	fp, #16
  404b86:	462e      	mov	r6, r5
  404b88:	9c0c      	ldr	r4, [sp, #48]	; 0x30
  404b8a:	9d0b      	ldr	r5, [sp, #44]	; 0x2c
  404b8c:	e004      	b.n	404b98 <_svfprintf_r+0x97c>
  404b8e:	3f10      	subs	r7, #16
  404b90:	2f10      	cmp	r7, #16
  404b92:	f102 0208 	add.w	r2, r2, #8
  404b96:	dd15      	ble.n	404bc4 <_svfprintf_r+0x9a8>
  404b98:	3301      	adds	r3, #1
  404b9a:	3110      	adds	r1, #16
  404b9c:	2b07      	cmp	r3, #7
  404b9e:	9127      	str	r1, [sp, #156]	; 0x9c
  404ba0:	9326      	str	r3, [sp, #152]	; 0x98
  404ba2:	e882 0840 	stmia.w	r2, {r6, fp}
  404ba6:	ddf2      	ble.n	404b8e <_svfprintf_r+0x972>
  404ba8:	aa25      	add	r2, sp, #148	; 0x94
  404baa:	4629      	mov	r1, r5
  404bac:	4620      	mov	r0, r4
  404bae:	f003 ff57 	bl	408a60 <__ssprint_r>
  404bb2:	2800      	cmp	r0, #0
  404bb4:	f47f ac04 	bne.w	4043c0 <_svfprintf_r+0x1a4>
  404bb8:	3f10      	subs	r7, #16
  404bba:	2f10      	cmp	r7, #16
  404bbc:	9927      	ldr	r1, [sp, #156]	; 0x9c
  404bbe:	9b26      	ldr	r3, [sp, #152]	; 0x98
  404bc0:	464a      	mov	r2, r9
  404bc2:	dce9      	bgt.n	404b98 <_svfprintf_r+0x97c>
  404bc4:	4635      	mov	r5, r6
  404bc6:	460c      	mov	r4, r1
  404bc8:	4646      	mov	r6, r8
  404bca:	4690      	mov	r8, r2
  404bcc:	3301      	adds	r3, #1
  404bce:	443c      	add	r4, r7
  404bd0:	2b07      	cmp	r3, #7
  404bd2:	9427      	str	r4, [sp, #156]	; 0x9c
  404bd4:	9326      	str	r3, [sp, #152]	; 0x98
  404bd6:	e888 00a0 	stmia.w	r8, {r5, r7}
  404bda:	f300 8232 	bgt.w	405042 <_svfprintf_r+0xe26>
  404bde:	f108 0808 	add.w	r8, r8, #8
  404be2:	e4ac      	b.n	40453e <_svfprintf_r+0x322>
  404be4:	9b13      	ldr	r3, [sp, #76]	; 0x4c
  404be6:	9f26      	ldr	r7, [sp, #152]	; 0x98
  404be8:	2b01      	cmp	r3, #1
  404bea:	f340 81fe 	ble.w	404fea <_svfprintf_r+0xdce>
  404bee:	3701      	adds	r7, #1
  404bf0:	3401      	adds	r4, #1
  404bf2:	2301      	movs	r3, #1
  404bf4:	2f07      	cmp	r7, #7
  404bf6:	9427      	str	r4, [sp, #156]	; 0x9c
  404bf8:	9726      	str	r7, [sp, #152]	; 0x98
  404bfa:	f8c8 6000 	str.w	r6, [r8]
  404bfe:	f8c8 3004 	str.w	r3, [r8, #4]
  404c02:	f300 8203 	bgt.w	40500c <_svfprintf_r+0xdf0>
  404c06:	f108 0808 	add.w	r8, r8, #8
  404c0a:	9a19      	ldr	r2, [sp, #100]	; 0x64
  404c0c:	9b1a      	ldr	r3, [sp, #104]	; 0x68
  404c0e:	f8c8 3000 	str.w	r3, [r8]
  404c12:	3701      	adds	r7, #1
  404c14:	4414      	add	r4, r2
  404c16:	2f07      	cmp	r7, #7
  404c18:	9427      	str	r4, [sp, #156]	; 0x9c
  404c1a:	9726      	str	r7, [sp, #152]	; 0x98
  404c1c:	f8c8 2004 	str.w	r2, [r8, #4]
  404c20:	f300 8200 	bgt.w	405024 <_svfprintf_r+0xe08>
  404c24:	f108 0808 	add.w	r8, r8, #8
  404c28:	a815      	add	r0, sp, #84	; 0x54
  404c2a:	c80d      	ldmia	r0, {r0, r2, r3}
  404c2c:	9914      	ldr	r1, [sp, #80]	; 0x50
  404c2e:	f004 fdb3 	bl	409798 <__aeabi_dcmpeq>
  404c32:	9b13      	ldr	r3, [sp, #76]	; 0x4c
  404c34:	2800      	cmp	r0, #0
  404c36:	f040 8101 	bne.w	404e3c <_svfprintf_r+0xc20>
  404c3a:	3b01      	subs	r3, #1
  404c3c:	3701      	adds	r7, #1
  404c3e:	3601      	adds	r6, #1
  404c40:	441c      	add	r4, r3
  404c42:	2f07      	cmp	r7, #7
  404c44:	9726      	str	r7, [sp, #152]	; 0x98
  404c46:	9427      	str	r4, [sp, #156]	; 0x9c
  404c48:	f8c8 6000 	str.w	r6, [r8]
  404c4c:	f8c8 3004 	str.w	r3, [r8, #4]
  404c50:	f300 8127 	bgt.w	404ea2 <_svfprintf_r+0xc86>
  404c54:	f108 0808 	add.w	r8, r8, #8
  404c58:	9a1b      	ldr	r2, [sp, #108]	; 0x6c
  404c5a:	f8c8 2004 	str.w	r2, [r8, #4]
  404c5e:	3701      	adds	r7, #1
  404c60:	4414      	add	r4, r2
  404c62:	ab21      	add	r3, sp, #132	; 0x84
  404c64:	2f07      	cmp	r7, #7
  404c66:	9427      	str	r4, [sp, #156]	; 0x9c
  404c68:	9726      	str	r7, [sp, #152]	; 0x98
  404c6a:	f8c8 3000 	str.w	r3, [r8]
  404c6e:	f77f acb3 	ble.w	4045d8 <_svfprintf_r+0x3bc>
  404c72:	aa25      	add	r2, sp, #148	; 0x94
  404c74:	990b      	ldr	r1, [sp, #44]	; 0x2c
  404c76:	980c      	ldr	r0, [sp, #48]	; 0x30
  404c78:	f003 fef2 	bl	408a60 <__ssprint_r>
  404c7c:	2800      	cmp	r0, #0
  404c7e:	f47f ab9f 	bne.w	4043c0 <_svfprintf_r+0x1a4>
  404c82:	9c27      	ldr	r4, [sp, #156]	; 0x9c
  404c84:	46c8      	mov	r8, r9
  404c86:	e4a9      	b.n	4045dc <_svfprintf_r+0x3c0>
  404c88:	aa25      	add	r2, sp, #148	; 0x94
  404c8a:	990b      	ldr	r1, [sp, #44]	; 0x2c
  404c8c:	980c      	ldr	r0, [sp, #48]	; 0x30
  404c8e:	f003 fee7 	bl	408a60 <__ssprint_r>
  404c92:	2800      	cmp	r0, #0
  404c94:	f43f aceb 	beq.w	40466e <_svfprintf_r+0x452>
  404c98:	f7ff bb92 	b.w	4043c0 <_svfprintf_r+0x1a4>
  404c9c:	f8dd b01c 	ldr.w	fp, [sp, #28]
  404ca0:	2b01      	cmp	r3, #1
  404ca2:	f000 8134 	beq.w	404f0e <_svfprintf_r+0xcf2>
  404ca6:	2b02      	cmp	r3, #2
  404ca8:	d125      	bne.n	404cf6 <_svfprintf_r+0xada>
  404caa:	f8cd b01c 	str.w	fp, [sp, #28]
  404cae:	2400      	movs	r4, #0
  404cb0:	2500      	movs	r5, #0
  404cb2:	e61e      	b.n	4048f2 <_svfprintf_r+0x6d6>
  404cb4:	aa25      	add	r2, sp, #148	; 0x94
  404cb6:	990b      	ldr	r1, [sp, #44]	; 0x2c
  404cb8:	980c      	ldr	r0, [sp, #48]	; 0x30
  404cba:	f003 fed1 	bl	408a60 <__ssprint_r>
  404cbe:	2800      	cmp	r0, #0
  404cc0:	f47f ab7e 	bne.w	4043c0 <_svfprintf_r+0x1a4>
  404cc4:	9c27      	ldr	r4, [sp, #156]	; 0x9c
  404cc6:	46c8      	mov	r8, r9
  404cc8:	e475      	b.n	4045b6 <_svfprintf_r+0x39a>
  404cca:	aa25      	add	r2, sp, #148	; 0x94
  404ccc:	990b      	ldr	r1, [sp, #44]	; 0x2c
  404cce:	980c      	ldr	r0, [sp, #48]	; 0x30
  404cd0:	f003 fec6 	bl	408a60 <__ssprint_r>
  404cd4:	2800      	cmp	r0, #0
  404cd6:	f47f ab73 	bne.w	4043c0 <_svfprintf_r+0x1a4>
  404cda:	9c27      	ldr	r4, [sp, #156]	; 0x9c
  404cdc:	46c8      	mov	r8, r9
  404cde:	e41b      	b.n	404518 <_svfprintf_r+0x2fc>
  404ce0:	aa25      	add	r2, sp, #148	; 0x94
  404ce2:	990b      	ldr	r1, [sp, #44]	; 0x2c
  404ce4:	980c      	ldr	r0, [sp, #48]	; 0x30
  404ce6:	f003 febb 	bl	408a60 <__ssprint_r>
  404cea:	2800      	cmp	r0, #0
  404cec:	f47f ab68 	bne.w	4043c0 <_svfprintf_r+0x1a4>
  404cf0:	9c27      	ldr	r4, [sp, #156]	; 0x9c
  404cf2:	46c8      	mov	r8, r9
  404cf4:	e420      	b.n	404538 <_svfprintf_r+0x31c>
  404cf6:	f8cd b01c 	str.w	fp, [sp, #28]
  404cfa:	2400      	movs	r4, #0
  404cfc:	2500      	movs	r5, #0
  404cfe:	4649      	mov	r1, r9
  404d00:	e000      	b.n	404d04 <_svfprintf_r+0xae8>
  404d02:	4631      	mov	r1, r6
  404d04:	08e2      	lsrs	r2, r4, #3
  404d06:	ea42 7245 	orr.w	r2, r2, r5, lsl #29
  404d0a:	08e8      	lsrs	r0, r5, #3
  404d0c:	f004 0307 	and.w	r3, r4, #7
  404d10:	4605      	mov	r5, r0
  404d12:	4614      	mov	r4, r2
  404d14:	3330      	adds	r3, #48	; 0x30
  404d16:	ea54 0205 	orrs.w	r2, r4, r5
  404d1a:	f801 3c01 	strb.w	r3, [r1, #-1]
  404d1e:	f101 36ff 	add.w	r6, r1, #4294967295
  404d22:	d1ee      	bne.n	404d02 <_svfprintf_r+0xae6>
  404d24:	9a07      	ldr	r2, [sp, #28]
  404d26:	07d2      	lsls	r2, r2, #31
  404d28:	f57f adf3 	bpl.w	404912 <_svfprintf_r+0x6f6>
  404d2c:	2b30      	cmp	r3, #48	; 0x30
  404d2e:	f43f adf0 	beq.w	404912 <_svfprintf_r+0x6f6>
  404d32:	3902      	subs	r1, #2
  404d34:	2330      	movs	r3, #48	; 0x30
  404d36:	f806 3c01 	strb.w	r3, [r6, #-1]
  404d3a:	eba9 0301 	sub.w	r3, r9, r1
  404d3e:	930e      	str	r3, [sp, #56]	; 0x38
  404d40:	460e      	mov	r6, r1
  404d42:	f7ff bb7b 	b.w	40443c <_svfprintf_r+0x220>
  404d46:	991f      	ldr	r1, [sp, #124]	; 0x7c
  404d48:	2900      	cmp	r1, #0
  404d4a:	f340 822e 	ble.w	4051aa <_svfprintf_r+0xf8e>
  404d4e:	9b12      	ldr	r3, [sp, #72]	; 0x48
  404d50:	9a13      	ldr	r2, [sp, #76]	; 0x4c
  404d52:	4293      	cmp	r3, r2
  404d54:	bfa8      	it	ge
  404d56:	4613      	movge	r3, r2
  404d58:	2b00      	cmp	r3, #0
  404d5a:	461f      	mov	r7, r3
  404d5c:	dd0d      	ble.n	404d7a <_svfprintf_r+0xb5e>
  404d5e:	9b26      	ldr	r3, [sp, #152]	; 0x98
  404d60:	f8c8 6000 	str.w	r6, [r8]
  404d64:	3301      	adds	r3, #1
  404d66:	443c      	add	r4, r7
  404d68:	2b07      	cmp	r3, #7
  404d6a:	9427      	str	r4, [sp, #156]	; 0x9c
  404d6c:	f8c8 7004 	str.w	r7, [r8, #4]
  404d70:	9326      	str	r3, [sp, #152]	; 0x98
  404d72:	f300 831f 	bgt.w	4053b4 <_svfprintf_r+0x1198>
  404d76:	f108 0808 	add.w	r8, r8, #8
  404d7a:	9b12      	ldr	r3, [sp, #72]	; 0x48
  404d7c:	2f00      	cmp	r7, #0
  404d7e:	bfa8      	it	ge
  404d80:	1bdb      	subge	r3, r3, r7
  404d82:	2b00      	cmp	r3, #0
  404d84:	461f      	mov	r7, r3
  404d86:	f340 80d6 	ble.w	404f36 <_svfprintf_r+0xd1a>
  404d8a:	2f10      	cmp	r7, #16
  404d8c:	9b26      	ldr	r3, [sp, #152]	; 0x98
  404d8e:	4d31      	ldr	r5, [pc, #196]	; (404e54 <_svfprintf_r+0xc38>)
  404d90:	f340 81ed 	ble.w	40516e <_svfprintf_r+0xf52>
  404d94:	4642      	mov	r2, r8
  404d96:	4621      	mov	r1, r4
  404d98:	46b0      	mov	r8, r6
  404d9a:	f04f 0b10 	mov.w	fp, #16
  404d9e:	462e      	mov	r6, r5
  404da0:	9c0c      	ldr	r4, [sp, #48]	; 0x30
  404da2:	9d0b      	ldr	r5, [sp, #44]	; 0x2c
  404da4:	e004      	b.n	404db0 <_svfprintf_r+0xb94>
  404da6:	3208      	adds	r2, #8
  404da8:	3f10      	subs	r7, #16
  404daa:	2f10      	cmp	r7, #16
  404dac:	f340 81db 	ble.w	405166 <_svfprintf_r+0xf4a>
  404db0:	3301      	adds	r3, #1
  404db2:	3110      	adds	r1, #16
  404db4:	2b07      	cmp	r3, #7
  404db6:	9127      	str	r1, [sp, #156]	; 0x9c
  404db8:	9326      	str	r3, [sp, #152]	; 0x98
  404dba:	e882 0840 	stmia.w	r2, {r6, fp}
  404dbe:	ddf2      	ble.n	404da6 <_svfprintf_r+0xb8a>
  404dc0:	aa25      	add	r2, sp, #148	; 0x94
  404dc2:	4629      	mov	r1, r5
  404dc4:	4620      	mov	r0, r4
  404dc6:	f003 fe4b 	bl	408a60 <__ssprint_r>
  404dca:	2800      	cmp	r0, #0
  404dcc:	f47f aaf8 	bne.w	4043c0 <_svfprintf_r+0x1a4>
  404dd0:	9927      	ldr	r1, [sp, #156]	; 0x9c
  404dd2:	9b26      	ldr	r3, [sp, #152]	; 0x98
  404dd4:	464a      	mov	r2, r9
  404dd6:	e7e7      	b.n	404da8 <_svfprintf_r+0xb8c>
  404dd8:	9b0a      	ldr	r3, [sp, #40]	; 0x28
  404dda:	930e      	str	r3, [sp, #56]	; 0x38
  404ddc:	464e      	mov	r6, r9
  404dde:	f7ff bb2d 	b.w	40443c <_svfprintf_r+0x220>
  404de2:	2d00      	cmp	r5, #0
  404de4:	bf08      	it	eq
  404de6:	2c0a      	cmpeq	r4, #10
  404de8:	f0c0 808f 	bcc.w	404f0a <_svfprintf_r+0xcee>
  404dec:	464e      	mov	r6, r9
  404dee:	4620      	mov	r0, r4
  404df0:	4629      	mov	r1, r5
  404df2:	220a      	movs	r2, #10
  404df4:	2300      	movs	r3, #0
  404df6:	f004 fd3f 	bl	409878 <__aeabi_uldivmod>
  404dfa:	3230      	adds	r2, #48	; 0x30
  404dfc:	f806 2d01 	strb.w	r2, [r6, #-1]!
  404e00:	4620      	mov	r0, r4
  404e02:	4629      	mov	r1, r5
  404e04:	2300      	movs	r3, #0
  404e06:	220a      	movs	r2, #10
  404e08:	f004 fd36 	bl	409878 <__aeabi_uldivmod>
  404e0c:	4604      	mov	r4, r0
  404e0e:	460d      	mov	r5, r1
  404e10:	ea54 0305 	orrs.w	r3, r4, r5
  404e14:	d1eb      	bne.n	404dee <_svfprintf_r+0xbd2>
  404e16:	eba9 0306 	sub.w	r3, r9, r6
  404e1a:	930e      	str	r3, [sp, #56]	; 0x38
  404e1c:	f7ff bb0e 	b.w	40443c <_svfprintf_r+0x220>
  404e20:	aa25      	add	r2, sp, #148	; 0x94
  404e22:	990b      	ldr	r1, [sp, #44]	; 0x2c
  404e24:	980c      	ldr	r0, [sp, #48]	; 0x30
  404e26:	f003 fe1b 	bl	408a60 <__ssprint_r>
  404e2a:	2800      	cmp	r0, #0
  404e2c:	f47f aac8 	bne.w	4043c0 <_svfprintf_r+0x1a4>
  404e30:	f89d 7077 	ldrb.w	r7, [sp, #119]	; 0x77
  404e34:	9c27      	ldr	r4, [sp, #156]	; 0x9c
  404e36:	46c8      	mov	r8, r9
  404e38:	f7ff bb5e 	b.w	4044f8 <_svfprintf_r+0x2dc>
  404e3c:	1e5e      	subs	r6, r3, #1
  404e3e:	2e00      	cmp	r6, #0
  404e40:	f77f af0a 	ble.w	404c58 <_svfprintf_r+0xa3c>
  404e44:	2e10      	cmp	r6, #16
  404e46:	4d03      	ldr	r5, [pc, #12]	; (404e54 <_svfprintf_r+0xc38>)
  404e48:	dd22      	ble.n	404e90 <_svfprintf_r+0xc74>
  404e4a:	4622      	mov	r2, r4
  404e4c:	f04f 0b10 	mov.w	fp, #16
  404e50:	9c0c      	ldr	r4, [sp, #48]	; 0x30
  404e52:	e006      	b.n	404e62 <_svfprintf_r+0xc46>
  404e54:	00409f8c 	.word	0x00409f8c
  404e58:	3e10      	subs	r6, #16
  404e5a:	2e10      	cmp	r6, #16
  404e5c:	f108 0808 	add.w	r8, r8, #8
  404e60:	dd15      	ble.n	404e8e <_svfprintf_r+0xc72>
  404e62:	3701      	adds	r7, #1
  404e64:	3210      	adds	r2, #16
  404e66:	2f07      	cmp	r7, #7
  404e68:	9227      	str	r2, [sp, #156]	; 0x9c
  404e6a:	9726      	str	r7, [sp, #152]	; 0x98
  404e6c:	e888 0820 	stmia.w	r8, {r5, fp}
  404e70:	ddf2      	ble.n	404e58 <_svfprintf_r+0xc3c>
  404e72:	aa25      	add	r2, sp, #148	; 0x94
  404e74:	990b      	ldr	r1, [sp, #44]	; 0x2c
  404e76:	4620      	mov	r0, r4
  404e78:	f003 fdf2 	bl	408a60 <__ssprint_r>
  404e7c:	2800      	cmp	r0, #0
  404e7e:	f47f aa9f 	bne.w	4043c0 <_svfprintf_r+0x1a4>
  404e82:	3e10      	subs	r6, #16
  404e84:	2e10      	cmp	r6, #16
  404e86:	9a27      	ldr	r2, [sp, #156]	; 0x9c
  404e88:	9f26      	ldr	r7, [sp, #152]	; 0x98
  404e8a:	46c8      	mov	r8, r9
  404e8c:	dce9      	bgt.n	404e62 <_svfprintf_r+0xc46>
  404e8e:	4614      	mov	r4, r2
  404e90:	3701      	adds	r7, #1
  404e92:	4434      	add	r4, r6
  404e94:	2f07      	cmp	r7, #7
  404e96:	9427      	str	r4, [sp, #156]	; 0x9c
  404e98:	9726      	str	r7, [sp, #152]	; 0x98
  404e9a:	e888 0060 	stmia.w	r8, {r5, r6}
  404e9e:	f77f aed9 	ble.w	404c54 <_svfprintf_r+0xa38>
  404ea2:	aa25      	add	r2, sp, #148	; 0x94
  404ea4:	990b      	ldr	r1, [sp, #44]	; 0x2c
  404ea6:	980c      	ldr	r0, [sp, #48]	; 0x30
  404ea8:	f003 fdda 	bl	408a60 <__ssprint_r>
  404eac:	2800      	cmp	r0, #0
  404eae:	f47f aa87 	bne.w	4043c0 <_svfprintf_r+0x1a4>
  404eb2:	9c27      	ldr	r4, [sp, #156]	; 0x9c
  404eb4:	9f26      	ldr	r7, [sp, #152]	; 0x98
  404eb6:	46c8      	mov	r8, r9
  404eb8:	e6ce      	b.n	404c58 <_svfprintf_r+0xa3c>
  404eba:	9a0f      	ldr	r2, [sp, #60]	; 0x3c
  404ebc:	6814      	ldr	r4, [r2, #0]
  404ebe:	4613      	mov	r3, r2
  404ec0:	3304      	adds	r3, #4
  404ec2:	17e5      	asrs	r5, r4, #31
  404ec4:	930f      	str	r3, [sp, #60]	; 0x3c
  404ec6:	4622      	mov	r2, r4
  404ec8:	462b      	mov	r3, r5
  404eca:	e4fa      	b.n	4048c2 <_svfprintf_r+0x6a6>
  404ecc:	3204      	adds	r2, #4
  404ece:	681c      	ldr	r4, [r3, #0]
  404ed0:	920f      	str	r2, [sp, #60]	; 0x3c
  404ed2:	2301      	movs	r3, #1
  404ed4:	2500      	movs	r5, #0
  404ed6:	f7ff ba94 	b.w	404402 <_svfprintf_r+0x1e6>
  404eda:	681c      	ldr	r4, [r3, #0]
  404edc:	3304      	adds	r3, #4
  404ede:	930f      	str	r3, [sp, #60]	; 0x3c
  404ee0:	2500      	movs	r5, #0
  404ee2:	e421      	b.n	404728 <_svfprintf_r+0x50c>
  404ee4:	990f      	ldr	r1, [sp, #60]	; 0x3c
  404ee6:	460a      	mov	r2, r1
  404ee8:	3204      	adds	r2, #4
  404eea:	680c      	ldr	r4, [r1, #0]
  404eec:	920f      	str	r2, [sp, #60]	; 0x3c
  404eee:	2500      	movs	r5, #0
  404ef0:	f7ff ba87 	b.w	404402 <_svfprintf_r+0x1e6>
  404ef4:	4614      	mov	r4, r2
  404ef6:	3301      	adds	r3, #1
  404ef8:	4434      	add	r4, r6
  404efa:	2b07      	cmp	r3, #7
  404efc:	9427      	str	r4, [sp, #156]	; 0x9c
  404efe:	9326      	str	r3, [sp, #152]	; 0x98
  404f00:	e888 0060 	stmia.w	r8, {r5, r6}
  404f04:	f77f ab68 	ble.w	4045d8 <_svfprintf_r+0x3bc>
  404f08:	e6b3      	b.n	404c72 <_svfprintf_r+0xa56>
  404f0a:	f8dd b01c 	ldr.w	fp, [sp, #28]
  404f0e:	f8cd b01c 	str.w	fp, [sp, #28]
  404f12:	ae42      	add	r6, sp, #264	; 0x108
  404f14:	3430      	adds	r4, #48	; 0x30
  404f16:	2301      	movs	r3, #1
  404f18:	f806 4d41 	strb.w	r4, [r6, #-65]!
  404f1c:	930e      	str	r3, [sp, #56]	; 0x38
  404f1e:	f7ff ba8d 	b.w	40443c <_svfprintf_r+0x220>
  404f22:	aa25      	add	r2, sp, #148	; 0x94
  404f24:	990b      	ldr	r1, [sp, #44]	; 0x2c
  404f26:	980c      	ldr	r0, [sp, #48]	; 0x30
  404f28:	f003 fd9a 	bl	408a60 <__ssprint_r>
  404f2c:	2800      	cmp	r0, #0
  404f2e:	f47f aa47 	bne.w	4043c0 <_svfprintf_r+0x1a4>
  404f32:	9c27      	ldr	r4, [sp, #156]	; 0x9c
  404f34:	46c8      	mov	r8, r9
  404f36:	9a1f      	ldr	r2, [sp, #124]	; 0x7c
  404f38:	9b13      	ldr	r3, [sp, #76]	; 0x4c
  404f3a:	429a      	cmp	r2, r3
  404f3c:	db44      	blt.n	404fc8 <_svfprintf_r+0xdac>
  404f3e:	9b07      	ldr	r3, [sp, #28]
  404f40:	07d9      	lsls	r1, r3, #31
  404f42:	d441      	bmi.n	404fc8 <_svfprintf_r+0xdac>
  404f44:	9b13      	ldr	r3, [sp, #76]	; 0x4c
  404f46:	9812      	ldr	r0, [sp, #72]	; 0x48
  404f48:	1a9a      	subs	r2, r3, r2
  404f4a:	1a1d      	subs	r5, r3, r0
  404f4c:	4295      	cmp	r5, r2
  404f4e:	bfa8      	it	ge
  404f50:	4615      	movge	r5, r2
  404f52:	2d00      	cmp	r5, #0
  404f54:	dd0e      	ble.n	404f74 <_svfprintf_r+0xd58>
  404f56:	9926      	ldr	r1, [sp, #152]	; 0x98
  404f58:	f8c8 5004 	str.w	r5, [r8, #4]
  404f5c:	3101      	adds	r1, #1
  404f5e:	4406      	add	r6, r0
  404f60:	442c      	add	r4, r5
  404f62:	2907      	cmp	r1, #7
  404f64:	f8c8 6000 	str.w	r6, [r8]
  404f68:	9427      	str	r4, [sp, #156]	; 0x9c
  404f6a:	9126      	str	r1, [sp, #152]	; 0x98
  404f6c:	f300 823b 	bgt.w	4053e6 <_svfprintf_r+0x11ca>
  404f70:	f108 0808 	add.w	r8, r8, #8
  404f74:	2d00      	cmp	r5, #0
  404f76:	bfac      	ite	ge
  404f78:	1b56      	subge	r6, r2, r5
  404f7a:	4616      	movlt	r6, r2
  404f7c:	2e00      	cmp	r6, #0
  404f7e:	f77f ab2d 	ble.w	4045dc <_svfprintf_r+0x3c0>
  404f82:	2e10      	cmp	r6, #16
  404f84:	9b26      	ldr	r3, [sp, #152]	; 0x98
  404f86:	4db0      	ldr	r5, [pc, #704]	; (405248 <_svfprintf_r+0x102c>)
  404f88:	ddb5      	ble.n	404ef6 <_svfprintf_r+0xcda>
  404f8a:	4622      	mov	r2, r4
  404f8c:	2710      	movs	r7, #16
  404f8e:	f8dd b030 	ldr.w	fp, [sp, #48]	; 0x30
  404f92:	9c0b      	ldr	r4, [sp, #44]	; 0x2c
  404f94:	e004      	b.n	404fa0 <_svfprintf_r+0xd84>
  404f96:	f108 0808 	add.w	r8, r8, #8
  404f9a:	3e10      	subs	r6, #16
  404f9c:	2e10      	cmp	r6, #16
  404f9e:	dda9      	ble.n	404ef4 <_svfprintf_r+0xcd8>
  404fa0:	3301      	adds	r3, #1
  404fa2:	3210      	adds	r2, #16
  404fa4:	2b07      	cmp	r3, #7
  404fa6:	9227      	str	r2, [sp, #156]	; 0x9c
  404fa8:	9326      	str	r3, [sp, #152]	; 0x98
  404faa:	e888 00a0 	stmia.w	r8, {r5, r7}
  404fae:	ddf2      	ble.n	404f96 <_svfprintf_r+0xd7a>
  404fb0:	aa25      	add	r2, sp, #148	; 0x94
  404fb2:	4621      	mov	r1, r4
  404fb4:	4658      	mov	r0, fp
  404fb6:	f003 fd53 	bl	408a60 <__ssprint_r>
  404fba:	2800      	cmp	r0, #0
  404fbc:	f47f aa00 	bne.w	4043c0 <_svfprintf_r+0x1a4>
  404fc0:	9a27      	ldr	r2, [sp, #156]	; 0x9c
  404fc2:	9b26      	ldr	r3, [sp, #152]	; 0x98
  404fc4:	46c8      	mov	r8, r9
  404fc6:	e7e8      	b.n	404f9a <_svfprintf_r+0xd7e>
  404fc8:	9b26      	ldr	r3, [sp, #152]	; 0x98
  404fca:	9819      	ldr	r0, [sp, #100]	; 0x64
  404fcc:	991a      	ldr	r1, [sp, #104]	; 0x68
  404fce:	f8c8 1000 	str.w	r1, [r8]
  404fd2:	3301      	adds	r3, #1
  404fd4:	4404      	add	r4, r0
  404fd6:	2b07      	cmp	r3, #7
  404fd8:	9427      	str	r4, [sp, #156]	; 0x9c
  404fda:	f8c8 0004 	str.w	r0, [r8, #4]
  404fde:	9326      	str	r3, [sp, #152]	; 0x98
  404fe0:	f300 81f5 	bgt.w	4053ce <_svfprintf_r+0x11b2>
  404fe4:	f108 0808 	add.w	r8, r8, #8
  404fe8:	e7ac      	b.n	404f44 <_svfprintf_r+0xd28>
  404fea:	9b07      	ldr	r3, [sp, #28]
  404fec:	07da      	lsls	r2, r3, #31
  404fee:	f53f adfe 	bmi.w	404bee <_svfprintf_r+0x9d2>
  404ff2:	3701      	adds	r7, #1
  404ff4:	3401      	adds	r4, #1
  404ff6:	2301      	movs	r3, #1
  404ff8:	2f07      	cmp	r7, #7
  404ffa:	9427      	str	r4, [sp, #156]	; 0x9c
  404ffc:	9726      	str	r7, [sp, #152]	; 0x98
  404ffe:	f8c8 6000 	str.w	r6, [r8]
  405002:	f8c8 3004 	str.w	r3, [r8, #4]
  405006:	f77f ae25 	ble.w	404c54 <_svfprintf_r+0xa38>
  40500a:	e74a      	b.n	404ea2 <_svfprintf_r+0xc86>
  40500c:	aa25      	add	r2, sp, #148	; 0x94
  40500e:	990b      	ldr	r1, [sp, #44]	; 0x2c
  405010:	980c      	ldr	r0, [sp, #48]	; 0x30
  405012:	f003 fd25 	bl	408a60 <__ssprint_r>
  405016:	2800      	cmp	r0, #0
  405018:	f47f a9d2 	bne.w	4043c0 <_svfprintf_r+0x1a4>
  40501c:	9c27      	ldr	r4, [sp, #156]	; 0x9c
  40501e:	9f26      	ldr	r7, [sp, #152]	; 0x98
  405020:	46c8      	mov	r8, r9
  405022:	e5f2      	b.n	404c0a <_svfprintf_r+0x9ee>
  405024:	aa25      	add	r2, sp, #148	; 0x94
  405026:	990b      	ldr	r1, [sp, #44]	; 0x2c
  405028:	980c      	ldr	r0, [sp, #48]	; 0x30
  40502a:	f003 fd19 	bl	408a60 <__ssprint_r>
  40502e:	2800      	cmp	r0, #0
  405030:	f47f a9c6 	bne.w	4043c0 <_svfprintf_r+0x1a4>
  405034:	9c27      	ldr	r4, [sp, #156]	; 0x9c
  405036:	9f26      	ldr	r7, [sp, #152]	; 0x98
  405038:	46c8      	mov	r8, r9
  40503a:	e5f5      	b.n	404c28 <_svfprintf_r+0xa0c>
  40503c:	464e      	mov	r6, r9
  40503e:	f7ff b9fd 	b.w	40443c <_svfprintf_r+0x220>
  405042:	aa25      	add	r2, sp, #148	; 0x94
  405044:	990b      	ldr	r1, [sp, #44]	; 0x2c
  405046:	980c      	ldr	r0, [sp, #48]	; 0x30
  405048:	f003 fd0a 	bl	408a60 <__ssprint_r>
  40504c:	2800      	cmp	r0, #0
  40504e:	f47f a9b7 	bne.w	4043c0 <_svfprintf_r+0x1a4>
  405052:	9c27      	ldr	r4, [sp, #156]	; 0x9c
  405054:	46c8      	mov	r8, r9
  405056:	f7ff ba72 	b.w	40453e <_svfprintf_r+0x322>
  40505a:	9c15      	ldr	r4, [sp, #84]	; 0x54
  40505c:	4622      	mov	r2, r4
  40505e:	4620      	mov	r0, r4
  405060:	9c14      	ldr	r4, [sp, #80]	; 0x50
  405062:	4623      	mov	r3, r4
  405064:	4621      	mov	r1, r4
  405066:	f004 fbc9 	bl	4097fc <__aeabi_dcmpun>
  40506a:	2800      	cmp	r0, #0
  40506c:	f040 8286 	bne.w	40557c <_svfprintf_r+0x1360>
  405070:	9b0a      	ldr	r3, [sp, #40]	; 0x28
  405072:	3301      	adds	r3, #1
  405074:	9b11      	ldr	r3, [sp, #68]	; 0x44
  405076:	f023 0320 	bic.w	r3, r3, #32
  40507a:	930e      	str	r3, [sp, #56]	; 0x38
  40507c:	f000 81e2 	beq.w	405444 <_svfprintf_r+0x1228>
  405080:	2b47      	cmp	r3, #71	; 0x47
  405082:	f000 811e 	beq.w	4052c2 <_svfprintf_r+0x10a6>
  405086:	f44b 7380 	orr.w	r3, fp, #256	; 0x100
  40508a:	9307      	str	r3, [sp, #28]
  40508c:	9b14      	ldr	r3, [sp, #80]	; 0x50
  40508e:	1e1f      	subs	r7, r3, #0
  405090:	9b15      	ldr	r3, [sp, #84]	; 0x54
  405092:	9308      	str	r3, [sp, #32]
  405094:	bfbb      	ittet	lt
  405096:	463b      	movlt	r3, r7
  405098:	f103 4700 	addlt.w	r7, r3, #2147483648	; 0x80000000
  40509c:	2300      	movge	r3, #0
  40509e:	232d      	movlt	r3, #45	; 0x2d
  4050a0:	9310      	str	r3, [sp, #64]	; 0x40
  4050a2:	9b11      	ldr	r3, [sp, #68]	; 0x44
  4050a4:	2b66      	cmp	r3, #102	; 0x66
  4050a6:	f000 81bb 	beq.w	405420 <_svfprintf_r+0x1204>
  4050aa:	2b46      	cmp	r3, #70	; 0x46
  4050ac:	f000 80df 	beq.w	40526e <_svfprintf_r+0x1052>
  4050b0:	9b0e      	ldr	r3, [sp, #56]	; 0x38
  4050b2:	9a08      	ldr	r2, [sp, #32]
  4050b4:	2b45      	cmp	r3, #69	; 0x45
  4050b6:	bf0c      	ite	eq
  4050b8:	9b0a      	ldreq	r3, [sp, #40]	; 0x28
  4050ba:	9d0a      	ldrne	r5, [sp, #40]	; 0x28
  4050bc:	a823      	add	r0, sp, #140	; 0x8c
  4050be:	a920      	add	r1, sp, #128	; 0x80
  4050c0:	bf08      	it	eq
  4050c2:	1c5d      	addeq	r5, r3, #1
  4050c4:	9004      	str	r0, [sp, #16]
  4050c6:	9103      	str	r1, [sp, #12]
  4050c8:	a81f      	add	r0, sp, #124	; 0x7c
  4050ca:	2102      	movs	r1, #2
  4050cc:	463b      	mov	r3, r7
  4050ce:	9002      	str	r0, [sp, #8]
  4050d0:	9501      	str	r5, [sp, #4]
  4050d2:	9100      	str	r1, [sp, #0]
  4050d4:	980c      	ldr	r0, [sp, #48]	; 0x30
  4050d6:	f001 faa3 	bl	406620 <_dtoa_r>
  4050da:	9b11      	ldr	r3, [sp, #68]	; 0x44
  4050dc:	2b67      	cmp	r3, #103	; 0x67
  4050de:	4606      	mov	r6, r0
  4050e0:	f040 81e0 	bne.w	4054a4 <_svfprintf_r+0x1288>
  4050e4:	f01b 0f01 	tst.w	fp, #1
  4050e8:	f000 8246 	beq.w	405578 <_svfprintf_r+0x135c>
  4050ec:	1974      	adds	r4, r6, r5
  4050ee:	9a16      	ldr	r2, [sp, #88]	; 0x58
  4050f0:	9808      	ldr	r0, [sp, #32]
  4050f2:	9b17      	ldr	r3, [sp, #92]	; 0x5c
  4050f4:	4639      	mov	r1, r7
  4050f6:	f004 fb4f 	bl	409798 <__aeabi_dcmpeq>
  4050fa:	2800      	cmp	r0, #0
  4050fc:	f040 8165 	bne.w	4053ca <_svfprintf_r+0x11ae>
  405100:	9b23      	ldr	r3, [sp, #140]	; 0x8c
  405102:	42a3      	cmp	r3, r4
  405104:	d206      	bcs.n	405114 <_svfprintf_r+0xef8>
  405106:	2130      	movs	r1, #48	; 0x30
  405108:	1c5a      	adds	r2, r3, #1
  40510a:	9223      	str	r2, [sp, #140]	; 0x8c
  40510c:	7019      	strb	r1, [r3, #0]
  40510e:	9b23      	ldr	r3, [sp, #140]	; 0x8c
  405110:	429c      	cmp	r4, r3
  405112:	d8f9      	bhi.n	405108 <_svfprintf_r+0xeec>
  405114:	1b9b      	subs	r3, r3, r6
  405116:	9313      	str	r3, [sp, #76]	; 0x4c
  405118:	9b0e      	ldr	r3, [sp, #56]	; 0x38
  40511a:	2b47      	cmp	r3, #71	; 0x47
  40511c:	f000 80e9 	beq.w	4052f2 <_svfprintf_r+0x10d6>
  405120:	9b11      	ldr	r3, [sp, #68]	; 0x44
  405122:	2b65      	cmp	r3, #101	; 0x65
  405124:	f340 81cd 	ble.w	4054c2 <_svfprintf_r+0x12a6>
  405128:	9b11      	ldr	r3, [sp, #68]	; 0x44
  40512a:	2b66      	cmp	r3, #102	; 0x66
  40512c:	9b1f      	ldr	r3, [sp, #124]	; 0x7c
  40512e:	9312      	str	r3, [sp, #72]	; 0x48
  405130:	f000 819e 	beq.w	405470 <_svfprintf_r+0x1254>
  405134:	9b13      	ldr	r3, [sp, #76]	; 0x4c
  405136:	9a12      	ldr	r2, [sp, #72]	; 0x48
  405138:	4619      	mov	r1, r3
  40513a:	4291      	cmp	r1, r2
  40513c:	f300 818a 	bgt.w	405454 <_svfprintf_r+0x1238>
  405140:	f01b 0f01 	tst.w	fp, #1
  405144:	f040 8213 	bne.w	40556e <_svfprintf_r+0x1352>
  405148:	ea22 73e2 	bic.w	r3, r2, r2, asr #31
  40514c:	9308      	str	r3, [sp, #32]
  40514e:	2367      	movs	r3, #103	; 0x67
  405150:	920e      	str	r2, [sp, #56]	; 0x38
  405152:	9311      	str	r3, [sp, #68]	; 0x44
  405154:	9b10      	ldr	r3, [sp, #64]	; 0x40
  405156:	2b00      	cmp	r3, #0
  405158:	f040 80c4 	bne.w	4052e4 <_svfprintf_r+0x10c8>
  40515c:	930a      	str	r3, [sp, #40]	; 0x28
  40515e:	f89d 7077 	ldrb.w	r7, [sp, #119]	; 0x77
  405162:	f7ff b973 	b.w	40444c <_svfprintf_r+0x230>
  405166:	4635      	mov	r5, r6
  405168:	460c      	mov	r4, r1
  40516a:	4646      	mov	r6, r8
  40516c:	4690      	mov	r8, r2
  40516e:	3301      	adds	r3, #1
  405170:	443c      	add	r4, r7
  405172:	2b07      	cmp	r3, #7
  405174:	9427      	str	r4, [sp, #156]	; 0x9c
  405176:	9326      	str	r3, [sp, #152]	; 0x98
  405178:	e888 00a0 	stmia.w	r8, {r5, r7}
  40517c:	f73f aed1 	bgt.w	404f22 <_svfprintf_r+0xd06>
  405180:	f108 0808 	add.w	r8, r8, #8
  405184:	e6d7      	b.n	404f36 <_svfprintf_r+0xd1a>
  405186:	9a0f      	ldr	r2, [sp, #60]	; 0x3c
  405188:	6813      	ldr	r3, [r2, #0]
  40518a:	3204      	adds	r2, #4
  40518c:	920f      	str	r2, [sp, #60]	; 0x3c
  40518e:	9a09      	ldr	r2, [sp, #36]	; 0x24
  405190:	601a      	str	r2, [r3, #0]
  405192:	f7ff b86a 	b.w	40426a <_svfprintf_r+0x4e>
  405196:	aa25      	add	r2, sp, #148	; 0x94
  405198:	990b      	ldr	r1, [sp, #44]	; 0x2c
  40519a:	980c      	ldr	r0, [sp, #48]	; 0x30
  40519c:	f003 fc60 	bl	408a60 <__ssprint_r>
  4051a0:	2800      	cmp	r0, #0
  4051a2:	f47f a90d 	bne.w	4043c0 <_svfprintf_r+0x1a4>
  4051a6:	46c8      	mov	r8, r9
  4051a8:	e48d      	b.n	404ac6 <_svfprintf_r+0x8aa>
  4051aa:	9b26      	ldr	r3, [sp, #152]	; 0x98
  4051ac:	4a27      	ldr	r2, [pc, #156]	; (40524c <_svfprintf_r+0x1030>)
  4051ae:	f8c8 2000 	str.w	r2, [r8]
  4051b2:	3301      	adds	r3, #1
  4051b4:	3401      	adds	r4, #1
  4051b6:	2201      	movs	r2, #1
  4051b8:	2b07      	cmp	r3, #7
  4051ba:	9427      	str	r4, [sp, #156]	; 0x9c
  4051bc:	9326      	str	r3, [sp, #152]	; 0x98
  4051be:	f8c8 2004 	str.w	r2, [r8, #4]
  4051c2:	dc72      	bgt.n	4052aa <_svfprintf_r+0x108e>
  4051c4:	f108 0808 	add.w	r8, r8, #8
  4051c8:	b929      	cbnz	r1, 4051d6 <_svfprintf_r+0xfba>
  4051ca:	9b13      	ldr	r3, [sp, #76]	; 0x4c
  4051cc:	b91b      	cbnz	r3, 4051d6 <_svfprintf_r+0xfba>
  4051ce:	9b07      	ldr	r3, [sp, #28]
  4051d0:	07d8      	lsls	r0, r3, #31
  4051d2:	f57f aa03 	bpl.w	4045dc <_svfprintf_r+0x3c0>
  4051d6:	9b26      	ldr	r3, [sp, #152]	; 0x98
  4051d8:	9819      	ldr	r0, [sp, #100]	; 0x64
  4051da:	9a1a      	ldr	r2, [sp, #104]	; 0x68
  4051dc:	f8c8 2000 	str.w	r2, [r8]
  4051e0:	3301      	adds	r3, #1
  4051e2:	4602      	mov	r2, r0
  4051e4:	4422      	add	r2, r4
  4051e6:	2b07      	cmp	r3, #7
  4051e8:	9227      	str	r2, [sp, #156]	; 0x9c
  4051ea:	f8c8 0004 	str.w	r0, [r8, #4]
  4051ee:	9326      	str	r3, [sp, #152]	; 0x98
  4051f0:	f300 818d 	bgt.w	40550e <_svfprintf_r+0x12f2>
  4051f4:	f108 0808 	add.w	r8, r8, #8
  4051f8:	2900      	cmp	r1, #0
  4051fa:	f2c0 8165 	blt.w	4054c8 <_svfprintf_r+0x12ac>
  4051fe:	9913      	ldr	r1, [sp, #76]	; 0x4c
  405200:	f8c8 6000 	str.w	r6, [r8]
  405204:	3301      	adds	r3, #1
  405206:	188c      	adds	r4, r1, r2
  405208:	2b07      	cmp	r3, #7
  40520a:	9427      	str	r4, [sp, #156]	; 0x9c
  40520c:	9326      	str	r3, [sp, #152]	; 0x98
  40520e:	f8c8 1004 	str.w	r1, [r8, #4]
  405212:	f77f a9e1 	ble.w	4045d8 <_svfprintf_r+0x3bc>
  405216:	e52c      	b.n	404c72 <_svfprintf_r+0xa56>
  405218:	9a0f      	ldr	r2, [sp, #60]	; 0x3c
  40521a:	9909      	ldr	r1, [sp, #36]	; 0x24
  40521c:	6813      	ldr	r3, [r2, #0]
  40521e:	17cd      	asrs	r5, r1, #31
  405220:	4608      	mov	r0, r1
  405222:	3204      	adds	r2, #4
  405224:	4629      	mov	r1, r5
  405226:	920f      	str	r2, [sp, #60]	; 0x3c
  405228:	e9c3 0100 	strd	r0, r1, [r3]
  40522c:	f7ff b81d 	b.w	40426a <_svfprintf_r+0x4e>
  405230:	aa25      	add	r2, sp, #148	; 0x94
  405232:	990b      	ldr	r1, [sp, #44]	; 0x2c
  405234:	980c      	ldr	r0, [sp, #48]	; 0x30
  405236:	f003 fc13 	bl	408a60 <__ssprint_r>
  40523a:	2800      	cmp	r0, #0
  40523c:	f47f a8c0 	bne.w	4043c0 <_svfprintf_r+0x1a4>
  405240:	9c27      	ldr	r4, [sp, #156]	; 0x9c
  405242:	46c8      	mov	r8, r9
  405244:	e458      	b.n	404af8 <_svfprintf_r+0x8dc>
  405246:	bf00      	nop
  405248:	00409f8c 	.word	0x00409f8c
  40524c:	00409f78 	.word	0x00409f78
  405250:	2140      	movs	r1, #64	; 0x40
  405252:	980c      	ldr	r0, [sp, #48]	; 0x30
  405254:	f7fe faae 	bl	4037b4 <_malloc_r>
  405258:	9a0b      	ldr	r2, [sp, #44]	; 0x2c
  40525a:	6010      	str	r0, [r2, #0]
  40525c:	6110      	str	r0, [r2, #16]
  40525e:	2800      	cmp	r0, #0
  405260:	f000 81f2 	beq.w	405648 <_svfprintf_r+0x142c>
  405264:	9a0b      	ldr	r2, [sp, #44]	; 0x2c
  405266:	2340      	movs	r3, #64	; 0x40
  405268:	6153      	str	r3, [r2, #20]
  40526a:	f7fe bfee 	b.w	40424a <_svfprintf_r+0x2e>
  40526e:	a823      	add	r0, sp, #140	; 0x8c
  405270:	a920      	add	r1, sp, #128	; 0x80
  405272:	9c0a      	ldr	r4, [sp, #40]	; 0x28
  405274:	9004      	str	r0, [sp, #16]
  405276:	9103      	str	r1, [sp, #12]
  405278:	a81f      	add	r0, sp, #124	; 0x7c
  40527a:	2103      	movs	r1, #3
  40527c:	9002      	str	r0, [sp, #8]
  40527e:	9a08      	ldr	r2, [sp, #32]
  405280:	9401      	str	r4, [sp, #4]
  405282:	463b      	mov	r3, r7
  405284:	9100      	str	r1, [sp, #0]
  405286:	980c      	ldr	r0, [sp, #48]	; 0x30
  405288:	f001 f9ca 	bl	406620 <_dtoa_r>
  40528c:	4625      	mov	r5, r4
  40528e:	4606      	mov	r6, r0
  405290:	9b11      	ldr	r3, [sp, #68]	; 0x44
  405292:	2b46      	cmp	r3, #70	; 0x46
  405294:	eb06 0405 	add.w	r4, r6, r5
  405298:	f47f af29 	bne.w	4050ee <_svfprintf_r+0xed2>
  40529c:	7833      	ldrb	r3, [r6, #0]
  40529e:	2b30      	cmp	r3, #48	; 0x30
  4052a0:	f000 8178 	beq.w	405594 <_svfprintf_r+0x1378>
  4052a4:	9d1f      	ldr	r5, [sp, #124]	; 0x7c
  4052a6:	442c      	add	r4, r5
  4052a8:	e721      	b.n	4050ee <_svfprintf_r+0xed2>
  4052aa:	aa25      	add	r2, sp, #148	; 0x94
  4052ac:	990b      	ldr	r1, [sp, #44]	; 0x2c
  4052ae:	980c      	ldr	r0, [sp, #48]	; 0x30
  4052b0:	f003 fbd6 	bl	408a60 <__ssprint_r>
  4052b4:	2800      	cmp	r0, #0
  4052b6:	f47f a883 	bne.w	4043c0 <_svfprintf_r+0x1a4>
  4052ba:	991f      	ldr	r1, [sp, #124]	; 0x7c
  4052bc:	9c27      	ldr	r4, [sp, #156]	; 0x9c
  4052be:	46c8      	mov	r8, r9
  4052c0:	e782      	b.n	4051c8 <_svfprintf_r+0xfac>
  4052c2:	9b0a      	ldr	r3, [sp, #40]	; 0x28
  4052c4:	2b00      	cmp	r3, #0
  4052c6:	bf08      	it	eq
  4052c8:	2301      	moveq	r3, #1
  4052ca:	930a      	str	r3, [sp, #40]	; 0x28
  4052cc:	e6db      	b.n	405086 <_svfprintf_r+0xe6a>
  4052ce:	4630      	mov	r0, r6
  4052d0:	940a      	str	r4, [sp, #40]	; 0x28
  4052d2:	f7fe ff35 	bl	404140 <strlen>
  4052d6:	950f      	str	r5, [sp, #60]	; 0x3c
  4052d8:	900e      	str	r0, [sp, #56]	; 0x38
  4052da:	f8cd b01c 	str.w	fp, [sp, #28]
  4052de:	4603      	mov	r3, r0
  4052e0:	f7ff b9f9 	b.w	4046d6 <_svfprintf_r+0x4ba>
  4052e4:	272d      	movs	r7, #45	; 0x2d
  4052e6:	2300      	movs	r3, #0
  4052e8:	f88d 7077 	strb.w	r7, [sp, #119]	; 0x77
  4052ec:	930a      	str	r3, [sp, #40]	; 0x28
  4052ee:	f7ff b8ae 	b.w	40444e <_svfprintf_r+0x232>
  4052f2:	9b1f      	ldr	r3, [sp, #124]	; 0x7c
  4052f4:	9312      	str	r3, [sp, #72]	; 0x48
  4052f6:	461a      	mov	r2, r3
  4052f8:	3303      	adds	r3, #3
  4052fa:	db04      	blt.n	405306 <_svfprintf_r+0x10ea>
  4052fc:	9b0a      	ldr	r3, [sp, #40]	; 0x28
  4052fe:	4619      	mov	r1, r3
  405300:	4291      	cmp	r1, r2
  405302:	f6bf af17 	bge.w	405134 <_svfprintf_r+0xf18>
  405306:	9b11      	ldr	r3, [sp, #68]	; 0x44
  405308:	3b02      	subs	r3, #2
  40530a:	9311      	str	r3, [sp, #68]	; 0x44
  40530c:	f89d 3044 	ldrb.w	r3, [sp, #68]	; 0x44
  405310:	f88d 3084 	strb.w	r3, [sp, #132]	; 0x84
  405314:	9b12      	ldr	r3, [sp, #72]	; 0x48
  405316:	3b01      	subs	r3, #1
  405318:	2b00      	cmp	r3, #0
  40531a:	931f      	str	r3, [sp, #124]	; 0x7c
  40531c:	bfbd      	ittte	lt
  40531e:	9b12      	ldrlt	r3, [sp, #72]	; 0x48
  405320:	f1c3 0301 	rsblt	r3, r3, #1
  405324:	222d      	movlt	r2, #45	; 0x2d
  405326:	222b      	movge	r2, #43	; 0x2b
  405328:	2b09      	cmp	r3, #9
  40532a:	f88d 2085 	strb.w	r2, [sp, #133]	; 0x85
  40532e:	f340 8116 	ble.w	40555e <_svfprintf_r+0x1342>
  405332:	f10d 0493 	add.w	r4, sp, #147	; 0x93
  405336:	4620      	mov	r0, r4
  405338:	4dab      	ldr	r5, [pc, #684]	; (4055e8 <_svfprintf_r+0x13cc>)
  40533a:	e000      	b.n	40533e <_svfprintf_r+0x1122>
  40533c:	4610      	mov	r0, r2
  40533e:	fb85 1203 	smull	r1, r2, r5, r3
  405342:	17d9      	asrs	r1, r3, #31
  405344:	ebc1 01a2 	rsb	r1, r1, r2, asr #2
  405348:	eb01 0281 	add.w	r2, r1, r1, lsl #2
  40534c:	eba3 0242 	sub.w	r2, r3, r2, lsl #1
  405350:	3230      	adds	r2, #48	; 0x30
  405352:	2909      	cmp	r1, #9
  405354:	f800 2c01 	strb.w	r2, [r0, #-1]
  405358:	460b      	mov	r3, r1
  40535a:	f100 32ff 	add.w	r2, r0, #4294967295
  40535e:	dced      	bgt.n	40533c <_svfprintf_r+0x1120>
  405360:	3330      	adds	r3, #48	; 0x30
  405362:	3802      	subs	r0, #2
  405364:	b2d9      	uxtb	r1, r3
  405366:	4284      	cmp	r4, r0
  405368:	f802 1c01 	strb.w	r1, [r2, #-1]
  40536c:	f240 8165 	bls.w	40563a <_svfprintf_r+0x141e>
  405370:	f10d 0086 	add.w	r0, sp, #134	; 0x86
  405374:	4613      	mov	r3, r2
  405376:	e001      	b.n	40537c <_svfprintf_r+0x1160>
  405378:	f813 1b01 	ldrb.w	r1, [r3], #1
  40537c:	f800 1b01 	strb.w	r1, [r0], #1
  405380:	42a3      	cmp	r3, r4
  405382:	d1f9      	bne.n	405378 <_svfprintf_r+0x115c>
  405384:	3301      	adds	r3, #1
  405386:	1a9b      	subs	r3, r3, r2
  405388:	f10d 0286 	add.w	r2, sp, #134	; 0x86
  40538c:	4413      	add	r3, r2
  40538e:	aa21      	add	r2, sp, #132	; 0x84
  405390:	1a9b      	subs	r3, r3, r2
  405392:	9a13      	ldr	r2, [sp, #76]	; 0x4c
  405394:	931b      	str	r3, [sp, #108]	; 0x6c
  405396:	2a01      	cmp	r2, #1
  405398:	4413      	add	r3, r2
  40539a:	930e      	str	r3, [sp, #56]	; 0x38
  40539c:	f340 8119 	ble.w	4055d2 <_svfprintf_r+0x13b6>
  4053a0:	9b0e      	ldr	r3, [sp, #56]	; 0x38
  4053a2:	9a19      	ldr	r2, [sp, #100]	; 0x64
  4053a4:	4413      	add	r3, r2
  4053a6:	930e      	str	r3, [sp, #56]	; 0x38
  4053a8:	ea23 73e3 	bic.w	r3, r3, r3, asr #31
  4053ac:	9308      	str	r3, [sp, #32]
  4053ae:	2300      	movs	r3, #0
  4053b0:	9312      	str	r3, [sp, #72]	; 0x48
  4053b2:	e6cf      	b.n	405154 <_svfprintf_r+0xf38>
  4053b4:	aa25      	add	r2, sp, #148	; 0x94
  4053b6:	990b      	ldr	r1, [sp, #44]	; 0x2c
  4053b8:	980c      	ldr	r0, [sp, #48]	; 0x30
  4053ba:	f003 fb51 	bl	408a60 <__ssprint_r>
  4053be:	2800      	cmp	r0, #0
  4053c0:	f47e affe 	bne.w	4043c0 <_svfprintf_r+0x1a4>
  4053c4:	9c27      	ldr	r4, [sp, #156]	; 0x9c
  4053c6:	46c8      	mov	r8, r9
  4053c8:	e4d7      	b.n	404d7a <_svfprintf_r+0xb5e>
  4053ca:	4623      	mov	r3, r4
  4053cc:	e6a2      	b.n	405114 <_svfprintf_r+0xef8>
  4053ce:	aa25      	add	r2, sp, #148	; 0x94
  4053d0:	990b      	ldr	r1, [sp, #44]	; 0x2c
  4053d2:	980c      	ldr	r0, [sp, #48]	; 0x30
  4053d4:	f003 fb44 	bl	408a60 <__ssprint_r>
  4053d8:	2800      	cmp	r0, #0
  4053da:	f47e aff1 	bne.w	4043c0 <_svfprintf_r+0x1a4>
  4053de:	9a1f      	ldr	r2, [sp, #124]	; 0x7c
  4053e0:	9c27      	ldr	r4, [sp, #156]	; 0x9c
  4053e2:	46c8      	mov	r8, r9
  4053e4:	e5ae      	b.n	404f44 <_svfprintf_r+0xd28>
  4053e6:	aa25      	add	r2, sp, #148	; 0x94
  4053e8:	990b      	ldr	r1, [sp, #44]	; 0x2c
  4053ea:	980c      	ldr	r0, [sp, #48]	; 0x30
  4053ec:	f003 fb38 	bl	408a60 <__ssprint_r>
  4053f0:	2800      	cmp	r0, #0
  4053f2:	f47e afe5 	bne.w	4043c0 <_svfprintf_r+0x1a4>
  4053f6:	9a1f      	ldr	r2, [sp, #124]	; 0x7c
  4053f8:	9b13      	ldr	r3, [sp, #76]	; 0x4c
  4053fa:	9c27      	ldr	r4, [sp, #156]	; 0x9c
  4053fc:	1a9a      	subs	r2, r3, r2
  4053fe:	46c8      	mov	r8, r9
  405400:	e5b8      	b.n	404f74 <_svfprintf_r+0xd58>
  405402:	9b0a      	ldr	r3, [sp, #40]	; 0x28
  405404:	9612      	str	r6, [sp, #72]	; 0x48
  405406:	2b06      	cmp	r3, #6
  405408:	bf28      	it	cs
  40540a:	2306      	movcs	r3, #6
  40540c:	960a      	str	r6, [sp, #40]	; 0x28
  40540e:	4637      	mov	r7, r6
  405410:	9308      	str	r3, [sp, #32]
  405412:	950f      	str	r5, [sp, #60]	; 0x3c
  405414:	f8cd b01c 	str.w	fp, [sp, #28]
  405418:	930e      	str	r3, [sp, #56]	; 0x38
  40541a:	4e74      	ldr	r6, [pc, #464]	; (4055ec <_svfprintf_r+0x13d0>)
  40541c:	f7ff b816 	b.w	40444c <_svfprintf_r+0x230>
  405420:	a823      	add	r0, sp, #140	; 0x8c
  405422:	a920      	add	r1, sp, #128	; 0x80
  405424:	9d0a      	ldr	r5, [sp, #40]	; 0x28
  405426:	9004      	str	r0, [sp, #16]
  405428:	9103      	str	r1, [sp, #12]
  40542a:	a81f      	add	r0, sp, #124	; 0x7c
  40542c:	2103      	movs	r1, #3
  40542e:	9002      	str	r0, [sp, #8]
  405430:	9a08      	ldr	r2, [sp, #32]
  405432:	9501      	str	r5, [sp, #4]
  405434:	463b      	mov	r3, r7
  405436:	9100      	str	r1, [sp, #0]
  405438:	980c      	ldr	r0, [sp, #48]	; 0x30
  40543a:	f001 f8f1 	bl	406620 <_dtoa_r>
  40543e:	4606      	mov	r6, r0
  405440:	1944      	adds	r4, r0, r5
  405442:	e72b      	b.n	40529c <_svfprintf_r+0x1080>
  405444:	2306      	movs	r3, #6
  405446:	930a      	str	r3, [sp, #40]	; 0x28
  405448:	e61d      	b.n	405086 <_svfprintf_r+0xe6a>
  40544a:	272d      	movs	r7, #45	; 0x2d
  40544c:	f88d 7077 	strb.w	r7, [sp, #119]	; 0x77
  405450:	f7ff bacd 	b.w	4049ee <_svfprintf_r+0x7d2>
  405454:	9a19      	ldr	r2, [sp, #100]	; 0x64
  405456:	9b13      	ldr	r3, [sp, #76]	; 0x4c
  405458:	4413      	add	r3, r2
  40545a:	9a12      	ldr	r2, [sp, #72]	; 0x48
  40545c:	930e      	str	r3, [sp, #56]	; 0x38
  40545e:	2a00      	cmp	r2, #0
  405460:	f340 80b0 	ble.w	4055c4 <_svfprintf_r+0x13a8>
  405464:	ea23 73e3 	bic.w	r3, r3, r3, asr #31
  405468:	9308      	str	r3, [sp, #32]
  40546a:	2367      	movs	r3, #103	; 0x67
  40546c:	9311      	str	r3, [sp, #68]	; 0x44
  40546e:	e671      	b.n	405154 <_svfprintf_r+0xf38>
  405470:	2b00      	cmp	r3, #0
  405472:	f340 80c3 	ble.w	4055fc <_svfprintf_r+0x13e0>
  405476:	9a0a      	ldr	r2, [sp, #40]	; 0x28
  405478:	2a00      	cmp	r2, #0
  40547a:	f040 8099 	bne.w	4055b0 <_svfprintf_r+0x1394>
  40547e:	f01b 0f01 	tst.w	fp, #1
  405482:	f040 8095 	bne.w	4055b0 <_svfprintf_r+0x1394>
  405486:	9308      	str	r3, [sp, #32]
  405488:	930e      	str	r3, [sp, #56]	; 0x38
  40548a:	e663      	b.n	405154 <_svfprintf_r+0xf38>
  40548c:	9b0a      	ldr	r3, [sp, #40]	; 0x28
  40548e:	9308      	str	r3, [sp, #32]
  405490:	930e      	str	r3, [sp, #56]	; 0x38
  405492:	900a      	str	r0, [sp, #40]	; 0x28
  405494:	950f      	str	r5, [sp, #60]	; 0x3c
  405496:	f8cd b01c 	str.w	fp, [sp, #28]
  40549a:	9012      	str	r0, [sp, #72]	; 0x48
  40549c:	f89d 7077 	ldrb.w	r7, [sp, #119]	; 0x77
  4054a0:	f7fe bfd4 	b.w	40444c <_svfprintf_r+0x230>
  4054a4:	9b11      	ldr	r3, [sp, #68]	; 0x44
  4054a6:	2b47      	cmp	r3, #71	; 0x47
  4054a8:	f47f ae20 	bne.w	4050ec <_svfprintf_r+0xed0>
  4054ac:	f01b 0f01 	tst.w	fp, #1
  4054b0:	f47f aeee 	bne.w	405290 <_svfprintf_r+0x1074>
  4054b4:	9b23      	ldr	r3, [sp, #140]	; 0x8c
  4054b6:	1b9b      	subs	r3, r3, r6
  4054b8:	9313      	str	r3, [sp, #76]	; 0x4c
  4054ba:	9b0e      	ldr	r3, [sp, #56]	; 0x38
  4054bc:	2b47      	cmp	r3, #71	; 0x47
  4054be:	f43f af18 	beq.w	4052f2 <_svfprintf_r+0x10d6>
  4054c2:	9b1f      	ldr	r3, [sp, #124]	; 0x7c
  4054c4:	9312      	str	r3, [sp, #72]	; 0x48
  4054c6:	e721      	b.n	40530c <_svfprintf_r+0x10f0>
  4054c8:	424f      	negs	r7, r1
  4054ca:	3110      	adds	r1, #16
  4054cc:	4d48      	ldr	r5, [pc, #288]	; (4055f0 <_svfprintf_r+0x13d4>)
  4054ce:	da2f      	bge.n	405530 <_svfprintf_r+0x1314>
  4054d0:	2410      	movs	r4, #16
  4054d2:	f8dd b030 	ldr.w	fp, [sp, #48]	; 0x30
  4054d6:	e004      	b.n	4054e2 <_svfprintf_r+0x12c6>
  4054d8:	f108 0808 	add.w	r8, r8, #8
  4054dc:	3f10      	subs	r7, #16
  4054de:	2f10      	cmp	r7, #16
  4054e0:	dd26      	ble.n	405530 <_svfprintf_r+0x1314>
  4054e2:	3301      	adds	r3, #1
  4054e4:	3210      	adds	r2, #16
  4054e6:	2b07      	cmp	r3, #7
  4054e8:	9227      	str	r2, [sp, #156]	; 0x9c
  4054ea:	9326      	str	r3, [sp, #152]	; 0x98
  4054ec:	f8c8 5000 	str.w	r5, [r8]
  4054f0:	f8c8 4004 	str.w	r4, [r8, #4]
  4054f4:	ddf0      	ble.n	4054d8 <_svfprintf_r+0x12bc>
  4054f6:	aa25      	add	r2, sp, #148	; 0x94
  4054f8:	990b      	ldr	r1, [sp, #44]	; 0x2c
  4054fa:	4658      	mov	r0, fp
  4054fc:	f003 fab0 	bl	408a60 <__ssprint_r>
  405500:	2800      	cmp	r0, #0
  405502:	f47e af5d 	bne.w	4043c0 <_svfprintf_r+0x1a4>
  405506:	9a27      	ldr	r2, [sp, #156]	; 0x9c
  405508:	9b26      	ldr	r3, [sp, #152]	; 0x98
  40550a:	46c8      	mov	r8, r9
  40550c:	e7e6      	b.n	4054dc <_svfprintf_r+0x12c0>
  40550e:	aa25      	add	r2, sp, #148	; 0x94
  405510:	990b      	ldr	r1, [sp, #44]	; 0x2c
  405512:	980c      	ldr	r0, [sp, #48]	; 0x30
  405514:	f003 faa4 	bl	408a60 <__ssprint_r>
  405518:	2800      	cmp	r0, #0
  40551a:	f47e af51 	bne.w	4043c0 <_svfprintf_r+0x1a4>
  40551e:	991f      	ldr	r1, [sp, #124]	; 0x7c
  405520:	9a27      	ldr	r2, [sp, #156]	; 0x9c
  405522:	9b26      	ldr	r3, [sp, #152]	; 0x98
  405524:	46c8      	mov	r8, r9
  405526:	e667      	b.n	4051f8 <_svfprintf_r+0xfdc>
  405528:	2000      	movs	r0, #0
  40552a:	900a      	str	r0, [sp, #40]	; 0x28
  40552c:	f7fe bed0 	b.w	4042d0 <_svfprintf_r+0xb4>
  405530:	3301      	adds	r3, #1
  405532:	443a      	add	r2, r7
  405534:	2b07      	cmp	r3, #7
  405536:	e888 00a0 	stmia.w	r8, {r5, r7}
  40553a:	9227      	str	r2, [sp, #156]	; 0x9c
  40553c:	9326      	str	r3, [sp, #152]	; 0x98
  40553e:	f108 0808 	add.w	r8, r8, #8
  405542:	f77f ae5c 	ble.w	4051fe <_svfprintf_r+0xfe2>
  405546:	aa25      	add	r2, sp, #148	; 0x94
  405548:	990b      	ldr	r1, [sp, #44]	; 0x2c
  40554a:	980c      	ldr	r0, [sp, #48]	; 0x30
  40554c:	f003 fa88 	bl	408a60 <__ssprint_r>
  405550:	2800      	cmp	r0, #0
  405552:	f47e af35 	bne.w	4043c0 <_svfprintf_r+0x1a4>
  405556:	9a27      	ldr	r2, [sp, #156]	; 0x9c
  405558:	9b26      	ldr	r3, [sp, #152]	; 0x98
  40555a:	46c8      	mov	r8, r9
  40555c:	e64f      	b.n	4051fe <_svfprintf_r+0xfe2>
  40555e:	3330      	adds	r3, #48	; 0x30
  405560:	2230      	movs	r2, #48	; 0x30
  405562:	f88d 3087 	strb.w	r3, [sp, #135]	; 0x87
  405566:	f88d 2086 	strb.w	r2, [sp, #134]	; 0x86
  40556a:	ab22      	add	r3, sp, #136	; 0x88
  40556c:	e70f      	b.n	40538e <_svfprintf_r+0x1172>
  40556e:	9b12      	ldr	r3, [sp, #72]	; 0x48
  405570:	9a19      	ldr	r2, [sp, #100]	; 0x64
  405572:	4413      	add	r3, r2
  405574:	930e      	str	r3, [sp, #56]	; 0x38
  405576:	e775      	b.n	405464 <_svfprintf_r+0x1248>
  405578:	9b23      	ldr	r3, [sp, #140]	; 0x8c
  40557a:	e5cb      	b.n	405114 <_svfprintf_r+0xef8>
  40557c:	9b14      	ldr	r3, [sp, #80]	; 0x50
  40557e:	4e1d      	ldr	r6, [pc, #116]	; (4055f4 <_svfprintf_r+0x13d8>)
  405580:	2b00      	cmp	r3, #0
  405582:	bfb6      	itet	lt
  405584:	272d      	movlt	r7, #45	; 0x2d
  405586:	f89d 7077 	ldrbge.w	r7, [sp, #119]	; 0x77
  40558a:	f88d 7077 	strblt.w	r7, [sp, #119]	; 0x77
  40558e:	4b1a      	ldr	r3, [pc, #104]	; (4055f8 <_svfprintf_r+0x13dc>)
  405590:	f7ff ba2f 	b.w	4049f2 <_svfprintf_r+0x7d6>
  405594:	9a16      	ldr	r2, [sp, #88]	; 0x58
  405596:	9808      	ldr	r0, [sp, #32]
  405598:	9b17      	ldr	r3, [sp, #92]	; 0x5c
  40559a:	4639      	mov	r1, r7
  40559c:	f004 f8fc 	bl	409798 <__aeabi_dcmpeq>
  4055a0:	2800      	cmp	r0, #0
  4055a2:	f47f ae7f 	bne.w	4052a4 <_svfprintf_r+0x1088>
  4055a6:	f1c5 0501 	rsb	r5, r5, #1
  4055aa:	951f      	str	r5, [sp, #124]	; 0x7c
  4055ac:	442c      	add	r4, r5
  4055ae:	e59e      	b.n	4050ee <_svfprintf_r+0xed2>
  4055b0:	9b12      	ldr	r3, [sp, #72]	; 0x48
  4055b2:	9a19      	ldr	r2, [sp, #100]	; 0x64
  4055b4:	4413      	add	r3, r2
  4055b6:	9a0a      	ldr	r2, [sp, #40]	; 0x28
  4055b8:	441a      	add	r2, r3
  4055ba:	ea22 73e2 	bic.w	r3, r2, r2, asr #31
  4055be:	920e      	str	r2, [sp, #56]	; 0x38
  4055c0:	9308      	str	r3, [sp, #32]
  4055c2:	e5c7      	b.n	405154 <_svfprintf_r+0xf38>
  4055c4:	9b12      	ldr	r3, [sp, #72]	; 0x48
  4055c6:	9a0e      	ldr	r2, [sp, #56]	; 0x38
  4055c8:	f1c3 0301 	rsb	r3, r3, #1
  4055cc:	441a      	add	r2, r3
  4055ce:	4613      	mov	r3, r2
  4055d0:	e7d0      	b.n	405574 <_svfprintf_r+0x1358>
  4055d2:	f01b 0301 	ands.w	r3, fp, #1
  4055d6:	9312      	str	r3, [sp, #72]	; 0x48
  4055d8:	f47f aee2 	bne.w	4053a0 <_svfprintf_r+0x1184>
  4055dc:	9b0e      	ldr	r3, [sp, #56]	; 0x38
  4055de:	ea23 73e3 	bic.w	r3, r3, r3, asr #31
  4055e2:	9308      	str	r3, [sp, #32]
  4055e4:	e5b6      	b.n	405154 <_svfprintf_r+0xf38>
  4055e6:	bf00      	nop
  4055e8:	66666667 	.word	0x66666667
  4055ec:	00409f70 	.word	0x00409f70
  4055f0:	00409f8c 	.word	0x00409f8c
  4055f4:	00409f44 	.word	0x00409f44
  4055f8:	00409f40 	.word	0x00409f40
  4055fc:	9b0a      	ldr	r3, [sp, #40]	; 0x28
  4055fe:	b913      	cbnz	r3, 405606 <_svfprintf_r+0x13ea>
  405600:	f01b 0f01 	tst.w	fp, #1
  405604:	d002      	beq.n	40560c <_svfprintf_r+0x13f0>
  405606:	9b19      	ldr	r3, [sp, #100]	; 0x64
  405608:	3301      	adds	r3, #1
  40560a:	e7d4      	b.n	4055b6 <_svfprintf_r+0x139a>
  40560c:	2301      	movs	r3, #1
  40560e:	e73a      	b.n	405486 <_svfprintf_r+0x126a>
  405610:	9d0f      	ldr	r5, [sp, #60]	; 0x3c
  405612:	f89a 3001 	ldrb.w	r3, [sl, #1]
  405616:	6828      	ldr	r0, [r5, #0]
  405618:	ea40 70e0 	orr.w	r0, r0, r0, asr #31
  40561c:	900a      	str	r0, [sp, #40]	; 0x28
  40561e:	4628      	mov	r0, r5
  405620:	3004      	adds	r0, #4
  405622:	46a2      	mov	sl, r4
  405624:	900f      	str	r0, [sp, #60]	; 0x3c
  405626:	f7fe be51 	b.w	4042cc <_svfprintf_r+0xb0>
  40562a:	f88d 1077 	strb.w	r1, [sp, #119]	; 0x77
  40562e:	f7ff b867 	b.w	404700 <_svfprintf_r+0x4e4>
  405632:	f88d 1077 	strb.w	r1, [sp, #119]	; 0x77
  405636:	f7ff ba15 	b.w	404a64 <_svfprintf_r+0x848>
  40563a:	f10d 0386 	add.w	r3, sp, #134	; 0x86
  40563e:	e6a6      	b.n	40538e <_svfprintf_r+0x1172>
  405640:	f88d 1077 	strb.w	r1, [sp, #119]	; 0x77
  405644:	f7ff b8eb 	b.w	40481e <_svfprintf_r+0x602>
  405648:	9a0c      	ldr	r2, [sp, #48]	; 0x30
  40564a:	230c      	movs	r3, #12
  40564c:	6013      	str	r3, [r2, #0]
  40564e:	f04f 33ff 	mov.w	r3, #4294967295
  405652:	9309      	str	r3, [sp, #36]	; 0x24
  405654:	f7fe bebd 	b.w	4043d2 <_svfprintf_r+0x1b6>
  405658:	f88d 1077 	strb.w	r1, [sp, #119]	; 0x77
  40565c:	f7ff b99a 	b.w	404994 <_svfprintf_r+0x778>
  405660:	f88d 1077 	strb.w	r1, [sp, #119]	; 0x77
  405664:	f7ff b976 	b.w	404954 <_svfprintf_r+0x738>
  405668:	f88d 1077 	strb.w	r1, [sp, #119]	; 0x77
  40566c:	f7ff b959 	b.w	404922 <_svfprintf_r+0x706>
  405670:	f88d 1077 	strb.w	r1, [sp, #119]	; 0x77
  405674:	f7ff b912 	b.w	40489c <_svfprintf_r+0x680>

00405678 <__sprint_r.part.0>:
  405678:	e92d 4ff8 	stmdb	sp!, {r3, r4, r5, r6, r7, r8, r9, sl, fp, lr}
  40567c:	6e4b      	ldr	r3, [r1, #100]	; 0x64
  40567e:	049c      	lsls	r4, r3, #18
  405680:	4693      	mov	fp, r2
  405682:	d52f      	bpl.n	4056e4 <__sprint_r.part.0+0x6c>
  405684:	6893      	ldr	r3, [r2, #8]
  405686:	6812      	ldr	r2, [r2, #0]
  405688:	b353      	cbz	r3, 4056e0 <__sprint_r.part.0+0x68>
  40568a:	460e      	mov	r6, r1
  40568c:	4607      	mov	r7, r0
  40568e:	f102 0908 	add.w	r9, r2, #8
  405692:	e919 0420 	ldmdb	r9, {r5, sl}
  405696:	ea5f 089a 	movs.w	r8, sl, lsr #2
  40569a:	d017      	beq.n	4056cc <__sprint_r.part.0+0x54>
  40569c:	3d04      	subs	r5, #4
  40569e:	2400      	movs	r4, #0
  4056a0:	e001      	b.n	4056a6 <__sprint_r.part.0+0x2e>
  4056a2:	45a0      	cmp	r8, r4
  4056a4:	d010      	beq.n	4056c8 <__sprint_r.part.0+0x50>
  4056a6:	4632      	mov	r2, r6
  4056a8:	f855 1f04 	ldr.w	r1, [r5, #4]!
  4056ac:	4638      	mov	r0, r7
  4056ae:	f002 f87b 	bl	4077a8 <_fputwc_r>
  4056b2:	1c43      	adds	r3, r0, #1
  4056b4:	f104 0401 	add.w	r4, r4, #1
  4056b8:	d1f3      	bne.n	4056a2 <__sprint_r.part.0+0x2a>
  4056ba:	2300      	movs	r3, #0
  4056bc:	f8cb 3008 	str.w	r3, [fp, #8]
  4056c0:	f8cb 3004 	str.w	r3, [fp, #4]
  4056c4:	e8bd 8ff8 	ldmia.w	sp!, {r3, r4, r5, r6, r7, r8, r9, sl, fp, pc}
  4056c8:	f8db 3008 	ldr.w	r3, [fp, #8]
  4056cc:	f02a 0a03 	bic.w	sl, sl, #3
  4056d0:	eba3 030a 	sub.w	r3, r3, sl
  4056d4:	f8cb 3008 	str.w	r3, [fp, #8]
  4056d8:	f109 0908 	add.w	r9, r9, #8
  4056dc:	2b00      	cmp	r3, #0
  4056de:	d1d8      	bne.n	405692 <__sprint_r.part.0+0x1a>
  4056e0:	2000      	movs	r0, #0
  4056e2:	e7ea      	b.n	4056ba <__sprint_r.part.0+0x42>
  4056e4:	f002 f9ca 	bl	407a7c <__sfvwrite_r>
  4056e8:	2300      	movs	r3, #0
  4056ea:	f8cb 3008 	str.w	r3, [fp, #8]
  4056ee:	f8cb 3004 	str.w	r3, [fp, #4]
  4056f2:	e8bd 8ff8 	ldmia.w	sp!, {r3, r4, r5, r6, r7, r8, r9, sl, fp, pc}
  4056f6:	bf00      	nop

004056f8 <_vfiprintf_r>:
  4056f8:	e92d 4ff0 	stmdb	sp!, {r4, r5, r6, r7, r8, r9, sl, fp, lr}
  4056fc:	b0ad      	sub	sp, #180	; 0xb4
  4056fe:	461d      	mov	r5, r3
  405700:	468b      	mov	fp, r1
  405702:	4690      	mov	r8, r2
  405704:	9307      	str	r3, [sp, #28]
  405706:	9006      	str	r0, [sp, #24]
  405708:	b118      	cbz	r0, 405712 <_vfiprintf_r+0x1a>
  40570a:	6b83      	ldr	r3, [r0, #56]	; 0x38
  40570c:	2b00      	cmp	r3, #0
  40570e:	f000 80f3 	beq.w	4058f8 <_vfiprintf_r+0x200>
  405712:	f8db 3064 	ldr.w	r3, [fp, #100]	; 0x64
  405716:	f9bb 000c 	ldrsh.w	r0, [fp, #12]
  40571a:	07df      	lsls	r7, r3, #31
  40571c:	b281      	uxth	r1, r0
  40571e:	d402      	bmi.n	405726 <_vfiprintf_r+0x2e>
  405720:	058e      	lsls	r6, r1, #22
  405722:	f140 80fc 	bpl.w	40591e <_vfiprintf_r+0x226>
  405726:	048c      	lsls	r4, r1, #18
  405728:	d40a      	bmi.n	405740 <_vfiprintf_r+0x48>
  40572a:	f8db 3064 	ldr.w	r3, [fp, #100]	; 0x64
  40572e:	f440 5100 	orr.w	r1, r0, #8192	; 0x2000
  405732:	f423 5300 	bic.w	r3, r3, #8192	; 0x2000
  405736:	f8ab 100c 	strh.w	r1, [fp, #12]
  40573a:	f8cb 3064 	str.w	r3, [fp, #100]	; 0x64
  40573e:	b289      	uxth	r1, r1
  405740:	0708      	lsls	r0, r1, #28
  405742:	f140 80b3 	bpl.w	4058ac <_vfiprintf_r+0x1b4>
  405746:	f8db 3010 	ldr.w	r3, [fp, #16]
  40574a:	2b00      	cmp	r3, #0
  40574c:	f000 80ae 	beq.w	4058ac <_vfiprintf_r+0x1b4>
  405750:	f001 031a 	and.w	r3, r1, #26
  405754:	2b0a      	cmp	r3, #10
  405756:	f000 80b5 	beq.w	4058c4 <_vfiprintf_r+0x1cc>
  40575a:	2300      	movs	r3, #0
  40575c:	f10d 0970 	add.w	r9, sp, #112	; 0x70
  405760:	930b      	str	r3, [sp, #44]	; 0x2c
  405762:	9311      	str	r3, [sp, #68]	; 0x44
  405764:	9310      	str	r3, [sp, #64]	; 0x40
  405766:	9303      	str	r3, [sp, #12]
  405768:	f8cd 903c 	str.w	r9, [sp, #60]	; 0x3c
  40576c:	46ca      	mov	sl, r9
  40576e:	f8cd b010 	str.w	fp, [sp, #16]
  405772:	f898 3000 	ldrb.w	r3, [r8]
  405776:	4644      	mov	r4, r8
  405778:	b1fb      	cbz	r3, 4057ba <_vfiprintf_r+0xc2>
  40577a:	2b25      	cmp	r3, #37	; 0x25
  40577c:	d102      	bne.n	405784 <_vfiprintf_r+0x8c>
  40577e:	e01c      	b.n	4057ba <_vfiprintf_r+0xc2>
  405780:	2b25      	cmp	r3, #37	; 0x25
  405782:	d003      	beq.n	40578c <_vfiprintf_r+0x94>
  405784:	f814 3f01 	ldrb.w	r3, [r4, #1]!
  405788:	2b00      	cmp	r3, #0
  40578a:	d1f9      	bne.n	405780 <_vfiprintf_r+0x88>
  40578c:	eba4 0508 	sub.w	r5, r4, r8
  405790:	b19d      	cbz	r5, 4057ba <_vfiprintf_r+0xc2>
  405792:	9b10      	ldr	r3, [sp, #64]	; 0x40
  405794:	9a11      	ldr	r2, [sp, #68]	; 0x44
  405796:	f8ca 8000 	str.w	r8, [sl]
  40579a:	3301      	adds	r3, #1
  40579c:	442a      	add	r2, r5
  40579e:	2b07      	cmp	r3, #7
  4057a0:	f8ca 5004 	str.w	r5, [sl, #4]
  4057a4:	9211      	str	r2, [sp, #68]	; 0x44
  4057a6:	9310      	str	r3, [sp, #64]	; 0x40
  4057a8:	dd7a      	ble.n	4058a0 <_vfiprintf_r+0x1a8>
  4057aa:	2a00      	cmp	r2, #0
  4057ac:	f040 84b0 	bne.w	406110 <_vfiprintf_r+0xa18>
  4057b0:	9b03      	ldr	r3, [sp, #12]
  4057b2:	9210      	str	r2, [sp, #64]	; 0x40
  4057b4:	442b      	add	r3, r5
  4057b6:	46ca      	mov	sl, r9
  4057b8:	9303      	str	r3, [sp, #12]
  4057ba:	7823      	ldrb	r3, [r4, #0]
  4057bc:	2b00      	cmp	r3, #0
  4057be:	f000 83e0 	beq.w	405f82 <_vfiprintf_r+0x88a>
  4057c2:	2000      	movs	r0, #0
  4057c4:	f04f 0300 	mov.w	r3, #0
  4057c8:	f88d 3037 	strb.w	r3, [sp, #55]	; 0x37
  4057cc:	f104 0801 	add.w	r8, r4, #1
  4057d0:	7862      	ldrb	r2, [r4, #1]
  4057d2:	4605      	mov	r5, r0
  4057d4:	4606      	mov	r6, r0
  4057d6:	4603      	mov	r3, r0
  4057d8:	f04f 34ff 	mov.w	r4, #4294967295
  4057dc:	f108 0801 	add.w	r8, r8, #1
  4057e0:	f1a2 0120 	sub.w	r1, r2, #32
  4057e4:	2958      	cmp	r1, #88	; 0x58
  4057e6:	f200 82de 	bhi.w	405da6 <_vfiprintf_r+0x6ae>
  4057ea:	e8df f011 	tbh	[pc, r1, lsl #1]
  4057ee:	0221      	.short	0x0221
  4057f0:	02dc02dc 	.word	0x02dc02dc
  4057f4:	02dc0229 	.word	0x02dc0229
  4057f8:	02dc02dc 	.word	0x02dc02dc
  4057fc:	02dc02dc 	.word	0x02dc02dc
  405800:	028902dc 	.word	0x028902dc
  405804:	02dc0295 	.word	0x02dc0295
  405808:	02bd00a2 	.word	0x02bd00a2
  40580c:	019f02dc 	.word	0x019f02dc
  405810:	01a401a4 	.word	0x01a401a4
  405814:	01a401a4 	.word	0x01a401a4
  405818:	01a401a4 	.word	0x01a401a4
  40581c:	01a401a4 	.word	0x01a401a4
  405820:	02dc01a4 	.word	0x02dc01a4
  405824:	02dc02dc 	.word	0x02dc02dc
  405828:	02dc02dc 	.word	0x02dc02dc
  40582c:	02dc02dc 	.word	0x02dc02dc
  405830:	02dc02dc 	.word	0x02dc02dc
  405834:	01b202dc 	.word	0x01b202dc
  405838:	02dc02dc 	.word	0x02dc02dc
  40583c:	02dc02dc 	.word	0x02dc02dc
  405840:	02dc02dc 	.word	0x02dc02dc
  405844:	02dc02dc 	.word	0x02dc02dc
  405848:	02dc02dc 	.word	0x02dc02dc
  40584c:	02dc0197 	.word	0x02dc0197
  405850:	02dc02dc 	.word	0x02dc02dc
  405854:	02dc02dc 	.word	0x02dc02dc
  405858:	02dc019b 	.word	0x02dc019b
  40585c:	025302dc 	.word	0x025302dc
  405860:	02dc02dc 	.word	0x02dc02dc
  405864:	02dc02dc 	.word	0x02dc02dc
  405868:	02dc02dc 	.word	0x02dc02dc
  40586c:	02dc02dc 	.word	0x02dc02dc
  405870:	02dc02dc 	.word	0x02dc02dc
  405874:	021b025a 	.word	0x021b025a
  405878:	02dc02dc 	.word	0x02dc02dc
  40587c:	026e02dc 	.word	0x026e02dc
  405880:	02dc021b 	.word	0x02dc021b
  405884:	027302dc 	.word	0x027302dc
  405888:	01f502dc 	.word	0x01f502dc
  40588c:	02090182 	.word	0x02090182
  405890:	02dc02d7 	.word	0x02dc02d7
  405894:	02dc029a 	.word	0x02dc029a
  405898:	02dc00a7 	.word	0x02dc00a7
  40589c:	022e02dc 	.word	0x022e02dc
  4058a0:	f10a 0a08 	add.w	sl, sl, #8
  4058a4:	9b03      	ldr	r3, [sp, #12]
  4058a6:	442b      	add	r3, r5
  4058a8:	9303      	str	r3, [sp, #12]
  4058aa:	e786      	b.n	4057ba <_vfiprintf_r+0xc2>
  4058ac:	4659      	mov	r1, fp
  4058ae:	9806      	ldr	r0, [sp, #24]
  4058b0:	f000 fdac 	bl	40640c <__swsetup_r>
  4058b4:	bb18      	cbnz	r0, 4058fe <_vfiprintf_r+0x206>
  4058b6:	f8bb 100c 	ldrh.w	r1, [fp, #12]
  4058ba:	f001 031a 	and.w	r3, r1, #26
  4058be:	2b0a      	cmp	r3, #10
  4058c0:	f47f af4b 	bne.w	40575a <_vfiprintf_r+0x62>
  4058c4:	f9bb 300e 	ldrsh.w	r3, [fp, #14]
  4058c8:	2b00      	cmp	r3, #0
  4058ca:	f6ff af46 	blt.w	40575a <_vfiprintf_r+0x62>
  4058ce:	f8db 3064 	ldr.w	r3, [fp, #100]	; 0x64
  4058d2:	07db      	lsls	r3, r3, #31
  4058d4:	d405      	bmi.n	4058e2 <_vfiprintf_r+0x1ea>
  4058d6:	058f      	lsls	r7, r1, #22
  4058d8:	d403      	bmi.n	4058e2 <_vfiprintf_r+0x1ea>
  4058da:	f8db 0058 	ldr.w	r0, [fp, #88]	; 0x58
  4058de:	f002 fa91 	bl	407e04 <__retarget_lock_release_recursive>
  4058e2:	462b      	mov	r3, r5
  4058e4:	4642      	mov	r2, r8
  4058e6:	4659      	mov	r1, fp
  4058e8:	9806      	ldr	r0, [sp, #24]
  4058ea:	f000 fd4d 	bl	406388 <__sbprintf>
  4058ee:	9003      	str	r0, [sp, #12]
  4058f0:	9803      	ldr	r0, [sp, #12]
  4058f2:	b02d      	add	sp, #180	; 0xb4
  4058f4:	e8bd 8ff0 	ldmia.w	sp!, {r4, r5, r6, r7, r8, r9, sl, fp, pc}
  4058f8:	f001 feb4 	bl	407664 <__sinit>
  4058fc:	e709      	b.n	405712 <_vfiprintf_r+0x1a>
  4058fe:	f8db 3064 	ldr.w	r3, [fp, #100]	; 0x64
  405902:	07d9      	lsls	r1, r3, #31
  405904:	d404      	bmi.n	405910 <_vfiprintf_r+0x218>
  405906:	f8bb 300c 	ldrh.w	r3, [fp, #12]
  40590a:	059a      	lsls	r2, r3, #22
  40590c:	f140 84aa 	bpl.w	406264 <_vfiprintf_r+0xb6c>
  405910:	f04f 33ff 	mov.w	r3, #4294967295
  405914:	9303      	str	r3, [sp, #12]
  405916:	9803      	ldr	r0, [sp, #12]
  405918:	b02d      	add	sp, #180	; 0xb4
  40591a:	e8bd 8ff0 	ldmia.w	sp!, {r4, r5, r6, r7, r8, r9, sl, fp, pc}
  40591e:	f8db 0058 	ldr.w	r0, [fp, #88]	; 0x58
  405922:	f002 fa6d 	bl	407e00 <__retarget_lock_acquire_recursive>
  405926:	f9bb 000c 	ldrsh.w	r0, [fp, #12]
  40592a:	b281      	uxth	r1, r0
  40592c:	e6fb      	b.n	405726 <_vfiprintf_r+0x2e>
  40592e:	4276      	negs	r6, r6
  405930:	9207      	str	r2, [sp, #28]
  405932:	f043 0304 	orr.w	r3, r3, #4
  405936:	f898 2000 	ldrb.w	r2, [r8]
  40593a:	e74f      	b.n	4057dc <_vfiprintf_r+0xe4>
  40593c:	9608      	str	r6, [sp, #32]
  40593e:	069e      	lsls	r6, r3, #26
  405940:	f100 8450 	bmi.w	4061e4 <_vfiprintf_r+0xaec>
  405944:	9907      	ldr	r1, [sp, #28]
  405946:	06dd      	lsls	r5, r3, #27
  405948:	460a      	mov	r2, r1
  40594a:	f100 83ef 	bmi.w	40612c <_vfiprintf_r+0xa34>
  40594e:	0658      	lsls	r0, r3, #25
  405950:	f140 83ec 	bpl.w	40612c <_vfiprintf_r+0xa34>
  405954:	880e      	ldrh	r6, [r1, #0]
  405956:	3104      	adds	r1, #4
  405958:	2700      	movs	r7, #0
  40595a:	2201      	movs	r2, #1
  40595c:	9107      	str	r1, [sp, #28]
  40595e:	f04f 0100 	mov.w	r1, #0
  405962:	f88d 1037 	strb.w	r1, [sp, #55]	; 0x37
  405966:	2500      	movs	r5, #0
  405968:	1c61      	adds	r1, r4, #1
  40596a:	f000 8116 	beq.w	405b9a <_vfiprintf_r+0x4a2>
  40596e:	f023 0180 	bic.w	r1, r3, #128	; 0x80
  405972:	9102      	str	r1, [sp, #8]
  405974:	ea56 0107 	orrs.w	r1, r6, r7
  405978:	f040 8114 	bne.w	405ba4 <_vfiprintf_r+0x4ac>
  40597c:	2c00      	cmp	r4, #0
  40597e:	f040 835c 	bne.w	40603a <_vfiprintf_r+0x942>
  405982:	2a00      	cmp	r2, #0
  405984:	f040 83b7 	bne.w	4060f6 <_vfiprintf_r+0x9fe>
  405988:	f013 0301 	ands.w	r3, r3, #1
  40598c:	9305      	str	r3, [sp, #20]
  40598e:	f000 8457 	beq.w	406240 <_vfiprintf_r+0xb48>
  405992:	f10d 0bb0 	add.w	fp, sp, #176	; 0xb0
  405996:	2330      	movs	r3, #48	; 0x30
  405998:	f80b 3d41 	strb.w	r3, [fp, #-65]!
  40599c:	9b05      	ldr	r3, [sp, #20]
  40599e:	42a3      	cmp	r3, r4
  4059a0:	bfb8      	it	lt
  4059a2:	4623      	movlt	r3, r4
  4059a4:	9301      	str	r3, [sp, #4]
  4059a6:	b10d      	cbz	r5, 4059ac <_vfiprintf_r+0x2b4>
  4059a8:	3301      	adds	r3, #1
  4059aa:	9301      	str	r3, [sp, #4]
  4059ac:	9b02      	ldr	r3, [sp, #8]
  4059ae:	f013 0302 	ands.w	r3, r3, #2
  4059b2:	9309      	str	r3, [sp, #36]	; 0x24
  4059b4:	d002      	beq.n	4059bc <_vfiprintf_r+0x2c4>
  4059b6:	9b01      	ldr	r3, [sp, #4]
  4059b8:	3302      	adds	r3, #2
  4059ba:	9301      	str	r3, [sp, #4]
  4059bc:	9b02      	ldr	r3, [sp, #8]
  4059be:	f013 0384 	ands.w	r3, r3, #132	; 0x84
  4059c2:	930a      	str	r3, [sp, #40]	; 0x28
  4059c4:	f040 8217 	bne.w	405df6 <_vfiprintf_r+0x6fe>
  4059c8:	9b08      	ldr	r3, [sp, #32]
  4059ca:	9a01      	ldr	r2, [sp, #4]
  4059cc:	1a9d      	subs	r5, r3, r2
  4059ce:	2d00      	cmp	r5, #0
  4059d0:	f340 8211 	ble.w	405df6 <_vfiprintf_r+0x6fe>
  4059d4:	2d10      	cmp	r5, #16
  4059d6:	f340 8490 	ble.w	4062fa <_vfiprintf_r+0xc02>
  4059da:	9b10      	ldr	r3, [sp, #64]	; 0x40
  4059dc:	9a11      	ldr	r2, [sp, #68]	; 0x44
  4059de:	4ec4      	ldr	r6, [pc, #784]	; (405cf0 <_vfiprintf_r+0x5f8>)
  4059e0:	46d6      	mov	lr, sl
  4059e2:	2710      	movs	r7, #16
  4059e4:	46a2      	mov	sl, r4
  4059e6:	4619      	mov	r1, r3
  4059e8:	9c06      	ldr	r4, [sp, #24]
  4059ea:	e007      	b.n	4059fc <_vfiprintf_r+0x304>
  4059ec:	f101 0c02 	add.w	ip, r1, #2
  4059f0:	f10e 0e08 	add.w	lr, lr, #8
  4059f4:	4601      	mov	r1, r0
  4059f6:	3d10      	subs	r5, #16
  4059f8:	2d10      	cmp	r5, #16
  4059fa:	dd11      	ble.n	405a20 <_vfiprintf_r+0x328>
  4059fc:	1c48      	adds	r0, r1, #1
  4059fe:	3210      	adds	r2, #16
  405a00:	2807      	cmp	r0, #7
  405a02:	9211      	str	r2, [sp, #68]	; 0x44
  405a04:	e88e 00c0 	stmia.w	lr, {r6, r7}
  405a08:	9010      	str	r0, [sp, #64]	; 0x40
  405a0a:	ddef      	ble.n	4059ec <_vfiprintf_r+0x2f4>
  405a0c:	2a00      	cmp	r2, #0
  405a0e:	f040 81e4 	bne.w	405dda <_vfiprintf_r+0x6e2>
  405a12:	3d10      	subs	r5, #16
  405a14:	2d10      	cmp	r5, #16
  405a16:	4611      	mov	r1, r2
  405a18:	f04f 0c01 	mov.w	ip, #1
  405a1c:	46ce      	mov	lr, r9
  405a1e:	dced      	bgt.n	4059fc <_vfiprintf_r+0x304>
  405a20:	4654      	mov	r4, sl
  405a22:	4661      	mov	r1, ip
  405a24:	46f2      	mov	sl, lr
  405a26:	442a      	add	r2, r5
  405a28:	2907      	cmp	r1, #7
  405a2a:	9211      	str	r2, [sp, #68]	; 0x44
  405a2c:	f8ca 6000 	str.w	r6, [sl]
  405a30:	f8ca 5004 	str.w	r5, [sl, #4]
  405a34:	9110      	str	r1, [sp, #64]	; 0x40
  405a36:	f300 82ec 	bgt.w	406012 <_vfiprintf_r+0x91a>
  405a3a:	f89d 5037 	ldrb.w	r5, [sp, #55]	; 0x37
  405a3e:	f10a 0a08 	add.w	sl, sl, #8
  405a42:	1c48      	adds	r0, r1, #1
  405a44:	2d00      	cmp	r5, #0
  405a46:	f040 81de 	bne.w	405e06 <_vfiprintf_r+0x70e>
  405a4a:	9b09      	ldr	r3, [sp, #36]	; 0x24
  405a4c:	2b00      	cmp	r3, #0
  405a4e:	f000 81f8 	beq.w	405e42 <_vfiprintf_r+0x74a>
  405a52:	3202      	adds	r2, #2
  405a54:	a90e      	add	r1, sp, #56	; 0x38
  405a56:	2302      	movs	r3, #2
  405a58:	2807      	cmp	r0, #7
  405a5a:	9211      	str	r2, [sp, #68]	; 0x44
  405a5c:	9010      	str	r0, [sp, #64]	; 0x40
  405a5e:	e88a 000a 	stmia.w	sl, {r1, r3}
  405a62:	f340 81ea 	ble.w	405e3a <_vfiprintf_r+0x742>
  405a66:	2a00      	cmp	r2, #0
  405a68:	f040 838c 	bne.w	406184 <_vfiprintf_r+0xa8c>
  405a6c:	9b0a      	ldr	r3, [sp, #40]	; 0x28
  405a6e:	2b80      	cmp	r3, #128	; 0x80
  405a70:	f04f 0001 	mov.w	r0, #1
  405a74:	4611      	mov	r1, r2
  405a76:	46ca      	mov	sl, r9
  405a78:	f040 81e7 	bne.w	405e4a <_vfiprintf_r+0x752>
  405a7c:	9b08      	ldr	r3, [sp, #32]
  405a7e:	9d01      	ldr	r5, [sp, #4]
  405a80:	1b5e      	subs	r6, r3, r5
  405a82:	2e00      	cmp	r6, #0
  405a84:	f340 81e1 	ble.w	405e4a <_vfiprintf_r+0x752>
  405a88:	2e10      	cmp	r6, #16
  405a8a:	4d9a      	ldr	r5, [pc, #616]	; (405cf4 <_vfiprintf_r+0x5fc>)
  405a8c:	f340 8450 	ble.w	406330 <_vfiprintf_r+0xc38>
  405a90:	46d4      	mov	ip, sl
  405a92:	2710      	movs	r7, #16
  405a94:	46a2      	mov	sl, r4
  405a96:	9c06      	ldr	r4, [sp, #24]
  405a98:	e007      	b.n	405aaa <_vfiprintf_r+0x3b2>
  405a9a:	f101 0e02 	add.w	lr, r1, #2
  405a9e:	f10c 0c08 	add.w	ip, ip, #8
  405aa2:	4601      	mov	r1, r0
  405aa4:	3e10      	subs	r6, #16
  405aa6:	2e10      	cmp	r6, #16
  405aa8:	dd11      	ble.n	405ace <_vfiprintf_r+0x3d6>
  405aaa:	1c48      	adds	r0, r1, #1
  405aac:	3210      	adds	r2, #16
  405aae:	2807      	cmp	r0, #7
  405ab0:	9211      	str	r2, [sp, #68]	; 0x44
  405ab2:	e88c 00a0 	stmia.w	ip, {r5, r7}
  405ab6:	9010      	str	r0, [sp, #64]	; 0x40
  405ab8:	ddef      	ble.n	405a9a <_vfiprintf_r+0x3a2>
  405aba:	2a00      	cmp	r2, #0
  405abc:	f040 829d 	bne.w	405ffa <_vfiprintf_r+0x902>
  405ac0:	3e10      	subs	r6, #16
  405ac2:	2e10      	cmp	r6, #16
  405ac4:	f04f 0e01 	mov.w	lr, #1
  405ac8:	4611      	mov	r1, r2
  405aca:	46cc      	mov	ip, r9
  405acc:	dced      	bgt.n	405aaa <_vfiprintf_r+0x3b2>
  405ace:	4654      	mov	r4, sl
  405ad0:	46e2      	mov	sl, ip
  405ad2:	4432      	add	r2, r6
  405ad4:	f1be 0f07 	cmp.w	lr, #7
  405ad8:	9211      	str	r2, [sp, #68]	; 0x44
  405ada:	e88a 0060 	stmia.w	sl, {r5, r6}
  405ade:	f8cd e040 	str.w	lr, [sp, #64]	; 0x40
  405ae2:	f300 8369 	bgt.w	4061b8 <_vfiprintf_r+0xac0>
  405ae6:	f10a 0a08 	add.w	sl, sl, #8
  405aea:	f10e 0001 	add.w	r0, lr, #1
  405aee:	4671      	mov	r1, lr
  405af0:	e1ab      	b.n	405e4a <_vfiprintf_r+0x752>
  405af2:	9608      	str	r6, [sp, #32]
  405af4:	f013 0220 	ands.w	r2, r3, #32
  405af8:	f040 838c 	bne.w	406214 <_vfiprintf_r+0xb1c>
  405afc:	f013 0110 	ands.w	r1, r3, #16
  405b00:	f040 831a 	bne.w	406138 <_vfiprintf_r+0xa40>
  405b04:	f013 0240 	ands.w	r2, r3, #64	; 0x40
  405b08:	f000 8316 	beq.w	406138 <_vfiprintf_r+0xa40>
  405b0c:	9807      	ldr	r0, [sp, #28]
  405b0e:	460a      	mov	r2, r1
  405b10:	4601      	mov	r1, r0
  405b12:	3104      	adds	r1, #4
  405b14:	8806      	ldrh	r6, [r0, #0]
  405b16:	9107      	str	r1, [sp, #28]
  405b18:	2700      	movs	r7, #0
  405b1a:	e720      	b.n	40595e <_vfiprintf_r+0x266>
  405b1c:	9608      	str	r6, [sp, #32]
  405b1e:	f043 0310 	orr.w	r3, r3, #16
  405b22:	e7e7      	b.n	405af4 <_vfiprintf_r+0x3fc>
  405b24:	9608      	str	r6, [sp, #32]
  405b26:	f043 0310 	orr.w	r3, r3, #16
  405b2a:	e708      	b.n	40593e <_vfiprintf_r+0x246>
  405b2c:	f043 0380 	orr.w	r3, r3, #128	; 0x80
  405b30:	f898 2000 	ldrb.w	r2, [r8]
  405b34:	e652      	b.n	4057dc <_vfiprintf_r+0xe4>
  405b36:	f1a2 0130 	sub.w	r1, r2, #48	; 0x30
  405b3a:	2600      	movs	r6, #0
  405b3c:	f818 2b01 	ldrb.w	r2, [r8], #1
  405b40:	eb06 0686 	add.w	r6, r6, r6, lsl #2
  405b44:	eb01 0646 	add.w	r6, r1, r6, lsl #1
  405b48:	f1a2 0130 	sub.w	r1, r2, #48	; 0x30
  405b4c:	2909      	cmp	r1, #9
  405b4e:	d9f5      	bls.n	405b3c <_vfiprintf_r+0x444>
  405b50:	e646      	b.n	4057e0 <_vfiprintf_r+0xe8>
  405b52:	9608      	str	r6, [sp, #32]
  405b54:	2800      	cmp	r0, #0
  405b56:	f040 8408 	bne.w	40636a <_vfiprintf_r+0xc72>
  405b5a:	f043 0310 	orr.w	r3, r3, #16
  405b5e:	069e      	lsls	r6, r3, #26
  405b60:	f100 834c 	bmi.w	4061fc <_vfiprintf_r+0xb04>
  405b64:	06dd      	lsls	r5, r3, #27
  405b66:	f100 82f3 	bmi.w	406150 <_vfiprintf_r+0xa58>
  405b6a:	0658      	lsls	r0, r3, #25
  405b6c:	f140 82f0 	bpl.w	406150 <_vfiprintf_r+0xa58>
  405b70:	9d07      	ldr	r5, [sp, #28]
  405b72:	f9b5 6000 	ldrsh.w	r6, [r5]
  405b76:	462a      	mov	r2, r5
  405b78:	17f7      	asrs	r7, r6, #31
  405b7a:	3204      	adds	r2, #4
  405b7c:	4630      	mov	r0, r6
  405b7e:	4639      	mov	r1, r7
  405b80:	9207      	str	r2, [sp, #28]
  405b82:	2800      	cmp	r0, #0
  405b84:	f171 0200 	sbcs.w	r2, r1, #0
  405b88:	f2c0 835d 	blt.w	406246 <_vfiprintf_r+0xb4e>
  405b8c:	1c61      	adds	r1, r4, #1
  405b8e:	f89d 5037 	ldrb.w	r5, [sp, #55]	; 0x37
  405b92:	f04f 0201 	mov.w	r2, #1
  405b96:	f47f aeea 	bne.w	40596e <_vfiprintf_r+0x276>
  405b9a:	ea56 0107 	orrs.w	r1, r6, r7
  405b9e:	f000 824d 	beq.w	40603c <_vfiprintf_r+0x944>
  405ba2:	9302      	str	r3, [sp, #8]
  405ba4:	2a01      	cmp	r2, #1
  405ba6:	f000 828c 	beq.w	4060c2 <_vfiprintf_r+0x9ca>
  405baa:	2a02      	cmp	r2, #2
  405bac:	f040 825c 	bne.w	406068 <_vfiprintf_r+0x970>
  405bb0:	980b      	ldr	r0, [sp, #44]	; 0x2c
  405bb2:	46cb      	mov	fp, r9
  405bb4:	0933      	lsrs	r3, r6, #4
  405bb6:	f006 010f 	and.w	r1, r6, #15
  405bba:	ea43 7307 	orr.w	r3, r3, r7, lsl #28
  405bbe:	093a      	lsrs	r2, r7, #4
  405bc0:	461e      	mov	r6, r3
  405bc2:	4617      	mov	r7, r2
  405bc4:	5c43      	ldrb	r3, [r0, r1]
  405bc6:	f80b 3d01 	strb.w	r3, [fp, #-1]!
  405bca:	ea56 0307 	orrs.w	r3, r6, r7
  405bce:	d1f1      	bne.n	405bb4 <_vfiprintf_r+0x4bc>
  405bd0:	eba9 030b 	sub.w	r3, r9, fp
  405bd4:	9305      	str	r3, [sp, #20]
  405bd6:	e6e1      	b.n	40599c <_vfiprintf_r+0x2a4>
  405bd8:	2800      	cmp	r0, #0
  405bda:	f040 83c0 	bne.w	40635e <_vfiprintf_r+0xc66>
  405bde:	0699      	lsls	r1, r3, #26
  405be0:	f100 8367 	bmi.w	4062b2 <_vfiprintf_r+0xbba>
  405be4:	06da      	lsls	r2, r3, #27
  405be6:	f100 80f1 	bmi.w	405dcc <_vfiprintf_r+0x6d4>
  405bea:	065b      	lsls	r3, r3, #25
  405bec:	f140 80ee 	bpl.w	405dcc <_vfiprintf_r+0x6d4>
  405bf0:	9a07      	ldr	r2, [sp, #28]
  405bf2:	6813      	ldr	r3, [r2, #0]
  405bf4:	3204      	adds	r2, #4
  405bf6:	9207      	str	r2, [sp, #28]
  405bf8:	f8bd 200c 	ldrh.w	r2, [sp, #12]
  405bfc:	801a      	strh	r2, [r3, #0]
  405bfe:	e5b8      	b.n	405772 <_vfiprintf_r+0x7a>
  405c00:	9807      	ldr	r0, [sp, #28]
  405c02:	4a3d      	ldr	r2, [pc, #244]	; (405cf8 <_vfiprintf_r+0x600>)
  405c04:	9608      	str	r6, [sp, #32]
  405c06:	920b      	str	r2, [sp, #44]	; 0x2c
  405c08:	6806      	ldr	r6, [r0, #0]
  405c0a:	2278      	movs	r2, #120	; 0x78
  405c0c:	2130      	movs	r1, #48	; 0x30
  405c0e:	3004      	adds	r0, #4
  405c10:	f88d 2039 	strb.w	r2, [sp, #57]	; 0x39
  405c14:	f043 0302 	orr.w	r3, r3, #2
  405c18:	9007      	str	r0, [sp, #28]
  405c1a:	2700      	movs	r7, #0
  405c1c:	f88d 1038 	strb.w	r1, [sp, #56]	; 0x38
  405c20:	2202      	movs	r2, #2
  405c22:	e69c      	b.n	40595e <_vfiprintf_r+0x266>
  405c24:	9608      	str	r6, [sp, #32]
  405c26:	2800      	cmp	r0, #0
  405c28:	d099      	beq.n	405b5e <_vfiprintf_r+0x466>
  405c2a:	f88d 5037 	strb.w	r5, [sp, #55]	; 0x37
  405c2e:	e796      	b.n	405b5e <_vfiprintf_r+0x466>
  405c30:	f898 2000 	ldrb.w	r2, [r8]
  405c34:	2d00      	cmp	r5, #0
  405c36:	f47f add1 	bne.w	4057dc <_vfiprintf_r+0xe4>
  405c3a:	2001      	movs	r0, #1
  405c3c:	2520      	movs	r5, #32
  405c3e:	e5cd      	b.n	4057dc <_vfiprintf_r+0xe4>
  405c40:	f043 0301 	orr.w	r3, r3, #1
  405c44:	f898 2000 	ldrb.w	r2, [r8]
  405c48:	e5c8      	b.n	4057dc <_vfiprintf_r+0xe4>
  405c4a:	9608      	str	r6, [sp, #32]
  405c4c:	2800      	cmp	r0, #0
  405c4e:	f040 8393 	bne.w	406378 <_vfiprintf_r+0xc80>
  405c52:	4929      	ldr	r1, [pc, #164]	; (405cf8 <_vfiprintf_r+0x600>)
  405c54:	910b      	str	r1, [sp, #44]	; 0x2c
  405c56:	069f      	lsls	r7, r3, #26
  405c58:	f100 82e8 	bmi.w	40622c <_vfiprintf_r+0xb34>
  405c5c:	9807      	ldr	r0, [sp, #28]
  405c5e:	06de      	lsls	r6, r3, #27
  405c60:	4601      	mov	r1, r0
  405c62:	f100 8270 	bmi.w	406146 <_vfiprintf_r+0xa4e>
  405c66:	065d      	lsls	r5, r3, #25
  405c68:	f140 826d 	bpl.w	406146 <_vfiprintf_r+0xa4e>
  405c6c:	3104      	adds	r1, #4
  405c6e:	8806      	ldrh	r6, [r0, #0]
  405c70:	9107      	str	r1, [sp, #28]
  405c72:	2700      	movs	r7, #0
  405c74:	07d8      	lsls	r0, r3, #31
  405c76:	f140 8222 	bpl.w	4060be <_vfiprintf_r+0x9c6>
  405c7a:	ea56 0107 	orrs.w	r1, r6, r7
  405c7e:	f000 821e 	beq.w	4060be <_vfiprintf_r+0x9c6>
  405c82:	2130      	movs	r1, #48	; 0x30
  405c84:	f88d 2039 	strb.w	r2, [sp, #57]	; 0x39
  405c88:	f043 0302 	orr.w	r3, r3, #2
  405c8c:	f88d 1038 	strb.w	r1, [sp, #56]	; 0x38
  405c90:	2202      	movs	r2, #2
  405c92:	e664      	b.n	40595e <_vfiprintf_r+0x266>
  405c94:	9608      	str	r6, [sp, #32]
  405c96:	2800      	cmp	r0, #0
  405c98:	f040 836b 	bne.w	406372 <_vfiprintf_r+0xc7a>
  405c9c:	4917      	ldr	r1, [pc, #92]	; (405cfc <_vfiprintf_r+0x604>)
  405c9e:	910b      	str	r1, [sp, #44]	; 0x2c
  405ca0:	e7d9      	b.n	405c56 <_vfiprintf_r+0x55e>
  405ca2:	9907      	ldr	r1, [sp, #28]
  405ca4:	9608      	str	r6, [sp, #32]
  405ca6:	680a      	ldr	r2, [r1, #0]
  405ca8:	f88d 2048 	strb.w	r2, [sp, #72]	; 0x48
  405cac:	f04f 0000 	mov.w	r0, #0
  405cb0:	460a      	mov	r2, r1
  405cb2:	f88d 0037 	strb.w	r0, [sp, #55]	; 0x37
  405cb6:	3204      	adds	r2, #4
  405cb8:	2001      	movs	r0, #1
  405cba:	9001      	str	r0, [sp, #4]
  405cbc:	9207      	str	r2, [sp, #28]
  405cbe:	9005      	str	r0, [sp, #20]
  405cc0:	f10d 0b48 	add.w	fp, sp, #72	; 0x48
  405cc4:	9302      	str	r3, [sp, #8]
  405cc6:	2400      	movs	r4, #0
  405cc8:	e670      	b.n	4059ac <_vfiprintf_r+0x2b4>
  405cca:	f043 0340 	orr.w	r3, r3, #64	; 0x40
  405cce:	f898 2000 	ldrb.w	r2, [r8]
  405cd2:	e583      	b.n	4057dc <_vfiprintf_r+0xe4>
  405cd4:	f898 2000 	ldrb.w	r2, [r8]
  405cd8:	2a6c      	cmp	r2, #108	; 0x6c
  405cda:	bf03      	ittte	eq
  405cdc:	f898 2001 	ldrbeq.w	r2, [r8, #1]
  405ce0:	f043 0320 	orreq.w	r3, r3, #32
  405ce4:	f108 0801 	addeq.w	r8, r8, #1
  405ce8:	f043 0310 	orrne.w	r3, r3, #16
  405cec:	e576      	b.n	4057dc <_vfiprintf_r+0xe4>
  405cee:	bf00      	nop
  405cf0:	00409f9c 	.word	0x00409f9c
  405cf4:	00409fac 	.word	0x00409fac
  405cf8:	00409f5c 	.word	0x00409f5c
  405cfc:	00409f48 	.word	0x00409f48
  405d00:	9907      	ldr	r1, [sp, #28]
  405d02:	680e      	ldr	r6, [r1, #0]
  405d04:	460a      	mov	r2, r1
  405d06:	2e00      	cmp	r6, #0
  405d08:	f102 0204 	add.w	r2, r2, #4
  405d0c:	f6ff ae0f 	blt.w	40592e <_vfiprintf_r+0x236>
  405d10:	9207      	str	r2, [sp, #28]
  405d12:	f898 2000 	ldrb.w	r2, [r8]
  405d16:	e561      	b.n	4057dc <_vfiprintf_r+0xe4>
  405d18:	f898 2000 	ldrb.w	r2, [r8]
  405d1c:	2001      	movs	r0, #1
  405d1e:	252b      	movs	r5, #43	; 0x2b
  405d20:	e55c      	b.n	4057dc <_vfiprintf_r+0xe4>
  405d22:	9907      	ldr	r1, [sp, #28]
  405d24:	9608      	str	r6, [sp, #32]
  405d26:	f8d1 b000 	ldr.w	fp, [r1]
  405d2a:	f04f 0200 	mov.w	r2, #0
  405d2e:	f88d 2037 	strb.w	r2, [sp, #55]	; 0x37
  405d32:	1d0e      	adds	r6, r1, #4
  405d34:	f1bb 0f00 	cmp.w	fp, #0
  405d38:	f000 82e5 	beq.w	406306 <_vfiprintf_r+0xc0e>
  405d3c:	1c67      	adds	r7, r4, #1
  405d3e:	f000 82c4 	beq.w	4062ca <_vfiprintf_r+0xbd2>
  405d42:	4622      	mov	r2, r4
  405d44:	2100      	movs	r1, #0
  405d46:	4658      	mov	r0, fp
  405d48:	9301      	str	r3, [sp, #4]
  405d4a:	f002 f8f1 	bl	407f30 <memchr>
  405d4e:	9b01      	ldr	r3, [sp, #4]
  405d50:	2800      	cmp	r0, #0
  405d52:	f000 82e5 	beq.w	406320 <_vfiprintf_r+0xc28>
  405d56:	eba0 020b 	sub.w	r2, r0, fp
  405d5a:	9205      	str	r2, [sp, #20]
  405d5c:	9607      	str	r6, [sp, #28]
  405d5e:	9302      	str	r3, [sp, #8]
  405d60:	f89d 5037 	ldrb.w	r5, [sp, #55]	; 0x37
  405d64:	2400      	movs	r4, #0
  405d66:	e619      	b.n	40599c <_vfiprintf_r+0x2a4>
  405d68:	f898 2000 	ldrb.w	r2, [r8]
  405d6c:	2a2a      	cmp	r2, #42	; 0x2a
  405d6e:	f108 0701 	add.w	r7, r8, #1
  405d72:	f000 82e9 	beq.w	406348 <_vfiprintf_r+0xc50>
  405d76:	f1a2 0130 	sub.w	r1, r2, #48	; 0x30
  405d7a:	2909      	cmp	r1, #9
  405d7c:	46b8      	mov	r8, r7
  405d7e:	f04f 0400 	mov.w	r4, #0
  405d82:	f63f ad2d 	bhi.w	4057e0 <_vfiprintf_r+0xe8>
  405d86:	f818 2b01 	ldrb.w	r2, [r8], #1
  405d8a:	eb04 0484 	add.w	r4, r4, r4, lsl #2
  405d8e:	eb01 0444 	add.w	r4, r1, r4, lsl #1
  405d92:	f1a2 0130 	sub.w	r1, r2, #48	; 0x30
  405d96:	2909      	cmp	r1, #9
  405d98:	d9f5      	bls.n	405d86 <_vfiprintf_r+0x68e>
  405d9a:	e521      	b.n	4057e0 <_vfiprintf_r+0xe8>
  405d9c:	f043 0320 	orr.w	r3, r3, #32
  405da0:	f898 2000 	ldrb.w	r2, [r8]
  405da4:	e51a      	b.n	4057dc <_vfiprintf_r+0xe4>
  405da6:	9608      	str	r6, [sp, #32]
  405da8:	2800      	cmp	r0, #0
  405daa:	f040 82db 	bne.w	406364 <_vfiprintf_r+0xc6c>
  405dae:	2a00      	cmp	r2, #0
  405db0:	f000 80e7 	beq.w	405f82 <_vfiprintf_r+0x88a>
  405db4:	2101      	movs	r1, #1
  405db6:	f88d 2048 	strb.w	r2, [sp, #72]	; 0x48
  405dba:	f04f 0200 	mov.w	r2, #0
  405dbe:	9101      	str	r1, [sp, #4]
  405dc0:	f88d 2037 	strb.w	r2, [sp, #55]	; 0x37
  405dc4:	9105      	str	r1, [sp, #20]
  405dc6:	f10d 0b48 	add.w	fp, sp, #72	; 0x48
  405dca:	e77b      	b.n	405cc4 <_vfiprintf_r+0x5cc>
  405dcc:	9a07      	ldr	r2, [sp, #28]
  405dce:	6813      	ldr	r3, [r2, #0]
  405dd0:	3204      	adds	r2, #4
  405dd2:	9207      	str	r2, [sp, #28]
  405dd4:	9a03      	ldr	r2, [sp, #12]
  405dd6:	601a      	str	r2, [r3, #0]
  405dd8:	e4cb      	b.n	405772 <_vfiprintf_r+0x7a>
  405dda:	aa0f      	add	r2, sp, #60	; 0x3c
  405ddc:	9904      	ldr	r1, [sp, #16]
  405dde:	4620      	mov	r0, r4
  405de0:	f7ff fc4a 	bl	405678 <__sprint_r.part.0>
  405de4:	2800      	cmp	r0, #0
  405de6:	f040 8139 	bne.w	40605c <_vfiprintf_r+0x964>
  405dea:	9910      	ldr	r1, [sp, #64]	; 0x40
  405dec:	9a11      	ldr	r2, [sp, #68]	; 0x44
  405dee:	f101 0c01 	add.w	ip, r1, #1
  405df2:	46ce      	mov	lr, r9
  405df4:	e5ff      	b.n	4059f6 <_vfiprintf_r+0x2fe>
  405df6:	9910      	ldr	r1, [sp, #64]	; 0x40
  405df8:	9a11      	ldr	r2, [sp, #68]	; 0x44
  405dfa:	1c48      	adds	r0, r1, #1
  405dfc:	f89d 5037 	ldrb.w	r5, [sp, #55]	; 0x37
  405e00:	2d00      	cmp	r5, #0
  405e02:	f43f ae22 	beq.w	405a4a <_vfiprintf_r+0x352>
  405e06:	3201      	adds	r2, #1
  405e08:	f10d 0537 	add.w	r5, sp, #55	; 0x37
  405e0c:	2101      	movs	r1, #1
  405e0e:	2807      	cmp	r0, #7
  405e10:	9211      	str	r2, [sp, #68]	; 0x44
  405e12:	9010      	str	r0, [sp, #64]	; 0x40
  405e14:	f8ca 5000 	str.w	r5, [sl]
  405e18:	f8ca 1004 	str.w	r1, [sl, #4]
  405e1c:	f340 8108 	ble.w	406030 <_vfiprintf_r+0x938>
  405e20:	2a00      	cmp	r2, #0
  405e22:	f040 81bc 	bne.w	40619e <_vfiprintf_r+0xaa6>
  405e26:	9b09      	ldr	r3, [sp, #36]	; 0x24
  405e28:	2b00      	cmp	r3, #0
  405e2a:	f43f ae1f 	beq.w	405a6c <_vfiprintf_r+0x374>
  405e2e:	ab0e      	add	r3, sp, #56	; 0x38
  405e30:	2202      	movs	r2, #2
  405e32:	4608      	mov	r0, r1
  405e34:	931c      	str	r3, [sp, #112]	; 0x70
  405e36:	921d      	str	r2, [sp, #116]	; 0x74
  405e38:	46ca      	mov	sl, r9
  405e3a:	4601      	mov	r1, r0
  405e3c:	f10a 0a08 	add.w	sl, sl, #8
  405e40:	3001      	adds	r0, #1
  405e42:	9b0a      	ldr	r3, [sp, #40]	; 0x28
  405e44:	2b80      	cmp	r3, #128	; 0x80
  405e46:	f43f ae19 	beq.w	405a7c <_vfiprintf_r+0x384>
  405e4a:	9b05      	ldr	r3, [sp, #20]
  405e4c:	1ae4      	subs	r4, r4, r3
  405e4e:	2c00      	cmp	r4, #0
  405e50:	dd2e      	ble.n	405eb0 <_vfiprintf_r+0x7b8>
  405e52:	2c10      	cmp	r4, #16
  405e54:	4db3      	ldr	r5, [pc, #716]	; (406124 <_vfiprintf_r+0xa2c>)
  405e56:	dd1e      	ble.n	405e96 <_vfiprintf_r+0x79e>
  405e58:	46d6      	mov	lr, sl
  405e5a:	2610      	movs	r6, #16
  405e5c:	9f06      	ldr	r7, [sp, #24]
  405e5e:	f8dd a010 	ldr.w	sl, [sp, #16]
  405e62:	e006      	b.n	405e72 <_vfiprintf_r+0x77a>
  405e64:	1c88      	adds	r0, r1, #2
  405e66:	f10e 0e08 	add.w	lr, lr, #8
  405e6a:	4619      	mov	r1, r3
  405e6c:	3c10      	subs	r4, #16
  405e6e:	2c10      	cmp	r4, #16
  405e70:	dd10      	ble.n	405e94 <_vfiprintf_r+0x79c>
  405e72:	1c4b      	adds	r3, r1, #1
  405e74:	3210      	adds	r2, #16
  405e76:	2b07      	cmp	r3, #7
  405e78:	9211      	str	r2, [sp, #68]	; 0x44
  405e7a:	e88e 0060 	stmia.w	lr, {r5, r6}
  405e7e:	9310      	str	r3, [sp, #64]	; 0x40
  405e80:	ddf0      	ble.n	405e64 <_vfiprintf_r+0x76c>
  405e82:	2a00      	cmp	r2, #0
  405e84:	d165      	bne.n	405f52 <_vfiprintf_r+0x85a>
  405e86:	3c10      	subs	r4, #16
  405e88:	2c10      	cmp	r4, #16
  405e8a:	f04f 0001 	mov.w	r0, #1
  405e8e:	4611      	mov	r1, r2
  405e90:	46ce      	mov	lr, r9
  405e92:	dcee      	bgt.n	405e72 <_vfiprintf_r+0x77a>
  405e94:	46f2      	mov	sl, lr
  405e96:	4422      	add	r2, r4
  405e98:	2807      	cmp	r0, #7
  405e9a:	9211      	str	r2, [sp, #68]	; 0x44
  405e9c:	f8ca 5000 	str.w	r5, [sl]
  405ea0:	f8ca 4004 	str.w	r4, [sl, #4]
  405ea4:	9010      	str	r0, [sp, #64]	; 0x40
  405ea6:	f300 8085 	bgt.w	405fb4 <_vfiprintf_r+0x8bc>
  405eaa:	f10a 0a08 	add.w	sl, sl, #8
  405eae:	3001      	adds	r0, #1
  405eb0:	9905      	ldr	r1, [sp, #20]
  405eb2:	f8ca b000 	str.w	fp, [sl]
  405eb6:	440a      	add	r2, r1
  405eb8:	2807      	cmp	r0, #7
  405eba:	9211      	str	r2, [sp, #68]	; 0x44
  405ebc:	f8ca 1004 	str.w	r1, [sl, #4]
  405ec0:	9010      	str	r0, [sp, #64]	; 0x40
  405ec2:	f340 8082 	ble.w	405fca <_vfiprintf_r+0x8d2>
  405ec6:	2a00      	cmp	r2, #0
  405ec8:	f040 8118 	bne.w	4060fc <_vfiprintf_r+0xa04>
  405ecc:	9b02      	ldr	r3, [sp, #8]
  405ece:	9210      	str	r2, [sp, #64]	; 0x40
  405ed0:	0758      	lsls	r0, r3, #29
  405ed2:	d535      	bpl.n	405f40 <_vfiprintf_r+0x848>
  405ed4:	9b08      	ldr	r3, [sp, #32]
  405ed6:	9901      	ldr	r1, [sp, #4]
  405ed8:	1a5c      	subs	r4, r3, r1
  405eda:	2c00      	cmp	r4, #0
  405edc:	f340 80e7 	ble.w	4060ae <_vfiprintf_r+0x9b6>
  405ee0:	46ca      	mov	sl, r9
  405ee2:	2c10      	cmp	r4, #16
  405ee4:	f340 8218 	ble.w	406318 <_vfiprintf_r+0xc20>
  405ee8:	9910      	ldr	r1, [sp, #64]	; 0x40
  405eea:	4e8f      	ldr	r6, [pc, #572]	; (406128 <_vfiprintf_r+0xa30>)
  405eec:	9f06      	ldr	r7, [sp, #24]
  405eee:	f8dd b010 	ldr.w	fp, [sp, #16]
  405ef2:	2510      	movs	r5, #16
  405ef4:	e006      	b.n	405f04 <_vfiprintf_r+0x80c>
  405ef6:	1c88      	adds	r0, r1, #2
  405ef8:	f10a 0a08 	add.w	sl, sl, #8
  405efc:	4619      	mov	r1, r3
  405efe:	3c10      	subs	r4, #16
  405f00:	2c10      	cmp	r4, #16
  405f02:	dd11      	ble.n	405f28 <_vfiprintf_r+0x830>
  405f04:	1c4b      	adds	r3, r1, #1
  405f06:	3210      	adds	r2, #16
  405f08:	2b07      	cmp	r3, #7
  405f0a:	9211      	str	r2, [sp, #68]	; 0x44
  405f0c:	f8ca 6000 	str.w	r6, [sl]
  405f10:	f8ca 5004 	str.w	r5, [sl, #4]
  405f14:	9310      	str	r3, [sp, #64]	; 0x40
  405f16:	ddee      	ble.n	405ef6 <_vfiprintf_r+0x7fe>
  405f18:	bb42      	cbnz	r2, 405f6c <_vfiprintf_r+0x874>
  405f1a:	3c10      	subs	r4, #16
  405f1c:	2c10      	cmp	r4, #16
  405f1e:	f04f 0001 	mov.w	r0, #1
  405f22:	4611      	mov	r1, r2
  405f24:	46ca      	mov	sl, r9
  405f26:	dced      	bgt.n	405f04 <_vfiprintf_r+0x80c>
  405f28:	4422      	add	r2, r4
  405f2a:	2807      	cmp	r0, #7
  405f2c:	9211      	str	r2, [sp, #68]	; 0x44
  405f2e:	f8ca 6000 	str.w	r6, [sl]
  405f32:	f8ca 4004 	str.w	r4, [sl, #4]
  405f36:	9010      	str	r0, [sp, #64]	; 0x40
  405f38:	dd51      	ble.n	405fde <_vfiprintf_r+0x8e6>
  405f3a:	2a00      	cmp	r2, #0
  405f3c:	f040 819b 	bne.w	406276 <_vfiprintf_r+0xb7e>
  405f40:	9b03      	ldr	r3, [sp, #12]
  405f42:	9a08      	ldr	r2, [sp, #32]
  405f44:	9901      	ldr	r1, [sp, #4]
  405f46:	428a      	cmp	r2, r1
  405f48:	bfac      	ite	ge
  405f4a:	189b      	addge	r3, r3, r2
  405f4c:	185b      	addlt	r3, r3, r1
  405f4e:	9303      	str	r3, [sp, #12]
  405f50:	e04e      	b.n	405ff0 <_vfiprintf_r+0x8f8>
  405f52:	aa0f      	add	r2, sp, #60	; 0x3c
  405f54:	4651      	mov	r1, sl
  405f56:	4638      	mov	r0, r7
  405f58:	f7ff fb8e 	bl	405678 <__sprint_r.part.0>
  405f5c:	2800      	cmp	r0, #0
  405f5e:	f040 813f 	bne.w	4061e0 <_vfiprintf_r+0xae8>
  405f62:	9910      	ldr	r1, [sp, #64]	; 0x40
  405f64:	9a11      	ldr	r2, [sp, #68]	; 0x44
  405f66:	1c48      	adds	r0, r1, #1
  405f68:	46ce      	mov	lr, r9
  405f6a:	e77f      	b.n	405e6c <_vfiprintf_r+0x774>
  405f6c:	aa0f      	add	r2, sp, #60	; 0x3c
  405f6e:	4659      	mov	r1, fp
  405f70:	4638      	mov	r0, r7
  405f72:	f7ff fb81 	bl	405678 <__sprint_r.part.0>
  405f76:	b960      	cbnz	r0, 405f92 <_vfiprintf_r+0x89a>
  405f78:	9910      	ldr	r1, [sp, #64]	; 0x40
  405f7a:	9a11      	ldr	r2, [sp, #68]	; 0x44
  405f7c:	1c48      	adds	r0, r1, #1
  405f7e:	46ca      	mov	sl, r9
  405f80:	e7bd      	b.n	405efe <_vfiprintf_r+0x806>
  405f82:	9b11      	ldr	r3, [sp, #68]	; 0x44
  405f84:	f8dd b010 	ldr.w	fp, [sp, #16]
  405f88:	2b00      	cmp	r3, #0
  405f8a:	f040 81d4 	bne.w	406336 <_vfiprintf_r+0xc3e>
  405f8e:	2300      	movs	r3, #0
  405f90:	9310      	str	r3, [sp, #64]	; 0x40
  405f92:	f8db 3064 	ldr.w	r3, [fp, #100]	; 0x64
  405f96:	f013 0f01 	tst.w	r3, #1
  405f9a:	f8bb 300c 	ldrh.w	r3, [fp, #12]
  405f9e:	d102      	bne.n	405fa6 <_vfiprintf_r+0x8ae>
  405fa0:	059a      	lsls	r2, r3, #22
  405fa2:	f140 80de 	bpl.w	406162 <_vfiprintf_r+0xa6a>
  405fa6:	065b      	lsls	r3, r3, #25
  405fa8:	f53f acb2 	bmi.w	405910 <_vfiprintf_r+0x218>
  405fac:	9803      	ldr	r0, [sp, #12]
  405fae:	b02d      	add	sp, #180	; 0xb4
  405fb0:	e8bd 8ff0 	ldmia.w	sp!, {r4, r5, r6, r7, r8, r9, sl, fp, pc}
  405fb4:	2a00      	cmp	r2, #0
  405fb6:	f040 8106 	bne.w	4061c6 <_vfiprintf_r+0xace>
  405fba:	9a05      	ldr	r2, [sp, #20]
  405fbc:	921d      	str	r2, [sp, #116]	; 0x74
  405fbe:	2301      	movs	r3, #1
  405fc0:	9211      	str	r2, [sp, #68]	; 0x44
  405fc2:	f8cd b070 	str.w	fp, [sp, #112]	; 0x70
  405fc6:	9310      	str	r3, [sp, #64]	; 0x40
  405fc8:	46ca      	mov	sl, r9
  405fca:	f10a 0a08 	add.w	sl, sl, #8
  405fce:	9b02      	ldr	r3, [sp, #8]
  405fd0:	0759      	lsls	r1, r3, #29
  405fd2:	d504      	bpl.n	405fde <_vfiprintf_r+0x8e6>
  405fd4:	9b08      	ldr	r3, [sp, #32]
  405fd6:	9901      	ldr	r1, [sp, #4]
  405fd8:	1a5c      	subs	r4, r3, r1
  405fda:	2c00      	cmp	r4, #0
  405fdc:	dc81      	bgt.n	405ee2 <_vfiprintf_r+0x7ea>
  405fde:	9b03      	ldr	r3, [sp, #12]
  405fe0:	9908      	ldr	r1, [sp, #32]
  405fe2:	9801      	ldr	r0, [sp, #4]
  405fe4:	4281      	cmp	r1, r0
  405fe6:	bfac      	ite	ge
  405fe8:	185b      	addge	r3, r3, r1
  405fea:	181b      	addlt	r3, r3, r0
  405fec:	9303      	str	r3, [sp, #12]
  405fee:	bb72      	cbnz	r2, 40604e <_vfiprintf_r+0x956>
  405ff0:	2300      	movs	r3, #0
  405ff2:	9310      	str	r3, [sp, #64]	; 0x40
  405ff4:	46ca      	mov	sl, r9
  405ff6:	f7ff bbbc 	b.w	405772 <_vfiprintf_r+0x7a>
  405ffa:	aa0f      	add	r2, sp, #60	; 0x3c
  405ffc:	9904      	ldr	r1, [sp, #16]
  405ffe:	4620      	mov	r0, r4
  406000:	f7ff fb3a 	bl	405678 <__sprint_r.part.0>
  406004:	bb50      	cbnz	r0, 40605c <_vfiprintf_r+0x964>
  406006:	9910      	ldr	r1, [sp, #64]	; 0x40
  406008:	9a11      	ldr	r2, [sp, #68]	; 0x44
  40600a:	f101 0e01 	add.w	lr, r1, #1
  40600e:	46cc      	mov	ip, r9
  406010:	e548      	b.n	405aa4 <_vfiprintf_r+0x3ac>
  406012:	2a00      	cmp	r2, #0
  406014:	f040 8140 	bne.w	406298 <_vfiprintf_r+0xba0>
  406018:	f89d 1037 	ldrb.w	r1, [sp, #55]	; 0x37
  40601c:	2900      	cmp	r1, #0
  40601e:	f000 811b 	beq.w	406258 <_vfiprintf_r+0xb60>
  406022:	2201      	movs	r2, #1
  406024:	f10d 0137 	add.w	r1, sp, #55	; 0x37
  406028:	4610      	mov	r0, r2
  40602a:	921d      	str	r2, [sp, #116]	; 0x74
  40602c:	911c      	str	r1, [sp, #112]	; 0x70
  40602e:	46ca      	mov	sl, r9
  406030:	4601      	mov	r1, r0
  406032:	f10a 0a08 	add.w	sl, sl, #8
  406036:	3001      	adds	r0, #1
  406038:	e507      	b.n	405a4a <_vfiprintf_r+0x352>
  40603a:	9b02      	ldr	r3, [sp, #8]
  40603c:	2a01      	cmp	r2, #1
  40603e:	f000 8098 	beq.w	406172 <_vfiprintf_r+0xa7a>
  406042:	2a02      	cmp	r2, #2
  406044:	d10d      	bne.n	406062 <_vfiprintf_r+0x96a>
  406046:	9302      	str	r3, [sp, #8]
  406048:	2600      	movs	r6, #0
  40604a:	2700      	movs	r7, #0
  40604c:	e5b0      	b.n	405bb0 <_vfiprintf_r+0x4b8>
  40604e:	aa0f      	add	r2, sp, #60	; 0x3c
  406050:	9904      	ldr	r1, [sp, #16]
  406052:	9806      	ldr	r0, [sp, #24]
  406054:	f7ff fb10 	bl	405678 <__sprint_r.part.0>
  406058:	2800      	cmp	r0, #0
  40605a:	d0c9      	beq.n	405ff0 <_vfiprintf_r+0x8f8>
  40605c:	f8dd b010 	ldr.w	fp, [sp, #16]
  406060:	e797      	b.n	405f92 <_vfiprintf_r+0x89a>
  406062:	9302      	str	r3, [sp, #8]
  406064:	2600      	movs	r6, #0
  406066:	2700      	movs	r7, #0
  406068:	4649      	mov	r1, r9
  40606a:	e000      	b.n	40606e <_vfiprintf_r+0x976>
  40606c:	4659      	mov	r1, fp
  40606e:	08f2      	lsrs	r2, r6, #3
  406070:	ea42 7247 	orr.w	r2, r2, r7, lsl #29
  406074:	08f8      	lsrs	r0, r7, #3
  406076:	f006 0307 	and.w	r3, r6, #7
  40607a:	4607      	mov	r7, r0
  40607c:	4616      	mov	r6, r2
  40607e:	3330      	adds	r3, #48	; 0x30
  406080:	ea56 0207 	orrs.w	r2, r6, r7
  406084:	f801 3c01 	strb.w	r3, [r1, #-1]
  406088:	f101 3bff 	add.w	fp, r1, #4294967295
  40608c:	d1ee      	bne.n	40606c <_vfiprintf_r+0x974>
  40608e:	9a02      	ldr	r2, [sp, #8]
  406090:	07d6      	lsls	r6, r2, #31
  406092:	f57f ad9d 	bpl.w	405bd0 <_vfiprintf_r+0x4d8>
  406096:	2b30      	cmp	r3, #48	; 0x30
  406098:	f43f ad9a 	beq.w	405bd0 <_vfiprintf_r+0x4d8>
  40609c:	3902      	subs	r1, #2
  40609e:	2330      	movs	r3, #48	; 0x30
  4060a0:	f80b 3c01 	strb.w	r3, [fp, #-1]
  4060a4:	eba9 0301 	sub.w	r3, r9, r1
  4060a8:	9305      	str	r3, [sp, #20]
  4060aa:	468b      	mov	fp, r1
  4060ac:	e476      	b.n	40599c <_vfiprintf_r+0x2a4>
  4060ae:	9b03      	ldr	r3, [sp, #12]
  4060b0:	9a08      	ldr	r2, [sp, #32]
  4060b2:	428a      	cmp	r2, r1
  4060b4:	bfac      	ite	ge
  4060b6:	189b      	addge	r3, r3, r2
  4060b8:	185b      	addlt	r3, r3, r1
  4060ba:	9303      	str	r3, [sp, #12]
  4060bc:	e798      	b.n	405ff0 <_vfiprintf_r+0x8f8>
  4060be:	2202      	movs	r2, #2
  4060c0:	e44d      	b.n	40595e <_vfiprintf_r+0x266>
  4060c2:	2f00      	cmp	r7, #0
  4060c4:	bf08      	it	eq
  4060c6:	2e0a      	cmpeq	r6, #10
  4060c8:	d352      	bcc.n	406170 <_vfiprintf_r+0xa78>
  4060ca:	46cb      	mov	fp, r9
  4060cc:	4630      	mov	r0, r6
  4060ce:	4639      	mov	r1, r7
  4060d0:	220a      	movs	r2, #10
  4060d2:	2300      	movs	r3, #0
  4060d4:	f003 fbd0 	bl	409878 <__aeabi_uldivmod>
  4060d8:	3230      	adds	r2, #48	; 0x30
  4060da:	f80b 2d01 	strb.w	r2, [fp, #-1]!
  4060de:	4630      	mov	r0, r6
  4060e0:	4639      	mov	r1, r7
  4060e2:	2300      	movs	r3, #0
  4060e4:	220a      	movs	r2, #10
  4060e6:	f003 fbc7 	bl	409878 <__aeabi_uldivmod>
  4060ea:	4606      	mov	r6, r0
  4060ec:	460f      	mov	r7, r1
  4060ee:	ea56 0307 	orrs.w	r3, r6, r7
  4060f2:	d1eb      	bne.n	4060cc <_vfiprintf_r+0x9d4>
  4060f4:	e56c      	b.n	405bd0 <_vfiprintf_r+0x4d8>
  4060f6:	9405      	str	r4, [sp, #20]
  4060f8:	46cb      	mov	fp, r9
  4060fa:	e44f      	b.n	40599c <_vfiprintf_r+0x2a4>
  4060fc:	aa0f      	add	r2, sp, #60	; 0x3c
  4060fe:	9904      	ldr	r1, [sp, #16]
  406100:	9806      	ldr	r0, [sp, #24]
  406102:	f7ff fab9 	bl	405678 <__sprint_r.part.0>
  406106:	2800      	cmp	r0, #0
  406108:	d1a8      	bne.n	40605c <_vfiprintf_r+0x964>
  40610a:	9a11      	ldr	r2, [sp, #68]	; 0x44
  40610c:	46ca      	mov	sl, r9
  40610e:	e75e      	b.n	405fce <_vfiprintf_r+0x8d6>
  406110:	aa0f      	add	r2, sp, #60	; 0x3c
  406112:	9904      	ldr	r1, [sp, #16]
  406114:	9806      	ldr	r0, [sp, #24]
  406116:	f7ff faaf 	bl	405678 <__sprint_r.part.0>
  40611a:	2800      	cmp	r0, #0
  40611c:	d19e      	bne.n	40605c <_vfiprintf_r+0x964>
  40611e:	46ca      	mov	sl, r9
  406120:	f7ff bbc0 	b.w	4058a4 <_vfiprintf_r+0x1ac>
  406124:	00409fac 	.word	0x00409fac
  406128:	00409f9c 	.word	0x00409f9c
  40612c:	3104      	adds	r1, #4
  40612e:	6816      	ldr	r6, [r2, #0]
  406130:	9107      	str	r1, [sp, #28]
  406132:	2201      	movs	r2, #1
  406134:	2700      	movs	r7, #0
  406136:	e412      	b.n	40595e <_vfiprintf_r+0x266>
  406138:	9807      	ldr	r0, [sp, #28]
  40613a:	4601      	mov	r1, r0
  40613c:	3104      	adds	r1, #4
  40613e:	6806      	ldr	r6, [r0, #0]
  406140:	9107      	str	r1, [sp, #28]
  406142:	2700      	movs	r7, #0
  406144:	e40b      	b.n	40595e <_vfiprintf_r+0x266>
  406146:	680e      	ldr	r6, [r1, #0]
  406148:	3104      	adds	r1, #4
  40614a:	9107      	str	r1, [sp, #28]
  40614c:	2700      	movs	r7, #0
  40614e:	e591      	b.n	405c74 <_vfiprintf_r+0x57c>
  406150:	9907      	ldr	r1, [sp, #28]
  406152:	680e      	ldr	r6, [r1, #0]
  406154:	460a      	mov	r2, r1
  406156:	17f7      	asrs	r7, r6, #31
  406158:	3204      	adds	r2, #4
  40615a:	9207      	str	r2, [sp, #28]
  40615c:	4630      	mov	r0, r6
  40615e:	4639      	mov	r1, r7
  406160:	e50f      	b.n	405b82 <_vfiprintf_r+0x48a>
  406162:	f8db 0058 	ldr.w	r0, [fp, #88]	; 0x58
  406166:	f001 fe4d 	bl	407e04 <__retarget_lock_release_recursive>
  40616a:	f8bb 300c 	ldrh.w	r3, [fp, #12]
  40616e:	e71a      	b.n	405fa6 <_vfiprintf_r+0x8ae>
  406170:	9b02      	ldr	r3, [sp, #8]
  406172:	9302      	str	r3, [sp, #8]
  406174:	f10d 0bb0 	add.w	fp, sp, #176	; 0xb0
  406178:	3630      	adds	r6, #48	; 0x30
  40617a:	2301      	movs	r3, #1
  40617c:	f80b 6d41 	strb.w	r6, [fp, #-65]!
  406180:	9305      	str	r3, [sp, #20]
  406182:	e40b      	b.n	40599c <_vfiprintf_r+0x2a4>
  406184:	aa0f      	add	r2, sp, #60	; 0x3c
  406186:	9904      	ldr	r1, [sp, #16]
  406188:	9806      	ldr	r0, [sp, #24]
  40618a:	f7ff fa75 	bl	405678 <__sprint_r.part.0>
  40618e:	2800      	cmp	r0, #0
  406190:	f47f af64 	bne.w	40605c <_vfiprintf_r+0x964>
  406194:	9910      	ldr	r1, [sp, #64]	; 0x40
  406196:	9a11      	ldr	r2, [sp, #68]	; 0x44
  406198:	1c48      	adds	r0, r1, #1
  40619a:	46ca      	mov	sl, r9
  40619c:	e651      	b.n	405e42 <_vfiprintf_r+0x74a>
  40619e:	aa0f      	add	r2, sp, #60	; 0x3c
  4061a0:	9904      	ldr	r1, [sp, #16]
  4061a2:	9806      	ldr	r0, [sp, #24]
  4061a4:	f7ff fa68 	bl	405678 <__sprint_r.part.0>
  4061a8:	2800      	cmp	r0, #0
  4061aa:	f47f af57 	bne.w	40605c <_vfiprintf_r+0x964>
  4061ae:	9910      	ldr	r1, [sp, #64]	; 0x40
  4061b0:	9a11      	ldr	r2, [sp, #68]	; 0x44
  4061b2:	1c48      	adds	r0, r1, #1
  4061b4:	46ca      	mov	sl, r9
  4061b6:	e448      	b.n	405a4a <_vfiprintf_r+0x352>
  4061b8:	2a00      	cmp	r2, #0
  4061ba:	f040 8091 	bne.w	4062e0 <_vfiprintf_r+0xbe8>
  4061be:	2001      	movs	r0, #1
  4061c0:	4611      	mov	r1, r2
  4061c2:	46ca      	mov	sl, r9
  4061c4:	e641      	b.n	405e4a <_vfiprintf_r+0x752>
  4061c6:	aa0f      	add	r2, sp, #60	; 0x3c
  4061c8:	9904      	ldr	r1, [sp, #16]
  4061ca:	9806      	ldr	r0, [sp, #24]
  4061cc:	f7ff fa54 	bl	405678 <__sprint_r.part.0>
  4061d0:	2800      	cmp	r0, #0
  4061d2:	f47f af43 	bne.w	40605c <_vfiprintf_r+0x964>
  4061d6:	9810      	ldr	r0, [sp, #64]	; 0x40
  4061d8:	9a11      	ldr	r2, [sp, #68]	; 0x44
  4061da:	3001      	adds	r0, #1
  4061dc:	46ca      	mov	sl, r9
  4061de:	e667      	b.n	405eb0 <_vfiprintf_r+0x7b8>
  4061e0:	46d3      	mov	fp, sl
  4061e2:	e6d6      	b.n	405f92 <_vfiprintf_r+0x89a>
  4061e4:	9e07      	ldr	r6, [sp, #28]
  4061e6:	3607      	adds	r6, #7
  4061e8:	f026 0207 	bic.w	r2, r6, #7
  4061ec:	f102 0108 	add.w	r1, r2, #8
  4061f0:	e9d2 6700 	ldrd	r6, r7, [r2]
  4061f4:	9107      	str	r1, [sp, #28]
  4061f6:	2201      	movs	r2, #1
  4061f8:	f7ff bbb1 	b.w	40595e <_vfiprintf_r+0x266>
  4061fc:	9e07      	ldr	r6, [sp, #28]
  4061fe:	3607      	adds	r6, #7
  406200:	f026 0607 	bic.w	r6, r6, #7
  406204:	e9d6 0100 	ldrd	r0, r1, [r6]
  406208:	f106 0208 	add.w	r2, r6, #8
  40620c:	9207      	str	r2, [sp, #28]
  40620e:	4606      	mov	r6, r0
  406210:	460f      	mov	r7, r1
  406212:	e4b6      	b.n	405b82 <_vfiprintf_r+0x48a>
  406214:	9e07      	ldr	r6, [sp, #28]
  406216:	3607      	adds	r6, #7
  406218:	f026 0207 	bic.w	r2, r6, #7
  40621c:	f102 0108 	add.w	r1, r2, #8
  406220:	e9d2 6700 	ldrd	r6, r7, [r2]
  406224:	9107      	str	r1, [sp, #28]
  406226:	2200      	movs	r2, #0
  406228:	f7ff bb99 	b.w	40595e <_vfiprintf_r+0x266>
  40622c:	9e07      	ldr	r6, [sp, #28]
  40622e:	3607      	adds	r6, #7
  406230:	f026 0107 	bic.w	r1, r6, #7
  406234:	f101 0008 	add.w	r0, r1, #8
  406238:	9007      	str	r0, [sp, #28]
  40623a:	e9d1 6700 	ldrd	r6, r7, [r1]
  40623e:	e519      	b.n	405c74 <_vfiprintf_r+0x57c>
  406240:	46cb      	mov	fp, r9
  406242:	f7ff bbab 	b.w	40599c <_vfiprintf_r+0x2a4>
  406246:	252d      	movs	r5, #45	; 0x2d
  406248:	4276      	negs	r6, r6
  40624a:	eb67 0747 	sbc.w	r7, r7, r7, lsl #1
  40624e:	f88d 5037 	strb.w	r5, [sp, #55]	; 0x37
  406252:	2201      	movs	r2, #1
  406254:	f7ff bb88 	b.w	405968 <_vfiprintf_r+0x270>
  406258:	9b09      	ldr	r3, [sp, #36]	; 0x24
  40625a:	b9b3      	cbnz	r3, 40628a <_vfiprintf_r+0xb92>
  40625c:	4611      	mov	r1, r2
  40625e:	2001      	movs	r0, #1
  406260:	46ca      	mov	sl, r9
  406262:	e5f2      	b.n	405e4a <_vfiprintf_r+0x752>
  406264:	f8db 0058 	ldr.w	r0, [fp, #88]	; 0x58
  406268:	f001 fdcc 	bl	407e04 <__retarget_lock_release_recursive>
  40626c:	f04f 33ff 	mov.w	r3, #4294967295
  406270:	9303      	str	r3, [sp, #12]
  406272:	f7ff bb50 	b.w	405916 <_vfiprintf_r+0x21e>
  406276:	aa0f      	add	r2, sp, #60	; 0x3c
  406278:	9904      	ldr	r1, [sp, #16]
  40627a:	9806      	ldr	r0, [sp, #24]
  40627c:	f7ff f9fc 	bl	405678 <__sprint_r.part.0>
  406280:	2800      	cmp	r0, #0
  406282:	f47f aeeb 	bne.w	40605c <_vfiprintf_r+0x964>
  406286:	9a11      	ldr	r2, [sp, #68]	; 0x44
  406288:	e6a9      	b.n	405fde <_vfiprintf_r+0x8e6>
  40628a:	ab0e      	add	r3, sp, #56	; 0x38
  40628c:	2202      	movs	r2, #2
  40628e:	931c      	str	r3, [sp, #112]	; 0x70
  406290:	921d      	str	r2, [sp, #116]	; 0x74
  406292:	2001      	movs	r0, #1
  406294:	46ca      	mov	sl, r9
  406296:	e5d0      	b.n	405e3a <_vfiprintf_r+0x742>
  406298:	aa0f      	add	r2, sp, #60	; 0x3c
  40629a:	9904      	ldr	r1, [sp, #16]
  40629c:	9806      	ldr	r0, [sp, #24]
  40629e:	f7ff f9eb 	bl	405678 <__sprint_r.part.0>
  4062a2:	2800      	cmp	r0, #0
  4062a4:	f47f aeda 	bne.w	40605c <_vfiprintf_r+0x964>
  4062a8:	9910      	ldr	r1, [sp, #64]	; 0x40
  4062aa:	9a11      	ldr	r2, [sp, #68]	; 0x44
  4062ac:	1c48      	adds	r0, r1, #1
  4062ae:	46ca      	mov	sl, r9
  4062b0:	e5a4      	b.n	405dfc <_vfiprintf_r+0x704>
  4062b2:	9a07      	ldr	r2, [sp, #28]
  4062b4:	9903      	ldr	r1, [sp, #12]
  4062b6:	6813      	ldr	r3, [r2, #0]
  4062b8:	17cd      	asrs	r5, r1, #31
  4062ba:	4608      	mov	r0, r1
  4062bc:	3204      	adds	r2, #4
  4062be:	4629      	mov	r1, r5
  4062c0:	9207      	str	r2, [sp, #28]
  4062c2:	e9c3 0100 	strd	r0, r1, [r3]
  4062c6:	f7ff ba54 	b.w	405772 <_vfiprintf_r+0x7a>
  4062ca:	4658      	mov	r0, fp
  4062cc:	9607      	str	r6, [sp, #28]
  4062ce:	9302      	str	r3, [sp, #8]
  4062d0:	f7fd ff36 	bl	404140 <strlen>
  4062d4:	2400      	movs	r4, #0
  4062d6:	9005      	str	r0, [sp, #20]
  4062d8:	f89d 5037 	ldrb.w	r5, [sp, #55]	; 0x37
  4062dc:	f7ff bb5e 	b.w	40599c <_vfiprintf_r+0x2a4>
  4062e0:	aa0f      	add	r2, sp, #60	; 0x3c
  4062e2:	9904      	ldr	r1, [sp, #16]
  4062e4:	9806      	ldr	r0, [sp, #24]
  4062e6:	f7ff f9c7 	bl	405678 <__sprint_r.part.0>
  4062ea:	2800      	cmp	r0, #0
  4062ec:	f47f aeb6 	bne.w	40605c <_vfiprintf_r+0x964>
  4062f0:	9910      	ldr	r1, [sp, #64]	; 0x40
  4062f2:	9a11      	ldr	r2, [sp, #68]	; 0x44
  4062f4:	1c48      	adds	r0, r1, #1
  4062f6:	46ca      	mov	sl, r9
  4062f8:	e5a7      	b.n	405e4a <_vfiprintf_r+0x752>
  4062fa:	9910      	ldr	r1, [sp, #64]	; 0x40
  4062fc:	9a11      	ldr	r2, [sp, #68]	; 0x44
  4062fe:	4e20      	ldr	r6, [pc, #128]	; (406380 <_vfiprintf_r+0xc88>)
  406300:	3101      	adds	r1, #1
  406302:	f7ff bb90 	b.w	405a26 <_vfiprintf_r+0x32e>
  406306:	2c06      	cmp	r4, #6
  406308:	bf28      	it	cs
  40630a:	2406      	movcs	r4, #6
  40630c:	9405      	str	r4, [sp, #20]
  40630e:	9607      	str	r6, [sp, #28]
  406310:	9401      	str	r4, [sp, #4]
  406312:	f8df b070 	ldr.w	fp, [pc, #112]	; 406384 <_vfiprintf_r+0xc8c>
  406316:	e4d5      	b.n	405cc4 <_vfiprintf_r+0x5cc>
  406318:	9810      	ldr	r0, [sp, #64]	; 0x40
  40631a:	4e19      	ldr	r6, [pc, #100]	; (406380 <_vfiprintf_r+0xc88>)
  40631c:	3001      	adds	r0, #1
  40631e:	e603      	b.n	405f28 <_vfiprintf_r+0x830>
  406320:	9405      	str	r4, [sp, #20]
  406322:	f89d 5037 	ldrb.w	r5, [sp, #55]	; 0x37
  406326:	9607      	str	r6, [sp, #28]
  406328:	9302      	str	r3, [sp, #8]
  40632a:	4604      	mov	r4, r0
  40632c:	f7ff bb36 	b.w	40599c <_vfiprintf_r+0x2a4>
  406330:	4686      	mov	lr, r0
  406332:	f7ff bbce 	b.w	405ad2 <_vfiprintf_r+0x3da>
  406336:	9806      	ldr	r0, [sp, #24]
  406338:	aa0f      	add	r2, sp, #60	; 0x3c
  40633a:	4659      	mov	r1, fp
  40633c:	f7ff f99c 	bl	405678 <__sprint_r.part.0>
  406340:	2800      	cmp	r0, #0
  406342:	f43f ae24 	beq.w	405f8e <_vfiprintf_r+0x896>
  406346:	e624      	b.n	405f92 <_vfiprintf_r+0x89a>
  406348:	9907      	ldr	r1, [sp, #28]
  40634a:	f898 2001 	ldrb.w	r2, [r8, #1]
  40634e:	680c      	ldr	r4, [r1, #0]
  406350:	3104      	adds	r1, #4
  406352:	ea44 74e4 	orr.w	r4, r4, r4, asr #31
  406356:	46b8      	mov	r8, r7
  406358:	9107      	str	r1, [sp, #28]
  40635a:	f7ff ba3f 	b.w	4057dc <_vfiprintf_r+0xe4>
  40635e:	f88d 5037 	strb.w	r5, [sp, #55]	; 0x37
  406362:	e43c      	b.n	405bde <_vfiprintf_r+0x4e6>
  406364:	f88d 5037 	strb.w	r5, [sp, #55]	; 0x37
  406368:	e521      	b.n	405dae <_vfiprintf_r+0x6b6>
  40636a:	f88d 5037 	strb.w	r5, [sp, #55]	; 0x37
  40636e:	f7ff bbf4 	b.w	405b5a <_vfiprintf_r+0x462>
  406372:	f88d 5037 	strb.w	r5, [sp, #55]	; 0x37
  406376:	e491      	b.n	405c9c <_vfiprintf_r+0x5a4>
  406378:	f88d 5037 	strb.w	r5, [sp, #55]	; 0x37
  40637c:	e469      	b.n	405c52 <_vfiprintf_r+0x55a>
  40637e:	bf00      	nop
  406380:	00409f9c 	.word	0x00409f9c
  406384:	00409f70 	.word	0x00409f70

00406388 <__sbprintf>:
  406388:	e92d 41f0 	stmdb	sp!, {r4, r5, r6, r7, r8, lr}
  40638c:	460c      	mov	r4, r1
  40638e:	f5ad 6d8d 	sub.w	sp, sp, #1128	; 0x468
  406392:	8989      	ldrh	r1, [r1, #12]
  406394:	6e66      	ldr	r6, [r4, #100]	; 0x64
  406396:	89e5      	ldrh	r5, [r4, #14]
  406398:	9619      	str	r6, [sp, #100]	; 0x64
  40639a:	f021 0102 	bic.w	r1, r1, #2
  40639e:	4606      	mov	r6, r0
  4063a0:	69e0      	ldr	r0, [r4, #28]
  4063a2:	f8ad 100c 	strh.w	r1, [sp, #12]
  4063a6:	4617      	mov	r7, r2
  4063a8:	f44f 6180 	mov.w	r1, #1024	; 0x400
  4063ac:	6a62      	ldr	r2, [r4, #36]	; 0x24
  4063ae:	f8ad 500e 	strh.w	r5, [sp, #14]
  4063b2:	4698      	mov	r8, r3
  4063b4:	ad1a      	add	r5, sp, #104	; 0x68
  4063b6:	2300      	movs	r3, #0
  4063b8:	9007      	str	r0, [sp, #28]
  4063ba:	a816      	add	r0, sp, #88	; 0x58
  4063bc:	9209      	str	r2, [sp, #36]	; 0x24
  4063be:	9306      	str	r3, [sp, #24]
  4063c0:	9500      	str	r5, [sp, #0]
  4063c2:	9504      	str	r5, [sp, #16]
  4063c4:	9102      	str	r1, [sp, #8]
  4063c6:	9105      	str	r1, [sp, #20]
  4063c8:	f001 fd16 	bl	407df8 <__retarget_lock_init_recursive>
  4063cc:	4643      	mov	r3, r8
  4063ce:	463a      	mov	r2, r7
  4063d0:	4669      	mov	r1, sp
  4063d2:	4630      	mov	r0, r6
  4063d4:	f7ff f990 	bl	4056f8 <_vfiprintf_r>
  4063d8:	1e05      	subs	r5, r0, #0
  4063da:	db07      	blt.n	4063ec <__sbprintf+0x64>
  4063dc:	4630      	mov	r0, r6
  4063de:	4669      	mov	r1, sp
  4063e0:	f001 f8e8 	bl	4075b4 <_fflush_r>
  4063e4:	2800      	cmp	r0, #0
  4063e6:	bf18      	it	ne
  4063e8:	f04f 35ff 	movne.w	r5, #4294967295
  4063ec:	f8bd 300c 	ldrh.w	r3, [sp, #12]
  4063f0:	065b      	lsls	r3, r3, #25
  4063f2:	d503      	bpl.n	4063fc <__sbprintf+0x74>
  4063f4:	89a3      	ldrh	r3, [r4, #12]
  4063f6:	f043 0340 	orr.w	r3, r3, #64	; 0x40
  4063fa:	81a3      	strh	r3, [r4, #12]
  4063fc:	9816      	ldr	r0, [sp, #88]	; 0x58
  4063fe:	f001 fcfd 	bl	407dfc <__retarget_lock_close_recursive>
  406402:	4628      	mov	r0, r5
  406404:	f50d 6d8d 	add.w	sp, sp, #1128	; 0x468
  406408:	e8bd 81f0 	ldmia.w	sp!, {r4, r5, r6, r7, r8, pc}

0040640c <__swsetup_r>:
  40640c:	b538      	push	{r3, r4, r5, lr}
  40640e:	4b30      	ldr	r3, [pc, #192]	; (4064d0 <__swsetup_r+0xc4>)
  406410:	681b      	ldr	r3, [r3, #0]
  406412:	4605      	mov	r5, r0
  406414:	460c      	mov	r4, r1
  406416:	b113      	cbz	r3, 40641e <__swsetup_r+0x12>
  406418:	6b9a      	ldr	r2, [r3, #56]	; 0x38
  40641a:	2a00      	cmp	r2, #0
  40641c:	d038      	beq.n	406490 <__swsetup_r+0x84>
  40641e:	f9b4 200c 	ldrsh.w	r2, [r4, #12]
  406422:	b293      	uxth	r3, r2
  406424:	0718      	lsls	r0, r3, #28
  406426:	d50c      	bpl.n	406442 <__swsetup_r+0x36>
  406428:	6920      	ldr	r0, [r4, #16]
  40642a:	b1a8      	cbz	r0, 406458 <__swsetup_r+0x4c>
  40642c:	f013 0201 	ands.w	r2, r3, #1
  406430:	d01e      	beq.n	406470 <__swsetup_r+0x64>
  406432:	6963      	ldr	r3, [r4, #20]
  406434:	2200      	movs	r2, #0
  406436:	425b      	negs	r3, r3
  406438:	61a3      	str	r3, [r4, #24]
  40643a:	60a2      	str	r2, [r4, #8]
  40643c:	b1f0      	cbz	r0, 40647c <__swsetup_r+0x70>
  40643e:	2000      	movs	r0, #0
  406440:	bd38      	pop	{r3, r4, r5, pc}
  406442:	06d9      	lsls	r1, r3, #27
  406444:	d53c      	bpl.n	4064c0 <__swsetup_r+0xb4>
  406446:	0758      	lsls	r0, r3, #29
  406448:	d426      	bmi.n	406498 <__swsetup_r+0x8c>
  40644a:	6920      	ldr	r0, [r4, #16]
  40644c:	f042 0308 	orr.w	r3, r2, #8
  406450:	81a3      	strh	r3, [r4, #12]
  406452:	b29b      	uxth	r3, r3
  406454:	2800      	cmp	r0, #0
  406456:	d1e9      	bne.n	40642c <__swsetup_r+0x20>
  406458:	f403 7220 	and.w	r2, r3, #640	; 0x280
  40645c:	f5b2 7f00 	cmp.w	r2, #512	; 0x200
  406460:	d0e4      	beq.n	40642c <__swsetup_r+0x20>
  406462:	4628      	mov	r0, r5
  406464:	4621      	mov	r1, r4
  406466:	f001 fcfd 	bl	407e64 <__smakebuf_r>
  40646a:	89a3      	ldrh	r3, [r4, #12]
  40646c:	6920      	ldr	r0, [r4, #16]
  40646e:	e7dd      	b.n	40642c <__swsetup_r+0x20>
  406470:	0799      	lsls	r1, r3, #30
  406472:	bf58      	it	pl
  406474:	6962      	ldrpl	r2, [r4, #20]
  406476:	60a2      	str	r2, [r4, #8]
  406478:	2800      	cmp	r0, #0
  40647a:	d1e0      	bne.n	40643e <__swsetup_r+0x32>
  40647c:	f9b4 300c 	ldrsh.w	r3, [r4, #12]
  406480:	061a      	lsls	r2, r3, #24
  406482:	d5dd      	bpl.n	406440 <__swsetup_r+0x34>
  406484:	f043 0340 	orr.w	r3, r3, #64	; 0x40
  406488:	81a3      	strh	r3, [r4, #12]
  40648a:	f04f 30ff 	mov.w	r0, #4294967295
  40648e:	bd38      	pop	{r3, r4, r5, pc}
  406490:	4618      	mov	r0, r3
  406492:	f001 f8e7 	bl	407664 <__sinit>
  406496:	e7c2      	b.n	40641e <__swsetup_r+0x12>
  406498:	6b21      	ldr	r1, [r4, #48]	; 0x30
  40649a:	b151      	cbz	r1, 4064b2 <__swsetup_r+0xa6>
  40649c:	f104 0340 	add.w	r3, r4, #64	; 0x40
  4064a0:	4299      	cmp	r1, r3
  4064a2:	d004      	beq.n	4064ae <__swsetup_r+0xa2>
  4064a4:	4628      	mov	r0, r5
  4064a6:	f001 fa03 	bl	4078b0 <_free_r>
  4064aa:	f9b4 200c 	ldrsh.w	r2, [r4, #12]
  4064ae:	2300      	movs	r3, #0
  4064b0:	6323      	str	r3, [r4, #48]	; 0x30
  4064b2:	2300      	movs	r3, #0
  4064b4:	6920      	ldr	r0, [r4, #16]
  4064b6:	6063      	str	r3, [r4, #4]
  4064b8:	f022 0224 	bic.w	r2, r2, #36	; 0x24
  4064bc:	6020      	str	r0, [r4, #0]
  4064be:	e7c5      	b.n	40644c <__swsetup_r+0x40>
  4064c0:	f042 0240 	orr.w	r2, r2, #64	; 0x40
  4064c4:	2309      	movs	r3, #9
  4064c6:	602b      	str	r3, [r5, #0]
  4064c8:	f04f 30ff 	mov.w	r0, #4294967295
  4064cc:	81a2      	strh	r2, [r4, #12]
  4064ce:	bd38      	pop	{r3, r4, r5, pc}
  4064d0:	20400024 	.word	0x20400024

004064d4 <register_fini>:
  4064d4:	4b02      	ldr	r3, [pc, #8]	; (4064e0 <register_fini+0xc>)
  4064d6:	b113      	cbz	r3, 4064de <register_fini+0xa>
  4064d8:	4802      	ldr	r0, [pc, #8]	; (4064e4 <register_fini+0x10>)
  4064da:	f000 b805 	b.w	4064e8 <atexit>
  4064de:	4770      	bx	lr
  4064e0:	00000000 	.word	0x00000000
  4064e4:	004076d5 	.word	0x004076d5

004064e8 <atexit>:
  4064e8:	2300      	movs	r3, #0
  4064ea:	4601      	mov	r1, r0
  4064ec:	461a      	mov	r2, r3
  4064ee:	4618      	mov	r0, r3
  4064f0:	f002 bbda 	b.w	408ca8 <__register_exitproc>

004064f4 <quorem>:
  4064f4:	6902      	ldr	r2, [r0, #16]
  4064f6:	690b      	ldr	r3, [r1, #16]
  4064f8:	4293      	cmp	r3, r2
  4064fa:	f300 808d 	bgt.w	406618 <quorem+0x124>
  4064fe:	e92d 4ff0 	stmdb	sp!, {r4, r5, r6, r7, r8, r9, sl, fp, lr}
  406502:	f103 38ff 	add.w	r8, r3, #4294967295
  406506:	f101 0714 	add.w	r7, r1, #20
  40650a:	f100 0b14 	add.w	fp, r0, #20
  40650e:	f857 2028 	ldr.w	r2, [r7, r8, lsl #2]
  406512:	f85b 3028 	ldr.w	r3, [fp, r8, lsl #2]
  406516:	ea4f 0488 	mov.w	r4, r8, lsl #2
  40651a:	b083      	sub	sp, #12
  40651c:	3201      	adds	r2, #1
  40651e:	fbb3 f9f2 	udiv	r9, r3, r2
  406522:	eb0b 0304 	add.w	r3, fp, r4
  406526:	9400      	str	r4, [sp, #0]
  406528:	eb07 0a04 	add.w	sl, r7, r4
  40652c:	9301      	str	r3, [sp, #4]
  40652e:	f1b9 0f00 	cmp.w	r9, #0
  406532:	d039      	beq.n	4065a8 <quorem+0xb4>
  406534:	2500      	movs	r5, #0
  406536:	462e      	mov	r6, r5
  406538:	46bc      	mov	ip, r7
  40653a:	46de      	mov	lr, fp
  40653c:	f85c 4b04 	ldr.w	r4, [ip], #4
  406540:	f8de 3000 	ldr.w	r3, [lr]
  406544:	b2a2      	uxth	r2, r4
  406546:	fb09 5502 	mla	r5, r9, r2, r5
  40654a:	0c22      	lsrs	r2, r4, #16
  40654c:	0c2c      	lsrs	r4, r5, #16
  40654e:	fb09 4202 	mla	r2, r9, r2, r4
  406552:	b2ad      	uxth	r5, r5
  406554:	1b75      	subs	r5, r6, r5
  406556:	b296      	uxth	r6, r2
  406558:	ebc6 4613 	rsb	r6, r6, r3, lsr #16
  40655c:	fa15 f383 	uxtah	r3, r5, r3
  406560:	eb06 4623 	add.w	r6, r6, r3, asr #16
  406564:	b29b      	uxth	r3, r3
  406566:	ea43 4306 	orr.w	r3, r3, r6, lsl #16
  40656a:	45e2      	cmp	sl, ip
  40656c:	ea4f 4512 	mov.w	r5, r2, lsr #16
  406570:	f84e 3b04 	str.w	r3, [lr], #4
  406574:	ea4f 4626 	mov.w	r6, r6, asr #16
  406578:	d2e0      	bcs.n	40653c <quorem+0x48>
  40657a:	9b00      	ldr	r3, [sp, #0]
  40657c:	f85b 3003 	ldr.w	r3, [fp, r3]
  406580:	b993      	cbnz	r3, 4065a8 <quorem+0xb4>
  406582:	9c01      	ldr	r4, [sp, #4]
  406584:	1f23      	subs	r3, r4, #4
  406586:	459b      	cmp	fp, r3
  406588:	d20c      	bcs.n	4065a4 <quorem+0xb0>
  40658a:	f854 3c04 	ldr.w	r3, [r4, #-4]
  40658e:	b94b      	cbnz	r3, 4065a4 <quorem+0xb0>
  406590:	f1a4 0308 	sub.w	r3, r4, #8
  406594:	e002      	b.n	40659c <quorem+0xa8>
  406596:	681a      	ldr	r2, [r3, #0]
  406598:	3b04      	subs	r3, #4
  40659a:	b91a      	cbnz	r2, 4065a4 <quorem+0xb0>
  40659c:	459b      	cmp	fp, r3
  40659e:	f108 38ff 	add.w	r8, r8, #4294967295
  4065a2:	d3f8      	bcc.n	406596 <quorem+0xa2>
  4065a4:	f8c0 8010 	str.w	r8, [r0, #16]
  4065a8:	4604      	mov	r4, r0
  4065aa:	f001 ff73 	bl	408494 <__mcmp>
  4065ae:	2800      	cmp	r0, #0
  4065b0:	db2e      	blt.n	406610 <quorem+0x11c>
  4065b2:	f109 0901 	add.w	r9, r9, #1
  4065b6:	465d      	mov	r5, fp
  4065b8:	2300      	movs	r3, #0
  4065ba:	f857 1b04 	ldr.w	r1, [r7], #4
  4065be:	6828      	ldr	r0, [r5, #0]
  4065c0:	b28a      	uxth	r2, r1
  4065c2:	1a9a      	subs	r2, r3, r2
  4065c4:	0c0b      	lsrs	r3, r1, #16
  4065c6:	fa12 f280 	uxtah	r2, r2, r0
  4065ca:	ebc3 4310 	rsb	r3, r3, r0, lsr #16
  4065ce:	eb03 4322 	add.w	r3, r3, r2, asr #16
  4065d2:	b292      	uxth	r2, r2
  4065d4:	ea42 4203 	orr.w	r2, r2, r3, lsl #16
  4065d8:	45ba      	cmp	sl, r7
  4065da:	f845 2b04 	str.w	r2, [r5], #4
  4065de:	ea4f 4323 	mov.w	r3, r3, asr #16
  4065e2:	d2ea      	bcs.n	4065ba <quorem+0xc6>
  4065e4:	f85b 2028 	ldr.w	r2, [fp, r8, lsl #2]
  4065e8:	eb0b 0388 	add.w	r3, fp, r8, lsl #2
  4065ec:	b982      	cbnz	r2, 406610 <quorem+0x11c>
  4065ee:	1f1a      	subs	r2, r3, #4
  4065f0:	4593      	cmp	fp, r2
  4065f2:	d20b      	bcs.n	40660c <quorem+0x118>
  4065f4:	f853 2c04 	ldr.w	r2, [r3, #-4]
  4065f8:	b942      	cbnz	r2, 40660c <quorem+0x118>
  4065fa:	3b08      	subs	r3, #8
  4065fc:	e002      	b.n	406604 <quorem+0x110>
  4065fe:	681a      	ldr	r2, [r3, #0]
  406600:	3b04      	subs	r3, #4
  406602:	b91a      	cbnz	r2, 40660c <quorem+0x118>
  406604:	459b      	cmp	fp, r3
  406606:	f108 38ff 	add.w	r8, r8, #4294967295
  40660a:	d3f8      	bcc.n	4065fe <quorem+0x10a>
  40660c:	f8c4 8010 	str.w	r8, [r4, #16]
  406610:	4648      	mov	r0, r9
  406612:	b003      	add	sp, #12
  406614:	e8bd 8ff0 	ldmia.w	sp!, {r4, r5, r6, r7, r8, r9, sl, fp, pc}
  406618:	2000      	movs	r0, #0
  40661a:	4770      	bx	lr
  40661c:	0000      	movs	r0, r0
	...

00406620 <_dtoa_r>:
  406620:	e92d 4ff0 	stmdb	sp!, {r4, r5, r6, r7, r8, r9, sl, fp, lr}
  406624:	6c01      	ldr	r1, [r0, #64]	; 0x40
  406626:	b09b      	sub	sp, #108	; 0x6c
  406628:	4604      	mov	r4, r0
  40662a:	9e27      	ldr	r6, [sp, #156]	; 0x9c
  40662c:	4692      	mov	sl, r2
  40662e:	469b      	mov	fp, r3
  406630:	b141      	cbz	r1, 406644 <_dtoa_r+0x24>
  406632:	6c42      	ldr	r2, [r0, #68]	; 0x44
  406634:	604a      	str	r2, [r1, #4]
  406636:	2301      	movs	r3, #1
  406638:	4093      	lsls	r3, r2
  40663a:	608b      	str	r3, [r1, #8]
  40663c:	f001 fd52 	bl	4080e4 <_Bfree>
  406640:	2300      	movs	r3, #0
  406642:	6423      	str	r3, [r4, #64]	; 0x40
  406644:	f1bb 0f00 	cmp.w	fp, #0
  406648:	465d      	mov	r5, fp
  40664a:	db35      	blt.n	4066b8 <_dtoa_r+0x98>
  40664c:	2300      	movs	r3, #0
  40664e:	6033      	str	r3, [r6, #0]
  406650:	4b9d      	ldr	r3, [pc, #628]	; (4068c8 <_dtoa_r+0x2a8>)
  406652:	43ab      	bics	r3, r5
  406654:	d015      	beq.n	406682 <_dtoa_r+0x62>
  406656:	4650      	mov	r0, sl
  406658:	4659      	mov	r1, fp
  40665a:	2200      	movs	r2, #0
  40665c:	2300      	movs	r3, #0
  40665e:	f003 f89b 	bl	409798 <__aeabi_dcmpeq>
  406662:	4680      	mov	r8, r0
  406664:	2800      	cmp	r0, #0
  406666:	d02d      	beq.n	4066c4 <_dtoa_r+0xa4>
  406668:	9a26      	ldr	r2, [sp, #152]	; 0x98
  40666a:	2301      	movs	r3, #1
  40666c:	6013      	str	r3, [r2, #0]
  40666e:	9b28      	ldr	r3, [sp, #160]	; 0xa0
  406670:	2b00      	cmp	r3, #0
  406672:	f000 80bd 	beq.w	4067f0 <_dtoa_r+0x1d0>
  406676:	4895      	ldr	r0, [pc, #596]	; (4068cc <_dtoa_r+0x2ac>)
  406678:	6018      	str	r0, [r3, #0]
  40667a:	3801      	subs	r0, #1
  40667c:	b01b      	add	sp, #108	; 0x6c
  40667e:	e8bd 8ff0 	ldmia.w	sp!, {r4, r5, r6, r7, r8, r9, sl, fp, pc}
  406682:	9a26      	ldr	r2, [sp, #152]	; 0x98
  406684:	f242 730f 	movw	r3, #9999	; 0x270f
  406688:	6013      	str	r3, [r2, #0]
  40668a:	f1ba 0f00 	cmp.w	sl, #0
  40668e:	d10d      	bne.n	4066ac <_dtoa_r+0x8c>
  406690:	f3c5 0513 	ubfx	r5, r5, #0, #20
  406694:	b955      	cbnz	r5, 4066ac <_dtoa_r+0x8c>
  406696:	9b28      	ldr	r3, [sp, #160]	; 0xa0
  406698:	488d      	ldr	r0, [pc, #564]	; (4068d0 <_dtoa_r+0x2b0>)
  40669a:	2b00      	cmp	r3, #0
  40669c:	d0ee      	beq.n	40667c <_dtoa_r+0x5c>
  40669e:	f100 0308 	add.w	r3, r0, #8
  4066a2:	9a28      	ldr	r2, [sp, #160]	; 0xa0
  4066a4:	6013      	str	r3, [r2, #0]
  4066a6:	b01b      	add	sp, #108	; 0x6c
  4066a8:	e8bd 8ff0 	ldmia.w	sp!, {r4, r5, r6, r7, r8, r9, sl, fp, pc}
  4066ac:	9b28      	ldr	r3, [sp, #160]	; 0xa0
  4066ae:	4889      	ldr	r0, [pc, #548]	; (4068d4 <_dtoa_r+0x2b4>)
  4066b0:	2b00      	cmp	r3, #0
  4066b2:	d0e3      	beq.n	40667c <_dtoa_r+0x5c>
  4066b4:	1cc3      	adds	r3, r0, #3
  4066b6:	e7f4      	b.n	4066a2 <_dtoa_r+0x82>
  4066b8:	2301      	movs	r3, #1
  4066ba:	f02b 4500 	bic.w	r5, fp, #2147483648	; 0x80000000
  4066be:	6033      	str	r3, [r6, #0]
  4066c0:	46ab      	mov	fp, r5
  4066c2:	e7c5      	b.n	406650 <_dtoa_r+0x30>
  4066c4:	aa18      	add	r2, sp, #96	; 0x60
  4066c6:	ab19      	add	r3, sp, #100	; 0x64
  4066c8:	9201      	str	r2, [sp, #4]
  4066ca:	9300      	str	r3, [sp, #0]
  4066cc:	4652      	mov	r2, sl
  4066ce:	465b      	mov	r3, fp
  4066d0:	4620      	mov	r0, r4
  4066d2:	f001 ff7f 	bl	4085d4 <__d2b>
  4066d6:	0d2b      	lsrs	r3, r5, #20
  4066d8:	4681      	mov	r9, r0
  4066da:	d071      	beq.n	4067c0 <_dtoa_r+0x1a0>
  4066dc:	f3cb 0213 	ubfx	r2, fp, #0, #20
  4066e0:	f042 517f 	orr.w	r1, r2, #1069547520	; 0x3fc00000
  4066e4:	9f18      	ldr	r7, [sp, #96]	; 0x60
  4066e6:	f8cd 8050 	str.w	r8, [sp, #80]	; 0x50
  4066ea:	4650      	mov	r0, sl
  4066ec:	f2a3 36ff 	subw	r6, r3, #1023	; 0x3ff
  4066f0:	f441 1140 	orr.w	r1, r1, #3145728	; 0x300000
  4066f4:	2200      	movs	r2, #0
  4066f6:	4b78      	ldr	r3, [pc, #480]	; (4068d8 <_dtoa_r+0x2b8>)
  4066f8:	f002 fc32 	bl	408f60 <__aeabi_dsub>
  4066fc:	a36c      	add	r3, pc, #432	; (adr r3, 4068b0 <_dtoa_r+0x290>)
  4066fe:	e9d3 2300 	ldrd	r2, r3, [r3]
  406702:	f002 fde1 	bl	4092c8 <__aeabi_dmul>
  406706:	a36c      	add	r3, pc, #432	; (adr r3, 4068b8 <_dtoa_r+0x298>)
  406708:	e9d3 2300 	ldrd	r2, r3, [r3]
  40670c:	f002 fc2a 	bl	408f64 <__adddf3>
  406710:	e9cd 0102 	strd	r0, r1, [sp, #8]
  406714:	4630      	mov	r0, r6
  406716:	f002 fd71 	bl	4091fc <__aeabi_i2d>
  40671a:	a369      	add	r3, pc, #420	; (adr r3, 4068c0 <_dtoa_r+0x2a0>)
  40671c:	e9d3 2300 	ldrd	r2, r3, [r3]
  406720:	f002 fdd2 	bl	4092c8 <__aeabi_dmul>
  406724:	4602      	mov	r2, r0
  406726:	460b      	mov	r3, r1
  406728:	e9dd 0102 	ldrd	r0, r1, [sp, #8]
  40672c:	f002 fc1a 	bl	408f64 <__adddf3>
  406730:	e9cd 0104 	strd	r0, r1, [sp, #16]
  406734:	f003 f878 	bl	409828 <__aeabi_d2iz>
  406738:	2200      	movs	r2, #0
  40673a:	9002      	str	r0, [sp, #8]
  40673c:	2300      	movs	r3, #0
  40673e:	e9dd 0104 	ldrd	r0, r1, [sp, #16]
  406742:	f003 f833 	bl	4097ac <__aeabi_dcmplt>
  406746:	2800      	cmp	r0, #0
  406748:	f040 8173 	bne.w	406a32 <_dtoa_r+0x412>
  40674c:	9d02      	ldr	r5, [sp, #8]
  40674e:	2d16      	cmp	r5, #22
  406750:	f200 815d 	bhi.w	406a0e <_dtoa_r+0x3ee>
  406754:	4b61      	ldr	r3, [pc, #388]	; (4068dc <_dtoa_r+0x2bc>)
  406756:	eb03 03c5 	add.w	r3, r3, r5, lsl #3
  40675a:	e9d3 0100 	ldrd	r0, r1, [r3]
  40675e:	4652      	mov	r2, sl
  406760:	465b      	mov	r3, fp
  406762:	f003 f841 	bl	4097e8 <__aeabi_dcmpgt>
  406766:	2800      	cmp	r0, #0
  406768:	f000 81c5 	beq.w	406af6 <_dtoa_r+0x4d6>
  40676c:	1e6b      	subs	r3, r5, #1
  40676e:	9302      	str	r3, [sp, #8]
  406770:	2300      	movs	r3, #0
  406772:	930e      	str	r3, [sp, #56]	; 0x38
  406774:	1bbf      	subs	r7, r7, r6
  406776:	1e7b      	subs	r3, r7, #1
  406778:	9306      	str	r3, [sp, #24]
  40677a:	f100 8154 	bmi.w	406a26 <_dtoa_r+0x406>
  40677e:	2300      	movs	r3, #0
  406780:	9308      	str	r3, [sp, #32]
  406782:	9b02      	ldr	r3, [sp, #8]
  406784:	2b00      	cmp	r3, #0
  406786:	f2c0 8145 	blt.w	406a14 <_dtoa_r+0x3f4>
  40678a:	9a06      	ldr	r2, [sp, #24]
  40678c:	930d      	str	r3, [sp, #52]	; 0x34
  40678e:	4611      	mov	r1, r2
  406790:	4419      	add	r1, r3
  406792:	2300      	movs	r3, #0
  406794:	9106      	str	r1, [sp, #24]
  406796:	930c      	str	r3, [sp, #48]	; 0x30
  406798:	9b24      	ldr	r3, [sp, #144]	; 0x90
  40679a:	2b09      	cmp	r3, #9
  40679c:	d82a      	bhi.n	4067f4 <_dtoa_r+0x1d4>
  40679e:	2b05      	cmp	r3, #5
  4067a0:	f340 865b 	ble.w	40745a <_dtoa_r+0xe3a>
  4067a4:	3b04      	subs	r3, #4
  4067a6:	9324      	str	r3, [sp, #144]	; 0x90
  4067a8:	2500      	movs	r5, #0
  4067aa:	9b24      	ldr	r3, [sp, #144]	; 0x90
  4067ac:	3b02      	subs	r3, #2
  4067ae:	2b03      	cmp	r3, #3
  4067b0:	f200 8642 	bhi.w	407438 <_dtoa_r+0xe18>
  4067b4:	e8df f013 	tbh	[pc, r3, lsl #1]
  4067b8:	02c903d4 	.word	0x02c903d4
  4067bc:	046103df 	.word	0x046103df
  4067c0:	9f18      	ldr	r7, [sp, #96]	; 0x60
  4067c2:	9e19      	ldr	r6, [sp, #100]	; 0x64
  4067c4:	443e      	add	r6, r7
  4067c6:	f206 4332 	addw	r3, r6, #1074	; 0x432
  4067ca:	2b20      	cmp	r3, #32
  4067cc:	f340 818e 	ble.w	406aec <_dtoa_r+0x4cc>
  4067d0:	f1c3 0340 	rsb	r3, r3, #64	; 0x40
  4067d4:	f206 4012 	addw	r0, r6, #1042	; 0x412
  4067d8:	409d      	lsls	r5, r3
  4067da:	fa2a f000 	lsr.w	r0, sl, r0
  4067de:	4328      	orrs	r0, r5
  4067e0:	f002 fcfc 	bl	4091dc <__aeabi_ui2d>
  4067e4:	2301      	movs	r3, #1
  4067e6:	3e01      	subs	r6, #1
  4067e8:	f1a1 71f8 	sub.w	r1, r1, #32505856	; 0x1f00000
  4067ec:	9314      	str	r3, [sp, #80]	; 0x50
  4067ee:	e781      	b.n	4066f4 <_dtoa_r+0xd4>
  4067f0:	483b      	ldr	r0, [pc, #236]	; (4068e0 <_dtoa_r+0x2c0>)
  4067f2:	e743      	b.n	40667c <_dtoa_r+0x5c>
  4067f4:	2100      	movs	r1, #0
  4067f6:	6461      	str	r1, [r4, #68]	; 0x44
  4067f8:	4620      	mov	r0, r4
  4067fa:	9125      	str	r1, [sp, #148]	; 0x94
  4067fc:	f001 fc4c 	bl	408098 <_Balloc>
  406800:	f04f 33ff 	mov.w	r3, #4294967295
  406804:	930a      	str	r3, [sp, #40]	; 0x28
  406806:	9a25      	ldr	r2, [sp, #148]	; 0x94
  406808:	930f      	str	r3, [sp, #60]	; 0x3c
  40680a:	2301      	movs	r3, #1
  40680c:	9004      	str	r0, [sp, #16]
  40680e:	6420      	str	r0, [r4, #64]	; 0x40
  406810:	9224      	str	r2, [sp, #144]	; 0x90
  406812:	930b      	str	r3, [sp, #44]	; 0x2c
  406814:	9b19      	ldr	r3, [sp, #100]	; 0x64
  406816:	2b00      	cmp	r3, #0
  406818:	f2c0 80d9 	blt.w	4069ce <_dtoa_r+0x3ae>
  40681c:	9a02      	ldr	r2, [sp, #8]
  40681e:	2a0e      	cmp	r2, #14
  406820:	f300 80d5 	bgt.w	4069ce <_dtoa_r+0x3ae>
  406824:	4b2d      	ldr	r3, [pc, #180]	; (4068dc <_dtoa_r+0x2bc>)
  406826:	eb03 03c2 	add.w	r3, r3, r2, lsl #3
  40682a:	e9d3 2300 	ldrd	r2, r3, [r3]
  40682e:	e9cd 2308 	strd	r2, r3, [sp, #32]
  406832:	9b25      	ldr	r3, [sp, #148]	; 0x94
  406834:	2b00      	cmp	r3, #0
  406836:	f2c0 83ba 	blt.w	406fae <_dtoa_r+0x98e>
  40683a:	e9dd 5608 	ldrd	r5, r6, [sp, #32]
  40683e:	4650      	mov	r0, sl
  406840:	462a      	mov	r2, r5
  406842:	4633      	mov	r3, r6
  406844:	4659      	mov	r1, fp
  406846:	f002 fe69 	bl	40951c <__aeabi_ddiv>
  40684a:	f002 ffed 	bl	409828 <__aeabi_d2iz>
  40684e:	4680      	mov	r8, r0
  406850:	f002 fcd4 	bl	4091fc <__aeabi_i2d>
  406854:	462a      	mov	r2, r5
  406856:	4633      	mov	r3, r6
  406858:	f002 fd36 	bl	4092c8 <__aeabi_dmul>
  40685c:	460b      	mov	r3, r1
  40685e:	4602      	mov	r2, r0
  406860:	4659      	mov	r1, fp
  406862:	4650      	mov	r0, sl
  406864:	f002 fb7c 	bl	408f60 <__aeabi_dsub>
  406868:	9d04      	ldr	r5, [sp, #16]
  40686a:	f108 0330 	add.w	r3, r8, #48	; 0x30
  40686e:	702b      	strb	r3, [r5, #0]
  406870:	9b0a      	ldr	r3, [sp, #40]	; 0x28
  406872:	2b01      	cmp	r3, #1
  406874:	4606      	mov	r6, r0
  406876:	460f      	mov	r7, r1
  406878:	f105 0501 	add.w	r5, r5, #1
  40687c:	d068      	beq.n	406950 <_dtoa_r+0x330>
  40687e:	2200      	movs	r2, #0
  406880:	4b18      	ldr	r3, [pc, #96]	; (4068e4 <_dtoa_r+0x2c4>)
  406882:	f002 fd21 	bl	4092c8 <__aeabi_dmul>
  406886:	2200      	movs	r2, #0
  406888:	2300      	movs	r3, #0
  40688a:	4606      	mov	r6, r0
  40688c:	460f      	mov	r7, r1
  40688e:	f002 ff83 	bl	409798 <__aeabi_dcmpeq>
  406892:	2800      	cmp	r0, #0
  406894:	f040 8088 	bne.w	4069a8 <_dtoa_r+0x388>
  406898:	f8cd 902c 	str.w	r9, [sp, #44]	; 0x2c
  40689c:	f04f 0a00 	mov.w	sl, #0
  4068a0:	f8df b040 	ldr.w	fp, [pc, #64]	; 4068e4 <_dtoa_r+0x2c4>
  4068a4:	940c      	str	r4, [sp, #48]	; 0x30
  4068a6:	e9dd 8908 	ldrd	r8, r9, [sp, #32]
  4068aa:	e028      	b.n	4068fe <_dtoa_r+0x2de>
  4068ac:	f3af 8000 	nop.w
  4068b0:	636f4361 	.word	0x636f4361
  4068b4:	3fd287a7 	.word	0x3fd287a7
  4068b8:	8b60c8b3 	.word	0x8b60c8b3
  4068bc:	3fc68a28 	.word	0x3fc68a28
  4068c0:	509f79fb 	.word	0x509f79fb
  4068c4:	3fd34413 	.word	0x3fd34413
  4068c8:	7ff00000 	.word	0x7ff00000
  4068cc:	00409f79 	.word	0x00409f79
  4068d0:	00409fbc 	.word	0x00409fbc
  4068d4:	00409fc8 	.word	0x00409fc8
  4068d8:	3ff80000 	.word	0x3ff80000
  4068dc:	0040a008 	.word	0x0040a008
  4068e0:	00409f78 	.word	0x00409f78
  4068e4:	40240000 	.word	0x40240000
  4068e8:	f002 fcee 	bl	4092c8 <__aeabi_dmul>
  4068ec:	2200      	movs	r2, #0
  4068ee:	2300      	movs	r3, #0
  4068f0:	4606      	mov	r6, r0
  4068f2:	460f      	mov	r7, r1
  4068f4:	f002 ff50 	bl	409798 <__aeabi_dcmpeq>
  4068f8:	2800      	cmp	r0, #0
  4068fa:	f040 83c1 	bne.w	407080 <_dtoa_r+0xa60>
  4068fe:	4642      	mov	r2, r8
  406900:	464b      	mov	r3, r9
  406902:	4630      	mov	r0, r6
  406904:	4639      	mov	r1, r7
  406906:	f002 fe09 	bl	40951c <__aeabi_ddiv>
  40690a:	f002 ff8d 	bl	409828 <__aeabi_d2iz>
  40690e:	4604      	mov	r4, r0
  406910:	f002 fc74 	bl	4091fc <__aeabi_i2d>
  406914:	4642      	mov	r2, r8
  406916:	464b      	mov	r3, r9
  406918:	f002 fcd6 	bl	4092c8 <__aeabi_dmul>
  40691c:	4602      	mov	r2, r0
  40691e:	460b      	mov	r3, r1
  406920:	4630      	mov	r0, r6
  406922:	4639      	mov	r1, r7
  406924:	f002 fb1c 	bl	408f60 <__aeabi_dsub>
  406928:	f104 0e30 	add.w	lr, r4, #48	; 0x30
  40692c:	9e04      	ldr	r6, [sp, #16]
  40692e:	f805 eb01 	strb.w	lr, [r5], #1
  406932:	eba5 0e06 	sub.w	lr, r5, r6
  406936:	9e0a      	ldr	r6, [sp, #40]	; 0x28
  406938:	45b6      	cmp	lr, r6
  40693a:	e9cd 0106 	strd	r0, r1, [sp, #24]
  40693e:	4652      	mov	r2, sl
  406940:	465b      	mov	r3, fp
  406942:	d1d1      	bne.n	4068e8 <_dtoa_r+0x2c8>
  406944:	46a0      	mov	r8, r4
  406946:	f8dd 902c 	ldr.w	r9, [sp, #44]	; 0x2c
  40694a:	9c0c      	ldr	r4, [sp, #48]	; 0x30
  40694c:	4606      	mov	r6, r0
  40694e:	460f      	mov	r7, r1
  406950:	4632      	mov	r2, r6
  406952:	463b      	mov	r3, r7
  406954:	4630      	mov	r0, r6
  406956:	4639      	mov	r1, r7
  406958:	f002 fb04 	bl	408f64 <__adddf3>
  40695c:	4606      	mov	r6, r0
  40695e:	460f      	mov	r7, r1
  406960:	4602      	mov	r2, r0
  406962:	460b      	mov	r3, r1
  406964:	e9dd 0108 	ldrd	r0, r1, [sp, #32]
  406968:	f002 ff20 	bl	4097ac <__aeabi_dcmplt>
  40696c:	b948      	cbnz	r0, 406982 <_dtoa_r+0x362>
  40696e:	4632      	mov	r2, r6
  406970:	463b      	mov	r3, r7
  406972:	e9dd 0108 	ldrd	r0, r1, [sp, #32]
  406976:	f002 ff0f 	bl	409798 <__aeabi_dcmpeq>
  40697a:	b1a8      	cbz	r0, 4069a8 <_dtoa_r+0x388>
  40697c:	f018 0f01 	tst.w	r8, #1
  406980:	d012      	beq.n	4069a8 <_dtoa_r+0x388>
  406982:	f815 8c01 	ldrb.w	r8, [r5, #-1]
  406986:	9a04      	ldr	r2, [sp, #16]
  406988:	1e6b      	subs	r3, r5, #1
  40698a:	e004      	b.n	406996 <_dtoa_r+0x376>
  40698c:	429a      	cmp	r2, r3
  40698e:	f000 8401 	beq.w	407194 <_dtoa_r+0xb74>
  406992:	f813 8d01 	ldrb.w	r8, [r3, #-1]!
  406996:	f1b8 0f39 	cmp.w	r8, #57	; 0x39
  40699a:	f103 0501 	add.w	r5, r3, #1
  40699e:	d0f5      	beq.n	40698c <_dtoa_r+0x36c>
  4069a0:	f108 0801 	add.w	r8, r8, #1
  4069a4:	f883 8000 	strb.w	r8, [r3]
  4069a8:	4649      	mov	r1, r9
  4069aa:	4620      	mov	r0, r4
  4069ac:	f001 fb9a 	bl	4080e4 <_Bfree>
  4069b0:	2200      	movs	r2, #0
  4069b2:	9b02      	ldr	r3, [sp, #8]
  4069b4:	702a      	strb	r2, [r5, #0]
  4069b6:	9a26      	ldr	r2, [sp, #152]	; 0x98
  4069b8:	3301      	adds	r3, #1
  4069ba:	6013      	str	r3, [r2, #0]
  4069bc:	9b28      	ldr	r3, [sp, #160]	; 0xa0
  4069be:	2b00      	cmp	r3, #0
  4069c0:	f000 839e 	beq.w	407100 <_dtoa_r+0xae0>
  4069c4:	9804      	ldr	r0, [sp, #16]
  4069c6:	601d      	str	r5, [r3, #0]
  4069c8:	b01b      	add	sp, #108	; 0x6c
  4069ca:	e8bd 8ff0 	ldmia.w	sp!, {r4, r5, r6, r7, r8, r9, sl, fp, pc}
  4069ce:	9a0b      	ldr	r2, [sp, #44]	; 0x2c
  4069d0:	2a00      	cmp	r2, #0
  4069d2:	d03e      	beq.n	406a52 <_dtoa_r+0x432>
  4069d4:	9a24      	ldr	r2, [sp, #144]	; 0x90
  4069d6:	2a01      	cmp	r2, #1
  4069d8:	f340 8311 	ble.w	406ffe <_dtoa_r+0x9de>
  4069dc:	9b0a      	ldr	r3, [sp, #40]	; 0x28
  4069de:	9a0c      	ldr	r2, [sp, #48]	; 0x30
  4069e0:	1e5f      	subs	r7, r3, #1
  4069e2:	42ba      	cmp	r2, r7
  4069e4:	f2c0 838f 	blt.w	407106 <_dtoa_r+0xae6>
  4069e8:	1bd7      	subs	r7, r2, r7
  4069ea:	9b0a      	ldr	r3, [sp, #40]	; 0x28
  4069ec:	2b00      	cmp	r3, #0
  4069ee:	f2c0 848b 	blt.w	407308 <_dtoa_r+0xce8>
  4069f2:	9d08      	ldr	r5, [sp, #32]
  4069f4:	9b0a      	ldr	r3, [sp, #40]	; 0x28
  4069f6:	9a08      	ldr	r2, [sp, #32]
  4069f8:	441a      	add	r2, r3
  4069fa:	9208      	str	r2, [sp, #32]
  4069fc:	9a06      	ldr	r2, [sp, #24]
  4069fe:	2101      	movs	r1, #1
  406a00:	441a      	add	r2, r3
  406a02:	4620      	mov	r0, r4
  406a04:	9206      	str	r2, [sp, #24]
  406a06:	f001 fc07 	bl	408218 <__i2b>
  406a0a:	4606      	mov	r6, r0
  406a0c:	e024      	b.n	406a58 <_dtoa_r+0x438>
  406a0e:	2301      	movs	r3, #1
  406a10:	930e      	str	r3, [sp, #56]	; 0x38
  406a12:	e6af      	b.n	406774 <_dtoa_r+0x154>
  406a14:	9a08      	ldr	r2, [sp, #32]
  406a16:	9b02      	ldr	r3, [sp, #8]
  406a18:	1ad2      	subs	r2, r2, r3
  406a1a:	425b      	negs	r3, r3
  406a1c:	930c      	str	r3, [sp, #48]	; 0x30
  406a1e:	2300      	movs	r3, #0
  406a20:	9208      	str	r2, [sp, #32]
  406a22:	930d      	str	r3, [sp, #52]	; 0x34
  406a24:	e6b8      	b.n	406798 <_dtoa_r+0x178>
  406a26:	f1c7 0301 	rsb	r3, r7, #1
  406a2a:	9308      	str	r3, [sp, #32]
  406a2c:	2300      	movs	r3, #0
  406a2e:	9306      	str	r3, [sp, #24]
  406a30:	e6a7      	b.n	406782 <_dtoa_r+0x162>
  406a32:	9d02      	ldr	r5, [sp, #8]
  406a34:	4628      	mov	r0, r5
  406a36:	f002 fbe1 	bl	4091fc <__aeabi_i2d>
  406a3a:	4602      	mov	r2, r0
  406a3c:	460b      	mov	r3, r1
  406a3e:	e9dd 0104 	ldrd	r0, r1, [sp, #16]
  406a42:	f002 fea9 	bl	409798 <__aeabi_dcmpeq>
  406a46:	2800      	cmp	r0, #0
  406a48:	f47f ae80 	bne.w	40674c <_dtoa_r+0x12c>
  406a4c:	1e6b      	subs	r3, r5, #1
  406a4e:	9302      	str	r3, [sp, #8]
  406a50:	e67c      	b.n	40674c <_dtoa_r+0x12c>
  406a52:	9f0c      	ldr	r7, [sp, #48]	; 0x30
  406a54:	9d08      	ldr	r5, [sp, #32]
  406a56:	9e0b      	ldr	r6, [sp, #44]	; 0x2c
  406a58:	2d00      	cmp	r5, #0
  406a5a:	dd0c      	ble.n	406a76 <_dtoa_r+0x456>
  406a5c:	9906      	ldr	r1, [sp, #24]
  406a5e:	2900      	cmp	r1, #0
  406a60:	460b      	mov	r3, r1
  406a62:	dd08      	ble.n	406a76 <_dtoa_r+0x456>
  406a64:	42a9      	cmp	r1, r5
  406a66:	9a08      	ldr	r2, [sp, #32]
  406a68:	bfa8      	it	ge
  406a6a:	462b      	movge	r3, r5
  406a6c:	1ad2      	subs	r2, r2, r3
  406a6e:	1aed      	subs	r5, r5, r3
  406a70:	1acb      	subs	r3, r1, r3
  406a72:	9208      	str	r2, [sp, #32]
  406a74:	9306      	str	r3, [sp, #24]
  406a76:	9b0c      	ldr	r3, [sp, #48]	; 0x30
  406a78:	b1d3      	cbz	r3, 406ab0 <_dtoa_r+0x490>
  406a7a:	9b0b      	ldr	r3, [sp, #44]	; 0x2c
  406a7c:	2b00      	cmp	r3, #0
  406a7e:	f000 82b7 	beq.w	406ff0 <_dtoa_r+0x9d0>
  406a82:	2f00      	cmp	r7, #0
  406a84:	dd10      	ble.n	406aa8 <_dtoa_r+0x488>
  406a86:	4631      	mov	r1, r6
  406a88:	463a      	mov	r2, r7
  406a8a:	4620      	mov	r0, r4
  406a8c:	f001 fc60 	bl	408350 <__pow5mult>
  406a90:	464a      	mov	r2, r9
  406a92:	4601      	mov	r1, r0
  406a94:	4606      	mov	r6, r0
  406a96:	4620      	mov	r0, r4
  406a98:	f001 fbc8 	bl	40822c <__multiply>
  406a9c:	4649      	mov	r1, r9
  406a9e:	4680      	mov	r8, r0
  406aa0:	4620      	mov	r0, r4
  406aa2:	f001 fb1f 	bl	4080e4 <_Bfree>
  406aa6:	46c1      	mov	r9, r8
  406aa8:	9b0c      	ldr	r3, [sp, #48]	; 0x30
  406aaa:	1bda      	subs	r2, r3, r7
  406aac:	f040 82a1 	bne.w	406ff2 <_dtoa_r+0x9d2>
  406ab0:	2101      	movs	r1, #1
  406ab2:	4620      	mov	r0, r4
  406ab4:	f001 fbb0 	bl	408218 <__i2b>
  406ab8:	9b0d      	ldr	r3, [sp, #52]	; 0x34
  406aba:	2b00      	cmp	r3, #0
  406abc:	4680      	mov	r8, r0
  406abe:	dd1c      	ble.n	406afa <_dtoa_r+0x4da>
  406ac0:	4601      	mov	r1, r0
  406ac2:	461a      	mov	r2, r3
  406ac4:	4620      	mov	r0, r4
  406ac6:	f001 fc43 	bl	408350 <__pow5mult>
  406aca:	9b24      	ldr	r3, [sp, #144]	; 0x90
  406acc:	2b01      	cmp	r3, #1
  406ace:	4680      	mov	r8, r0
  406ad0:	f340 8254 	ble.w	406f7c <_dtoa_r+0x95c>
  406ad4:	2300      	movs	r3, #0
  406ad6:	930c      	str	r3, [sp, #48]	; 0x30
  406ad8:	f8d8 3010 	ldr.w	r3, [r8, #16]
  406adc:	eb08 0383 	add.w	r3, r8, r3, lsl #2
  406ae0:	6918      	ldr	r0, [r3, #16]
  406ae2:	f001 fb49 	bl	408178 <__hi0bits>
  406ae6:	f1c0 0020 	rsb	r0, r0, #32
  406aea:	e010      	b.n	406b0e <_dtoa_r+0x4ee>
  406aec:	f1c3 0520 	rsb	r5, r3, #32
  406af0:	fa0a f005 	lsl.w	r0, sl, r5
  406af4:	e674      	b.n	4067e0 <_dtoa_r+0x1c0>
  406af6:	900e      	str	r0, [sp, #56]	; 0x38
  406af8:	e63c      	b.n	406774 <_dtoa_r+0x154>
  406afa:	9b24      	ldr	r3, [sp, #144]	; 0x90
  406afc:	2b01      	cmp	r3, #1
  406afe:	f340 8287 	ble.w	407010 <_dtoa_r+0x9f0>
  406b02:	2300      	movs	r3, #0
  406b04:	930c      	str	r3, [sp, #48]	; 0x30
  406b06:	9b0d      	ldr	r3, [sp, #52]	; 0x34
  406b08:	2001      	movs	r0, #1
  406b0a:	2b00      	cmp	r3, #0
  406b0c:	d1e4      	bne.n	406ad8 <_dtoa_r+0x4b8>
  406b0e:	9a06      	ldr	r2, [sp, #24]
  406b10:	4410      	add	r0, r2
  406b12:	f010 001f 	ands.w	r0, r0, #31
  406b16:	f000 80a1 	beq.w	406c5c <_dtoa_r+0x63c>
  406b1a:	f1c0 0320 	rsb	r3, r0, #32
  406b1e:	2b04      	cmp	r3, #4
  406b20:	f340 849e 	ble.w	407460 <_dtoa_r+0xe40>
  406b24:	9b08      	ldr	r3, [sp, #32]
  406b26:	f1c0 001c 	rsb	r0, r0, #28
  406b2a:	4403      	add	r3, r0
  406b2c:	9308      	str	r3, [sp, #32]
  406b2e:	4613      	mov	r3, r2
  406b30:	4403      	add	r3, r0
  406b32:	4405      	add	r5, r0
  406b34:	9306      	str	r3, [sp, #24]
  406b36:	9b08      	ldr	r3, [sp, #32]
  406b38:	2b00      	cmp	r3, #0
  406b3a:	dd05      	ble.n	406b48 <_dtoa_r+0x528>
  406b3c:	4649      	mov	r1, r9
  406b3e:	461a      	mov	r2, r3
  406b40:	4620      	mov	r0, r4
  406b42:	f001 fc55 	bl	4083f0 <__lshift>
  406b46:	4681      	mov	r9, r0
  406b48:	9b06      	ldr	r3, [sp, #24]
  406b4a:	2b00      	cmp	r3, #0
  406b4c:	dd05      	ble.n	406b5a <_dtoa_r+0x53a>
  406b4e:	4641      	mov	r1, r8
  406b50:	461a      	mov	r2, r3
  406b52:	4620      	mov	r0, r4
  406b54:	f001 fc4c 	bl	4083f0 <__lshift>
  406b58:	4680      	mov	r8, r0
  406b5a:	9b0e      	ldr	r3, [sp, #56]	; 0x38
  406b5c:	2b00      	cmp	r3, #0
  406b5e:	f040 8086 	bne.w	406c6e <_dtoa_r+0x64e>
  406b62:	9b0a      	ldr	r3, [sp, #40]	; 0x28
  406b64:	2b00      	cmp	r3, #0
  406b66:	f340 8266 	ble.w	407036 <_dtoa_r+0xa16>
  406b6a:	9b0b      	ldr	r3, [sp, #44]	; 0x2c
  406b6c:	2b00      	cmp	r3, #0
  406b6e:	f000 8098 	beq.w	406ca2 <_dtoa_r+0x682>
  406b72:	2d00      	cmp	r5, #0
  406b74:	dd05      	ble.n	406b82 <_dtoa_r+0x562>
  406b76:	4631      	mov	r1, r6
  406b78:	462a      	mov	r2, r5
  406b7a:	4620      	mov	r0, r4
  406b7c:	f001 fc38 	bl	4083f0 <__lshift>
  406b80:	4606      	mov	r6, r0
  406b82:	9b0c      	ldr	r3, [sp, #48]	; 0x30
  406b84:	2b00      	cmp	r3, #0
  406b86:	f040 8337 	bne.w	4071f8 <_dtoa_r+0xbd8>
  406b8a:	9606      	str	r6, [sp, #24]
  406b8c:	9b0a      	ldr	r3, [sp, #40]	; 0x28
  406b8e:	9a04      	ldr	r2, [sp, #16]
  406b90:	f8dd b018 	ldr.w	fp, [sp, #24]
  406b94:	3b01      	subs	r3, #1
  406b96:	18d3      	adds	r3, r2, r3
  406b98:	930b      	str	r3, [sp, #44]	; 0x2c
  406b9a:	f00a 0301 	and.w	r3, sl, #1
  406b9e:	930c      	str	r3, [sp, #48]	; 0x30
  406ba0:	4617      	mov	r7, r2
  406ba2:	46c2      	mov	sl, r8
  406ba4:	4651      	mov	r1, sl
  406ba6:	4648      	mov	r0, r9
  406ba8:	f7ff fca4 	bl	4064f4 <quorem>
  406bac:	4631      	mov	r1, r6
  406bae:	4605      	mov	r5, r0
  406bb0:	4648      	mov	r0, r9
  406bb2:	f001 fc6f 	bl	408494 <__mcmp>
  406bb6:	465a      	mov	r2, fp
  406bb8:	900a      	str	r0, [sp, #40]	; 0x28
  406bba:	4651      	mov	r1, sl
  406bbc:	4620      	mov	r0, r4
  406bbe:	f001 fc85 	bl	4084cc <__mdiff>
  406bc2:	68c2      	ldr	r2, [r0, #12]
  406bc4:	4680      	mov	r8, r0
  406bc6:	f105 0330 	add.w	r3, r5, #48	; 0x30
  406bca:	2a00      	cmp	r2, #0
  406bcc:	f040 822b 	bne.w	407026 <_dtoa_r+0xa06>
  406bd0:	4601      	mov	r1, r0
  406bd2:	4648      	mov	r0, r9
  406bd4:	9308      	str	r3, [sp, #32]
  406bd6:	f001 fc5d 	bl	408494 <__mcmp>
  406bda:	4641      	mov	r1, r8
  406bdc:	9006      	str	r0, [sp, #24]
  406bde:	4620      	mov	r0, r4
  406be0:	f001 fa80 	bl	4080e4 <_Bfree>
  406be4:	9a06      	ldr	r2, [sp, #24]
  406be6:	9b08      	ldr	r3, [sp, #32]
  406be8:	b932      	cbnz	r2, 406bf8 <_dtoa_r+0x5d8>
  406bea:	9924      	ldr	r1, [sp, #144]	; 0x90
  406bec:	b921      	cbnz	r1, 406bf8 <_dtoa_r+0x5d8>
  406bee:	9a0c      	ldr	r2, [sp, #48]	; 0x30
  406bf0:	2a00      	cmp	r2, #0
  406bf2:	f000 83ef 	beq.w	4073d4 <_dtoa_r+0xdb4>
  406bf6:	9a24      	ldr	r2, [sp, #144]	; 0x90
  406bf8:	990a      	ldr	r1, [sp, #40]	; 0x28
  406bfa:	2900      	cmp	r1, #0
  406bfc:	f2c0 829f 	blt.w	40713e <_dtoa_r+0xb1e>
  406c00:	d105      	bne.n	406c0e <_dtoa_r+0x5ee>
  406c02:	9924      	ldr	r1, [sp, #144]	; 0x90
  406c04:	b919      	cbnz	r1, 406c0e <_dtoa_r+0x5ee>
  406c06:	990c      	ldr	r1, [sp, #48]	; 0x30
  406c08:	2900      	cmp	r1, #0
  406c0a:	f000 8298 	beq.w	40713e <_dtoa_r+0xb1e>
  406c0e:	2a00      	cmp	r2, #0
  406c10:	f300 8306 	bgt.w	407220 <_dtoa_r+0xc00>
  406c14:	9a0b      	ldr	r2, [sp, #44]	; 0x2c
  406c16:	703b      	strb	r3, [r7, #0]
  406c18:	f107 0801 	add.w	r8, r7, #1
  406c1c:	4297      	cmp	r7, r2
  406c1e:	4645      	mov	r5, r8
  406c20:	f000 830c 	beq.w	40723c <_dtoa_r+0xc1c>
  406c24:	4649      	mov	r1, r9
  406c26:	2300      	movs	r3, #0
  406c28:	220a      	movs	r2, #10
  406c2a:	4620      	mov	r0, r4
  406c2c:	f001 fa64 	bl	4080f8 <__multadd>
  406c30:	455e      	cmp	r6, fp
  406c32:	4681      	mov	r9, r0
  406c34:	4631      	mov	r1, r6
  406c36:	f04f 0300 	mov.w	r3, #0
  406c3a:	f04f 020a 	mov.w	r2, #10
  406c3e:	4620      	mov	r0, r4
  406c40:	f000 81eb 	beq.w	40701a <_dtoa_r+0x9fa>
  406c44:	f001 fa58 	bl	4080f8 <__multadd>
  406c48:	4659      	mov	r1, fp
  406c4a:	4606      	mov	r6, r0
  406c4c:	2300      	movs	r3, #0
  406c4e:	220a      	movs	r2, #10
  406c50:	4620      	mov	r0, r4
  406c52:	f001 fa51 	bl	4080f8 <__multadd>
  406c56:	4647      	mov	r7, r8
  406c58:	4683      	mov	fp, r0
  406c5a:	e7a3      	b.n	406ba4 <_dtoa_r+0x584>
  406c5c:	201c      	movs	r0, #28
  406c5e:	9b08      	ldr	r3, [sp, #32]
  406c60:	4403      	add	r3, r0
  406c62:	9308      	str	r3, [sp, #32]
  406c64:	9b06      	ldr	r3, [sp, #24]
  406c66:	4403      	add	r3, r0
  406c68:	4405      	add	r5, r0
  406c6a:	9306      	str	r3, [sp, #24]
  406c6c:	e763      	b.n	406b36 <_dtoa_r+0x516>
  406c6e:	4641      	mov	r1, r8
  406c70:	4648      	mov	r0, r9
  406c72:	f001 fc0f 	bl	408494 <__mcmp>
  406c76:	2800      	cmp	r0, #0
  406c78:	f6bf af73 	bge.w	406b62 <_dtoa_r+0x542>
  406c7c:	9f02      	ldr	r7, [sp, #8]
  406c7e:	4649      	mov	r1, r9
  406c80:	2300      	movs	r3, #0
  406c82:	220a      	movs	r2, #10
  406c84:	4620      	mov	r0, r4
  406c86:	3f01      	subs	r7, #1
  406c88:	9702      	str	r7, [sp, #8]
  406c8a:	f001 fa35 	bl	4080f8 <__multadd>
  406c8e:	9b0b      	ldr	r3, [sp, #44]	; 0x2c
  406c90:	4681      	mov	r9, r0
  406c92:	2b00      	cmp	r3, #0
  406c94:	f040 83b6 	bne.w	407404 <_dtoa_r+0xde4>
  406c98:	9b0f      	ldr	r3, [sp, #60]	; 0x3c
  406c9a:	2b00      	cmp	r3, #0
  406c9c:	f340 83bf 	ble.w	40741e <_dtoa_r+0xdfe>
  406ca0:	930a      	str	r3, [sp, #40]	; 0x28
  406ca2:	f8dd b010 	ldr.w	fp, [sp, #16]
  406ca6:	9f0a      	ldr	r7, [sp, #40]	; 0x28
  406ca8:	465d      	mov	r5, fp
  406caa:	e002      	b.n	406cb2 <_dtoa_r+0x692>
  406cac:	f001 fa24 	bl	4080f8 <__multadd>
  406cb0:	4681      	mov	r9, r0
  406cb2:	4641      	mov	r1, r8
  406cb4:	4648      	mov	r0, r9
  406cb6:	f7ff fc1d 	bl	4064f4 <quorem>
  406cba:	f100 0a30 	add.w	sl, r0, #48	; 0x30
  406cbe:	f805 ab01 	strb.w	sl, [r5], #1
  406cc2:	eba5 030b 	sub.w	r3, r5, fp
  406cc6:	42bb      	cmp	r3, r7
  406cc8:	f04f 020a 	mov.w	r2, #10
  406ccc:	f04f 0300 	mov.w	r3, #0
  406cd0:	4649      	mov	r1, r9
  406cd2:	4620      	mov	r0, r4
  406cd4:	dbea      	blt.n	406cac <_dtoa_r+0x68c>
  406cd6:	9b04      	ldr	r3, [sp, #16]
  406cd8:	9a0a      	ldr	r2, [sp, #40]	; 0x28
  406cda:	2a01      	cmp	r2, #1
  406cdc:	bfac      	ite	ge
  406cde:	189b      	addge	r3, r3, r2
  406ce0:	3301      	addlt	r3, #1
  406ce2:	461d      	mov	r5, r3
  406ce4:	f04f 0b00 	mov.w	fp, #0
  406ce8:	4649      	mov	r1, r9
  406cea:	2201      	movs	r2, #1
  406cec:	4620      	mov	r0, r4
  406cee:	f001 fb7f 	bl	4083f0 <__lshift>
  406cf2:	4641      	mov	r1, r8
  406cf4:	4681      	mov	r9, r0
  406cf6:	f001 fbcd 	bl	408494 <__mcmp>
  406cfa:	2800      	cmp	r0, #0
  406cfc:	f340 823d 	ble.w	40717a <_dtoa_r+0xb5a>
  406d00:	f815 2c01 	ldrb.w	r2, [r5, #-1]
  406d04:	9904      	ldr	r1, [sp, #16]
  406d06:	1e6b      	subs	r3, r5, #1
  406d08:	e004      	b.n	406d14 <_dtoa_r+0x6f4>
  406d0a:	428b      	cmp	r3, r1
  406d0c:	f000 81ae 	beq.w	40706c <_dtoa_r+0xa4c>
  406d10:	f813 2d01 	ldrb.w	r2, [r3, #-1]!
  406d14:	2a39      	cmp	r2, #57	; 0x39
  406d16:	f103 0501 	add.w	r5, r3, #1
  406d1a:	d0f6      	beq.n	406d0a <_dtoa_r+0x6ea>
  406d1c:	3201      	adds	r2, #1
  406d1e:	701a      	strb	r2, [r3, #0]
  406d20:	4641      	mov	r1, r8
  406d22:	4620      	mov	r0, r4
  406d24:	f001 f9de 	bl	4080e4 <_Bfree>
  406d28:	2e00      	cmp	r6, #0
  406d2a:	f43f ae3d 	beq.w	4069a8 <_dtoa_r+0x388>
  406d2e:	f1bb 0f00 	cmp.w	fp, #0
  406d32:	d005      	beq.n	406d40 <_dtoa_r+0x720>
  406d34:	45b3      	cmp	fp, r6
  406d36:	d003      	beq.n	406d40 <_dtoa_r+0x720>
  406d38:	4659      	mov	r1, fp
  406d3a:	4620      	mov	r0, r4
  406d3c:	f001 f9d2 	bl	4080e4 <_Bfree>
  406d40:	4631      	mov	r1, r6
  406d42:	4620      	mov	r0, r4
  406d44:	f001 f9ce 	bl	4080e4 <_Bfree>
  406d48:	e62e      	b.n	4069a8 <_dtoa_r+0x388>
  406d4a:	2300      	movs	r3, #0
  406d4c:	930b      	str	r3, [sp, #44]	; 0x2c
  406d4e:	9b02      	ldr	r3, [sp, #8]
  406d50:	9a25      	ldr	r2, [sp, #148]	; 0x94
  406d52:	4413      	add	r3, r2
  406d54:	930f      	str	r3, [sp, #60]	; 0x3c
  406d56:	3301      	adds	r3, #1
  406d58:	2b01      	cmp	r3, #1
  406d5a:	461f      	mov	r7, r3
  406d5c:	461e      	mov	r6, r3
  406d5e:	930a      	str	r3, [sp, #40]	; 0x28
  406d60:	bfb8      	it	lt
  406d62:	2701      	movlt	r7, #1
  406d64:	2100      	movs	r1, #0
  406d66:	2f17      	cmp	r7, #23
  406d68:	6461      	str	r1, [r4, #68]	; 0x44
  406d6a:	d90a      	bls.n	406d82 <_dtoa_r+0x762>
  406d6c:	2201      	movs	r2, #1
  406d6e:	2304      	movs	r3, #4
  406d70:	005b      	lsls	r3, r3, #1
  406d72:	f103 0014 	add.w	r0, r3, #20
  406d76:	4287      	cmp	r7, r0
  406d78:	4611      	mov	r1, r2
  406d7a:	f102 0201 	add.w	r2, r2, #1
  406d7e:	d2f7      	bcs.n	406d70 <_dtoa_r+0x750>
  406d80:	6461      	str	r1, [r4, #68]	; 0x44
  406d82:	4620      	mov	r0, r4
  406d84:	f001 f988 	bl	408098 <_Balloc>
  406d88:	2e0e      	cmp	r6, #14
  406d8a:	9004      	str	r0, [sp, #16]
  406d8c:	6420      	str	r0, [r4, #64]	; 0x40
  406d8e:	f63f ad41 	bhi.w	406814 <_dtoa_r+0x1f4>
  406d92:	2d00      	cmp	r5, #0
  406d94:	f43f ad3e 	beq.w	406814 <_dtoa_r+0x1f4>
  406d98:	9902      	ldr	r1, [sp, #8]
  406d9a:	2900      	cmp	r1, #0
  406d9c:	e9cd ab10 	strd	sl, fp, [sp, #64]	; 0x40
  406da0:	f340 8202 	ble.w	4071a8 <_dtoa_r+0xb88>
  406da4:	4bb8      	ldr	r3, [pc, #736]	; (407088 <_dtoa_r+0xa68>)
  406da6:	f001 020f 	and.w	r2, r1, #15
  406daa:	110d      	asrs	r5, r1, #4
  406dac:	eb03 03c2 	add.w	r3, r3, r2, lsl #3
  406db0:	06e9      	lsls	r1, r5, #27
  406db2:	e9d3 6700 	ldrd	r6, r7, [r3]
  406db6:	f140 81ae 	bpl.w	407116 <_dtoa_r+0xaf6>
  406dba:	4bb4      	ldr	r3, [pc, #720]	; (40708c <_dtoa_r+0xa6c>)
  406dbc:	4650      	mov	r0, sl
  406dbe:	4659      	mov	r1, fp
  406dc0:	e9d3 2308 	ldrd	r2, r3, [r3, #32]
  406dc4:	f002 fbaa 	bl	40951c <__aeabi_ddiv>
  406dc8:	e9cd 0112 	strd	r0, r1, [sp, #72]	; 0x48
  406dcc:	f005 050f 	and.w	r5, r5, #15
  406dd0:	f04f 0a03 	mov.w	sl, #3
  406dd4:	b18d      	cbz	r5, 406dfa <_dtoa_r+0x7da>
  406dd6:	f8df 82b4 	ldr.w	r8, [pc, #692]	; 40708c <_dtoa_r+0xa6c>
  406dda:	07ea      	lsls	r2, r5, #31
  406ddc:	d509      	bpl.n	406df2 <_dtoa_r+0x7d2>
  406dde:	4630      	mov	r0, r6
  406de0:	4639      	mov	r1, r7
  406de2:	e9d8 2300 	ldrd	r2, r3, [r8]
  406de6:	f002 fa6f 	bl	4092c8 <__aeabi_dmul>
  406dea:	f10a 0a01 	add.w	sl, sl, #1
  406dee:	4606      	mov	r6, r0
  406df0:	460f      	mov	r7, r1
  406df2:	106d      	asrs	r5, r5, #1
  406df4:	f108 0808 	add.w	r8, r8, #8
  406df8:	d1ef      	bne.n	406dda <_dtoa_r+0x7ba>
  406dfa:	463b      	mov	r3, r7
  406dfc:	4632      	mov	r2, r6
  406dfe:	e9dd 0112 	ldrd	r0, r1, [sp, #72]	; 0x48
  406e02:	f002 fb8b 	bl	40951c <__aeabi_ddiv>
  406e06:	4607      	mov	r7, r0
  406e08:	4688      	mov	r8, r1
  406e0a:	9b0e      	ldr	r3, [sp, #56]	; 0x38
  406e0c:	b143      	cbz	r3, 406e20 <_dtoa_r+0x800>
  406e0e:	2200      	movs	r2, #0
  406e10:	4b9f      	ldr	r3, [pc, #636]	; (407090 <_dtoa_r+0xa70>)
  406e12:	4638      	mov	r0, r7
  406e14:	4641      	mov	r1, r8
  406e16:	f002 fcc9 	bl	4097ac <__aeabi_dcmplt>
  406e1a:	2800      	cmp	r0, #0
  406e1c:	f040 8286 	bne.w	40732c <_dtoa_r+0xd0c>
  406e20:	4650      	mov	r0, sl
  406e22:	f002 f9eb 	bl	4091fc <__aeabi_i2d>
  406e26:	463a      	mov	r2, r7
  406e28:	4643      	mov	r3, r8
  406e2a:	f002 fa4d 	bl	4092c8 <__aeabi_dmul>
  406e2e:	4b99      	ldr	r3, [pc, #612]	; (407094 <_dtoa_r+0xa74>)
  406e30:	2200      	movs	r2, #0
  406e32:	f002 f897 	bl	408f64 <__adddf3>
  406e36:	9b0a      	ldr	r3, [sp, #40]	; 0x28
  406e38:	4605      	mov	r5, r0
  406e3a:	f1a1 7650 	sub.w	r6, r1, #54525952	; 0x3400000
  406e3e:	2b00      	cmp	r3, #0
  406e40:	f000 813e 	beq.w	4070c0 <_dtoa_r+0xaa0>
  406e44:	9b02      	ldr	r3, [sp, #8]
  406e46:	9315      	str	r3, [sp, #84]	; 0x54
  406e48:	9b0a      	ldr	r3, [sp, #40]	; 0x28
  406e4a:	9312      	str	r3, [sp, #72]	; 0x48
  406e4c:	9b0b      	ldr	r3, [sp, #44]	; 0x2c
  406e4e:	2b00      	cmp	r3, #0
  406e50:	f000 81fa 	beq.w	407248 <_dtoa_r+0xc28>
  406e54:	9a12      	ldr	r2, [sp, #72]	; 0x48
  406e56:	4b8c      	ldr	r3, [pc, #560]	; (407088 <_dtoa_r+0xa68>)
  406e58:	498f      	ldr	r1, [pc, #572]	; (407098 <_dtoa_r+0xa78>)
  406e5a:	eb03 03c2 	add.w	r3, r3, r2, lsl #3
  406e5e:	e953 2302 	ldrd	r2, r3, [r3, #-8]
  406e62:	2000      	movs	r0, #0
  406e64:	f002 fb5a 	bl	40951c <__aeabi_ddiv>
  406e68:	462a      	mov	r2, r5
  406e6a:	4633      	mov	r3, r6
  406e6c:	f002 f878 	bl	408f60 <__aeabi_dsub>
  406e70:	4682      	mov	sl, r0
  406e72:	468b      	mov	fp, r1
  406e74:	4638      	mov	r0, r7
  406e76:	4641      	mov	r1, r8
  406e78:	f002 fcd6 	bl	409828 <__aeabi_d2iz>
  406e7c:	4605      	mov	r5, r0
  406e7e:	f002 f9bd 	bl	4091fc <__aeabi_i2d>
  406e82:	4602      	mov	r2, r0
  406e84:	460b      	mov	r3, r1
  406e86:	4638      	mov	r0, r7
  406e88:	4641      	mov	r1, r8
  406e8a:	f002 f869 	bl	408f60 <__aeabi_dsub>
  406e8e:	3530      	adds	r5, #48	; 0x30
  406e90:	fa5f f885 	uxtb.w	r8, r5
  406e94:	9d04      	ldr	r5, [sp, #16]
  406e96:	4606      	mov	r6, r0
  406e98:	460f      	mov	r7, r1
  406e9a:	f885 8000 	strb.w	r8, [r5]
  406e9e:	4602      	mov	r2, r0
  406ea0:	460b      	mov	r3, r1
  406ea2:	4650      	mov	r0, sl
  406ea4:	4659      	mov	r1, fp
  406ea6:	3501      	adds	r5, #1
  406ea8:	f002 fc9e 	bl	4097e8 <__aeabi_dcmpgt>
  406eac:	2800      	cmp	r0, #0
  406eae:	d154      	bne.n	406f5a <_dtoa_r+0x93a>
  406eb0:	4632      	mov	r2, r6
  406eb2:	463b      	mov	r3, r7
  406eb4:	2000      	movs	r0, #0
  406eb6:	4976      	ldr	r1, [pc, #472]	; (407090 <_dtoa_r+0xa70>)
  406eb8:	f002 f852 	bl	408f60 <__aeabi_dsub>
  406ebc:	4602      	mov	r2, r0
  406ebe:	460b      	mov	r3, r1
  406ec0:	4650      	mov	r0, sl
  406ec2:	4659      	mov	r1, fp
  406ec4:	f002 fc90 	bl	4097e8 <__aeabi_dcmpgt>
  406ec8:	2800      	cmp	r0, #0
  406eca:	f040 8270 	bne.w	4073ae <_dtoa_r+0xd8e>
  406ece:	9a12      	ldr	r2, [sp, #72]	; 0x48
  406ed0:	2a01      	cmp	r2, #1
  406ed2:	f000 8111 	beq.w	4070f8 <_dtoa_r+0xad8>
  406ed6:	9b12      	ldr	r3, [sp, #72]	; 0x48
  406ed8:	9a04      	ldr	r2, [sp, #16]
  406eda:	f8cd 9048 	str.w	r9, [sp, #72]	; 0x48
  406ede:	4413      	add	r3, r2
  406ee0:	4699      	mov	r9, r3
  406ee2:	e00d      	b.n	406f00 <_dtoa_r+0x8e0>
  406ee4:	2000      	movs	r0, #0
  406ee6:	496a      	ldr	r1, [pc, #424]	; (407090 <_dtoa_r+0xa70>)
  406ee8:	f002 f83a 	bl	408f60 <__aeabi_dsub>
  406eec:	4652      	mov	r2, sl
  406eee:	465b      	mov	r3, fp
  406ef0:	f002 fc5c 	bl	4097ac <__aeabi_dcmplt>
  406ef4:	2800      	cmp	r0, #0
  406ef6:	f040 8258 	bne.w	4073aa <_dtoa_r+0xd8a>
  406efa:	454d      	cmp	r5, r9
  406efc:	f000 80fa 	beq.w	4070f4 <_dtoa_r+0xad4>
  406f00:	4650      	mov	r0, sl
  406f02:	4659      	mov	r1, fp
  406f04:	2200      	movs	r2, #0
  406f06:	4b65      	ldr	r3, [pc, #404]	; (40709c <_dtoa_r+0xa7c>)
  406f08:	f002 f9de 	bl	4092c8 <__aeabi_dmul>
  406f0c:	2200      	movs	r2, #0
  406f0e:	4b63      	ldr	r3, [pc, #396]	; (40709c <_dtoa_r+0xa7c>)
  406f10:	4682      	mov	sl, r0
  406f12:	468b      	mov	fp, r1
  406f14:	4630      	mov	r0, r6
  406f16:	4639      	mov	r1, r7
  406f18:	f002 f9d6 	bl	4092c8 <__aeabi_dmul>
  406f1c:	460f      	mov	r7, r1
  406f1e:	4606      	mov	r6, r0
  406f20:	f002 fc82 	bl	409828 <__aeabi_d2iz>
  406f24:	4680      	mov	r8, r0
  406f26:	f002 f969 	bl	4091fc <__aeabi_i2d>
  406f2a:	4602      	mov	r2, r0
  406f2c:	460b      	mov	r3, r1
  406f2e:	4630      	mov	r0, r6
  406f30:	4639      	mov	r1, r7
  406f32:	f002 f815 	bl	408f60 <__aeabi_dsub>
  406f36:	f108 0830 	add.w	r8, r8, #48	; 0x30
  406f3a:	fa5f f888 	uxtb.w	r8, r8
  406f3e:	4652      	mov	r2, sl
  406f40:	465b      	mov	r3, fp
  406f42:	f805 8b01 	strb.w	r8, [r5], #1
  406f46:	4606      	mov	r6, r0
  406f48:	460f      	mov	r7, r1
  406f4a:	f002 fc2f 	bl	4097ac <__aeabi_dcmplt>
  406f4e:	4632      	mov	r2, r6
  406f50:	463b      	mov	r3, r7
  406f52:	2800      	cmp	r0, #0
  406f54:	d0c6      	beq.n	406ee4 <_dtoa_r+0x8c4>
  406f56:	f8dd 9048 	ldr.w	r9, [sp, #72]	; 0x48
  406f5a:	9b15      	ldr	r3, [sp, #84]	; 0x54
  406f5c:	9302      	str	r3, [sp, #8]
  406f5e:	e523      	b.n	4069a8 <_dtoa_r+0x388>
  406f60:	2300      	movs	r3, #0
  406f62:	930b      	str	r3, [sp, #44]	; 0x2c
  406f64:	9b25      	ldr	r3, [sp, #148]	; 0x94
  406f66:	2b00      	cmp	r3, #0
  406f68:	f340 80dc 	ble.w	407124 <_dtoa_r+0xb04>
  406f6c:	461f      	mov	r7, r3
  406f6e:	461e      	mov	r6, r3
  406f70:	930f      	str	r3, [sp, #60]	; 0x3c
  406f72:	930a      	str	r3, [sp, #40]	; 0x28
  406f74:	e6f6      	b.n	406d64 <_dtoa_r+0x744>
  406f76:	2301      	movs	r3, #1
  406f78:	930b      	str	r3, [sp, #44]	; 0x2c
  406f7a:	e7f3      	b.n	406f64 <_dtoa_r+0x944>
  406f7c:	f1ba 0f00 	cmp.w	sl, #0
  406f80:	f47f ada8 	bne.w	406ad4 <_dtoa_r+0x4b4>
  406f84:	f3cb 0313 	ubfx	r3, fp, #0, #20
  406f88:	2b00      	cmp	r3, #0
  406f8a:	f47f adba 	bne.w	406b02 <_dtoa_r+0x4e2>
  406f8e:	f02b 4700 	bic.w	r7, fp, #2147483648	; 0x80000000
  406f92:	0d3f      	lsrs	r7, r7, #20
  406f94:	053f      	lsls	r7, r7, #20
  406f96:	2f00      	cmp	r7, #0
  406f98:	f000 820d 	beq.w	4073b6 <_dtoa_r+0xd96>
  406f9c:	9b08      	ldr	r3, [sp, #32]
  406f9e:	3301      	adds	r3, #1
  406fa0:	9308      	str	r3, [sp, #32]
  406fa2:	9b06      	ldr	r3, [sp, #24]
  406fa4:	3301      	adds	r3, #1
  406fa6:	9306      	str	r3, [sp, #24]
  406fa8:	2301      	movs	r3, #1
  406faa:	930c      	str	r3, [sp, #48]	; 0x30
  406fac:	e5ab      	b.n	406b06 <_dtoa_r+0x4e6>
  406fae:	9b0a      	ldr	r3, [sp, #40]	; 0x28
  406fb0:	2b00      	cmp	r3, #0
  406fb2:	f73f ac42 	bgt.w	40683a <_dtoa_r+0x21a>
  406fb6:	f040 8221 	bne.w	4073fc <_dtoa_r+0xddc>
  406fba:	2200      	movs	r2, #0
  406fbc:	4b38      	ldr	r3, [pc, #224]	; (4070a0 <_dtoa_r+0xa80>)
  406fbe:	e9dd 0108 	ldrd	r0, r1, [sp, #32]
  406fc2:	f002 f981 	bl	4092c8 <__aeabi_dmul>
  406fc6:	4652      	mov	r2, sl
  406fc8:	465b      	mov	r3, fp
  406fca:	f002 fc03 	bl	4097d4 <__aeabi_dcmpge>
  406fce:	f8dd 8028 	ldr.w	r8, [sp, #40]	; 0x28
  406fd2:	4646      	mov	r6, r8
  406fd4:	2800      	cmp	r0, #0
  406fd6:	d041      	beq.n	40705c <_dtoa_r+0xa3c>
  406fd8:	9b25      	ldr	r3, [sp, #148]	; 0x94
  406fda:	9d04      	ldr	r5, [sp, #16]
  406fdc:	43db      	mvns	r3, r3
  406fde:	9302      	str	r3, [sp, #8]
  406fe0:	4641      	mov	r1, r8
  406fe2:	4620      	mov	r0, r4
  406fe4:	f001 f87e 	bl	4080e4 <_Bfree>
  406fe8:	2e00      	cmp	r6, #0
  406fea:	f43f acdd 	beq.w	4069a8 <_dtoa_r+0x388>
  406fee:	e6a7      	b.n	406d40 <_dtoa_r+0x720>
  406ff0:	9a0c      	ldr	r2, [sp, #48]	; 0x30
  406ff2:	4649      	mov	r1, r9
  406ff4:	4620      	mov	r0, r4
  406ff6:	f001 f9ab 	bl	408350 <__pow5mult>
  406ffa:	4681      	mov	r9, r0
  406ffc:	e558      	b.n	406ab0 <_dtoa_r+0x490>
  406ffe:	9a14      	ldr	r2, [sp, #80]	; 0x50
  407000:	2a00      	cmp	r2, #0
  407002:	f000 8187 	beq.w	407314 <_dtoa_r+0xcf4>
  407006:	f203 4333 	addw	r3, r3, #1075	; 0x433
  40700a:	9f0c      	ldr	r7, [sp, #48]	; 0x30
  40700c:	9d08      	ldr	r5, [sp, #32]
  40700e:	e4f2      	b.n	4069f6 <_dtoa_r+0x3d6>
  407010:	f1ba 0f00 	cmp.w	sl, #0
  407014:	f47f ad75 	bne.w	406b02 <_dtoa_r+0x4e2>
  407018:	e7b4      	b.n	406f84 <_dtoa_r+0x964>
  40701a:	f001 f86d 	bl	4080f8 <__multadd>
  40701e:	4647      	mov	r7, r8
  407020:	4606      	mov	r6, r0
  407022:	4683      	mov	fp, r0
  407024:	e5be      	b.n	406ba4 <_dtoa_r+0x584>
  407026:	4601      	mov	r1, r0
  407028:	4620      	mov	r0, r4
  40702a:	9306      	str	r3, [sp, #24]
  40702c:	f001 f85a 	bl	4080e4 <_Bfree>
  407030:	2201      	movs	r2, #1
  407032:	9b06      	ldr	r3, [sp, #24]
  407034:	e5e0      	b.n	406bf8 <_dtoa_r+0x5d8>
  407036:	9b24      	ldr	r3, [sp, #144]	; 0x90
  407038:	2b02      	cmp	r3, #2
  40703a:	f77f ad96 	ble.w	406b6a <_dtoa_r+0x54a>
  40703e:	9b0a      	ldr	r3, [sp, #40]	; 0x28
  407040:	2b00      	cmp	r3, #0
  407042:	d1c9      	bne.n	406fd8 <_dtoa_r+0x9b8>
  407044:	4641      	mov	r1, r8
  407046:	2205      	movs	r2, #5
  407048:	4620      	mov	r0, r4
  40704a:	f001 f855 	bl	4080f8 <__multadd>
  40704e:	4601      	mov	r1, r0
  407050:	4680      	mov	r8, r0
  407052:	4648      	mov	r0, r9
  407054:	f001 fa1e 	bl	408494 <__mcmp>
  407058:	2800      	cmp	r0, #0
  40705a:	ddbd      	ble.n	406fd8 <_dtoa_r+0x9b8>
  40705c:	9a02      	ldr	r2, [sp, #8]
  40705e:	9904      	ldr	r1, [sp, #16]
  407060:	2331      	movs	r3, #49	; 0x31
  407062:	3201      	adds	r2, #1
  407064:	9202      	str	r2, [sp, #8]
  407066:	700b      	strb	r3, [r1, #0]
  407068:	1c4d      	adds	r5, r1, #1
  40706a:	e7b9      	b.n	406fe0 <_dtoa_r+0x9c0>
  40706c:	9a02      	ldr	r2, [sp, #8]
  40706e:	3201      	adds	r2, #1
  407070:	9202      	str	r2, [sp, #8]
  407072:	9a04      	ldr	r2, [sp, #16]
  407074:	2331      	movs	r3, #49	; 0x31
  407076:	7013      	strb	r3, [r2, #0]
  407078:	e652      	b.n	406d20 <_dtoa_r+0x700>
  40707a:	2301      	movs	r3, #1
  40707c:	930b      	str	r3, [sp, #44]	; 0x2c
  40707e:	e666      	b.n	406d4e <_dtoa_r+0x72e>
  407080:	f8dd 902c 	ldr.w	r9, [sp, #44]	; 0x2c
  407084:	9c0c      	ldr	r4, [sp, #48]	; 0x30
  407086:	e48f      	b.n	4069a8 <_dtoa_r+0x388>
  407088:	0040a008 	.word	0x0040a008
  40708c:	00409fe0 	.word	0x00409fe0
  407090:	3ff00000 	.word	0x3ff00000
  407094:	401c0000 	.word	0x401c0000
  407098:	3fe00000 	.word	0x3fe00000
  40709c:	40240000 	.word	0x40240000
  4070a0:	40140000 	.word	0x40140000
  4070a4:	4650      	mov	r0, sl
  4070a6:	f002 f8a9 	bl	4091fc <__aeabi_i2d>
  4070aa:	463a      	mov	r2, r7
  4070ac:	4643      	mov	r3, r8
  4070ae:	f002 f90b 	bl	4092c8 <__aeabi_dmul>
  4070b2:	2200      	movs	r2, #0
  4070b4:	4bc1      	ldr	r3, [pc, #772]	; (4073bc <_dtoa_r+0xd9c>)
  4070b6:	f001 ff55 	bl	408f64 <__adddf3>
  4070ba:	4605      	mov	r5, r0
  4070bc:	f1a1 7650 	sub.w	r6, r1, #54525952	; 0x3400000
  4070c0:	4641      	mov	r1, r8
  4070c2:	2200      	movs	r2, #0
  4070c4:	4bbe      	ldr	r3, [pc, #760]	; (4073c0 <_dtoa_r+0xda0>)
  4070c6:	4638      	mov	r0, r7
  4070c8:	f001 ff4a 	bl	408f60 <__aeabi_dsub>
  4070cc:	462a      	mov	r2, r5
  4070ce:	4633      	mov	r3, r6
  4070d0:	4682      	mov	sl, r0
  4070d2:	468b      	mov	fp, r1
  4070d4:	f002 fb88 	bl	4097e8 <__aeabi_dcmpgt>
  4070d8:	4680      	mov	r8, r0
  4070da:	2800      	cmp	r0, #0
  4070dc:	f040 8110 	bne.w	407300 <_dtoa_r+0xce0>
  4070e0:	462a      	mov	r2, r5
  4070e2:	f106 4300 	add.w	r3, r6, #2147483648	; 0x80000000
  4070e6:	4650      	mov	r0, sl
  4070e8:	4659      	mov	r1, fp
  4070ea:	f002 fb5f 	bl	4097ac <__aeabi_dcmplt>
  4070ee:	b118      	cbz	r0, 4070f8 <_dtoa_r+0xad8>
  4070f0:	4646      	mov	r6, r8
  4070f2:	e771      	b.n	406fd8 <_dtoa_r+0x9b8>
  4070f4:	f8dd 9048 	ldr.w	r9, [sp, #72]	; 0x48
  4070f8:	e9dd ab10 	ldrd	sl, fp, [sp, #64]	; 0x40
  4070fc:	f7ff bb8a 	b.w	406814 <_dtoa_r+0x1f4>
  407100:	9804      	ldr	r0, [sp, #16]
  407102:	f7ff babb 	b.w	40667c <_dtoa_r+0x5c>
  407106:	9b0c      	ldr	r3, [sp, #48]	; 0x30
  407108:	9a0d      	ldr	r2, [sp, #52]	; 0x34
  40710a:	970c      	str	r7, [sp, #48]	; 0x30
  40710c:	1afb      	subs	r3, r7, r3
  40710e:	441a      	add	r2, r3
  407110:	920d      	str	r2, [sp, #52]	; 0x34
  407112:	2700      	movs	r7, #0
  407114:	e469      	b.n	4069ea <_dtoa_r+0x3ca>
  407116:	e9dd 2310 	ldrd	r2, r3, [sp, #64]	; 0x40
  40711a:	f04f 0a02 	mov.w	sl, #2
  40711e:	e9cd 2312 	strd	r2, r3, [sp, #72]	; 0x48
  407122:	e657      	b.n	406dd4 <_dtoa_r+0x7b4>
  407124:	2100      	movs	r1, #0
  407126:	2301      	movs	r3, #1
  407128:	6461      	str	r1, [r4, #68]	; 0x44
  40712a:	4620      	mov	r0, r4
  40712c:	9325      	str	r3, [sp, #148]	; 0x94
  40712e:	f000 ffb3 	bl	408098 <_Balloc>
  407132:	9b25      	ldr	r3, [sp, #148]	; 0x94
  407134:	9004      	str	r0, [sp, #16]
  407136:	6420      	str	r0, [r4, #64]	; 0x40
  407138:	930a      	str	r3, [sp, #40]	; 0x28
  40713a:	930f      	str	r3, [sp, #60]	; 0x3c
  40713c:	e629      	b.n	406d92 <_dtoa_r+0x772>
  40713e:	2a00      	cmp	r2, #0
  407140:	46d0      	mov	r8, sl
  407142:	f8cd b018 	str.w	fp, [sp, #24]
  407146:	469a      	mov	sl, r3
  407148:	dd11      	ble.n	40716e <_dtoa_r+0xb4e>
  40714a:	4649      	mov	r1, r9
  40714c:	2201      	movs	r2, #1
  40714e:	4620      	mov	r0, r4
  407150:	f001 f94e 	bl	4083f0 <__lshift>
  407154:	4641      	mov	r1, r8
  407156:	4681      	mov	r9, r0
  407158:	f001 f99c 	bl	408494 <__mcmp>
  40715c:	2800      	cmp	r0, #0
  40715e:	f340 8146 	ble.w	4073ee <_dtoa_r+0xdce>
  407162:	f1ba 0f39 	cmp.w	sl, #57	; 0x39
  407166:	f000 8106 	beq.w	407376 <_dtoa_r+0xd56>
  40716a:	f105 0a31 	add.w	sl, r5, #49	; 0x31
  40716e:	46b3      	mov	fp, r6
  407170:	f887 a000 	strb.w	sl, [r7]
  407174:	1c7d      	adds	r5, r7, #1
  407176:	9e06      	ldr	r6, [sp, #24]
  407178:	e5d2      	b.n	406d20 <_dtoa_r+0x700>
  40717a:	d104      	bne.n	407186 <_dtoa_r+0xb66>
  40717c:	f01a 0f01 	tst.w	sl, #1
  407180:	d001      	beq.n	407186 <_dtoa_r+0xb66>
  407182:	e5bd      	b.n	406d00 <_dtoa_r+0x6e0>
  407184:	4615      	mov	r5, r2
  407186:	f815 3c01 	ldrb.w	r3, [r5, #-1]
  40718a:	2b30      	cmp	r3, #48	; 0x30
  40718c:	f105 32ff 	add.w	r2, r5, #4294967295
  407190:	d0f8      	beq.n	407184 <_dtoa_r+0xb64>
  407192:	e5c5      	b.n	406d20 <_dtoa_r+0x700>
  407194:	9904      	ldr	r1, [sp, #16]
  407196:	2230      	movs	r2, #48	; 0x30
  407198:	700a      	strb	r2, [r1, #0]
  40719a:	9a02      	ldr	r2, [sp, #8]
  40719c:	f815 8c01 	ldrb.w	r8, [r5, #-1]
  4071a0:	3201      	adds	r2, #1
  4071a2:	9202      	str	r2, [sp, #8]
  4071a4:	f7ff bbfc 	b.w	4069a0 <_dtoa_r+0x380>
  4071a8:	f000 80bb 	beq.w	407322 <_dtoa_r+0xd02>
  4071ac:	9b02      	ldr	r3, [sp, #8]
  4071ae:	425d      	negs	r5, r3
  4071b0:	4b84      	ldr	r3, [pc, #528]	; (4073c4 <_dtoa_r+0xda4>)
  4071b2:	f005 020f 	and.w	r2, r5, #15
  4071b6:	eb03 03c2 	add.w	r3, r3, r2, lsl #3
  4071ba:	e9d3 2300 	ldrd	r2, r3, [r3]
  4071be:	e9dd 0110 	ldrd	r0, r1, [sp, #64]	; 0x40
  4071c2:	f002 f881 	bl	4092c8 <__aeabi_dmul>
  4071c6:	112d      	asrs	r5, r5, #4
  4071c8:	4607      	mov	r7, r0
  4071ca:	4688      	mov	r8, r1
  4071cc:	f000 812c 	beq.w	407428 <_dtoa_r+0xe08>
  4071d0:	4e7d      	ldr	r6, [pc, #500]	; (4073c8 <_dtoa_r+0xda8>)
  4071d2:	f04f 0a02 	mov.w	sl, #2
  4071d6:	07eb      	lsls	r3, r5, #31
  4071d8:	d509      	bpl.n	4071ee <_dtoa_r+0xbce>
  4071da:	4638      	mov	r0, r7
  4071dc:	4641      	mov	r1, r8
  4071de:	e9d6 2300 	ldrd	r2, r3, [r6]
  4071e2:	f002 f871 	bl	4092c8 <__aeabi_dmul>
  4071e6:	f10a 0a01 	add.w	sl, sl, #1
  4071ea:	4607      	mov	r7, r0
  4071ec:	4688      	mov	r8, r1
  4071ee:	106d      	asrs	r5, r5, #1
  4071f0:	f106 0608 	add.w	r6, r6, #8
  4071f4:	d1ef      	bne.n	4071d6 <_dtoa_r+0xbb6>
  4071f6:	e608      	b.n	406e0a <_dtoa_r+0x7ea>
  4071f8:	6871      	ldr	r1, [r6, #4]
  4071fa:	4620      	mov	r0, r4
  4071fc:	f000 ff4c 	bl	408098 <_Balloc>
  407200:	6933      	ldr	r3, [r6, #16]
  407202:	3302      	adds	r3, #2
  407204:	009a      	lsls	r2, r3, #2
  407206:	4605      	mov	r5, r0
  407208:	f106 010c 	add.w	r1, r6, #12
  40720c:	300c      	adds	r0, #12
  40720e:	f7fc fd81 	bl	403d14 <memcpy>
  407212:	4629      	mov	r1, r5
  407214:	2201      	movs	r2, #1
  407216:	4620      	mov	r0, r4
  407218:	f001 f8ea 	bl	4083f0 <__lshift>
  40721c:	9006      	str	r0, [sp, #24]
  40721e:	e4b5      	b.n	406b8c <_dtoa_r+0x56c>
  407220:	2b39      	cmp	r3, #57	; 0x39
  407222:	f8cd b018 	str.w	fp, [sp, #24]
  407226:	46d0      	mov	r8, sl
  407228:	f000 80a5 	beq.w	407376 <_dtoa_r+0xd56>
  40722c:	f103 0a01 	add.w	sl, r3, #1
  407230:	46b3      	mov	fp, r6
  407232:	f887 a000 	strb.w	sl, [r7]
  407236:	1c7d      	adds	r5, r7, #1
  407238:	9e06      	ldr	r6, [sp, #24]
  40723a:	e571      	b.n	406d20 <_dtoa_r+0x700>
  40723c:	465a      	mov	r2, fp
  40723e:	46d0      	mov	r8, sl
  407240:	46b3      	mov	fp, r6
  407242:	469a      	mov	sl, r3
  407244:	4616      	mov	r6, r2
  407246:	e54f      	b.n	406ce8 <_dtoa_r+0x6c8>
  407248:	9b12      	ldr	r3, [sp, #72]	; 0x48
  40724a:	495e      	ldr	r1, [pc, #376]	; (4073c4 <_dtoa_r+0xda4>)
  40724c:	eb01 01c3 	add.w	r1, r1, r3, lsl #3
  407250:	462a      	mov	r2, r5
  407252:	4633      	mov	r3, r6
  407254:	e951 0102 	ldrd	r0, r1, [r1, #-8]
  407258:	f002 f836 	bl	4092c8 <__aeabi_dmul>
  40725c:	e9cd 0116 	strd	r0, r1, [sp, #88]	; 0x58
  407260:	4638      	mov	r0, r7
  407262:	4641      	mov	r1, r8
  407264:	f002 fae0 	bl	409828 <__aeabi_d2iz>
  407268:	4605      	mov	r5, r0
  40726a:	f001 ffc7 	bl	4091fc <__aeabi_i2d>
  40726e:	460b      	mov	r3, r1
  407270:	4602      	mov	r2, r0
  407272:	4641      	mov	r1, r8
  407274:	4638      	mov	r0, r7
  407276:	f001 fe73 	bl	408f60 <__aeabi_dsub>
  40727a:	9b12      	ldr	r3, [sp, #72]	; 0x48
  40727c:	460f      	mov	r7, r1
  40727e:	9904      	ldr	r1, [sp, #16]
  407280:	3530      	adds	r5, #48	; 0x30
  407282:	2b01      	cmp	r3, #1
  407284:	700d      	strb	r5, [r1, #0]
  407286:	4606      	mov	r6, r0
  407288:	f101 0501 	add.w	r5, r1, #1
  40728c:	d026      	beq.n	4072dc <_dtoa_r+0xcbc>
  40728e:	9b12      	ldr	r3, [sp, #72]	; 0x48
  407290:	9a04      	ldr	r2, [sp, #16]
  407292:	f8df b13c 	ldr.w	fp, [pc, #316]	; 4073d0 <_dtoa_r+0xdb0>
  407296:	f8cd 9048 	str.w	r9, [sp, #72]	; 0x48
  40729a:	4413      	add	r3, r2
  40729c:	f04f 0a00 	mov.w	sl, #0
  4072a0:	4699      	mov	r9, r3
  4072a2:	4652      	mov	r2, sl
  4072a4:	465b      	mov	r3, fp
  4072a6:	4630      	mov	r0, r6
  4072a8:	4639      	mov	r1, r7
  4072aa:	f002 f80d 	bl	4092c8 <__aeabi_dmul>
  4072ae:	460f      	mov	r7, r1
  4072b0:	4606      	mov	r6, r0
  4072b2:	f002 fab9 	bl	409828 <__aeabi_d2iz>
  4072b6:	4680      	mov	r8, r0
  4072b8:	f001 ffa0 	bl	4091fc <__aeabi_i2d>
  4072bc:	f108 0830 	add.w	r8, r8, #48	; 0x30
  4072c0:	4602      	mov	r2, r0
  4072c2:	460b      	mov	r3, r1
  4072c4:	4630      	mov	r0, r6
  4072c6:	4639      	mov	r1, r7
  4072c8:	f001 fe4a 	bl	408f60 <__aeabi_dsub>
  4072cc:	f805 8b01 	strb.w	r8, [r5], #1
  4072d0:	454d      	cmp	r5, r9
  4072d2:	4606      	mov	r6, r0
  4072d4:	460f      	mov	r7, r1
  4072d6:	d1e4      	bne.n	4072a2 <_dtoa_r+0xc82>
  4072d8:	f8dd 9048 	ldr.w	r9, [sp, #72]	; 0x48
  4072dc:	4b3b      	ldr	r3, [pc, #236]	; (4073cc <_dtoa_r+0xdac>)
  4072de:	2200      	movs	r2, #0
  4072e0:	e9dd 0116 	ldrd	r0, r1, [sp, #88]	; 0x58
  4072e4:	f001 fe3e 	bl	408f64 <__adddf3>
  4072e8:	4632      	mov	r2, r6
  4072ea:	463b      	mov	r3, r7
  4072ec:	f002 fa5e 	bl	4097ac <__aeabi_dcmplt>
  4072f0:	2800      	cmp	r0, #0
  4072f2:	d046      	beq.n	407382 <_dtoa_r+0xd62>
  4072f4:	9b15      	ldr	r3, [sp, #84]	; 0x54
  4072f6:	9302      	str	r3, [sp, #8]
  4072f8:	f815 8c01 	ldrb.w	r8, [r5, #-1]
  4072fc:	f7ff bb43 	b.w	406986 <_dtoa_r+0x366>
  407300:	f04f 0800 	mov.w	r8, #0
  407304:	4646      	mov	r6, r8
  407306:	e6a9      	b.n	40705c <_dtoa_r+0xa3c>
  407308:	9b08      	ldr	r3, [sp, #32]
  40730a:	9a0a      	ldr	r2, [sp, #40]	; 0x28
  40730c:	1a9d      	subs	r5, r3, r2
  40730e:	2300      	movs	r3, #0
  407310:	f7ff bb71 	b.w	4069f6 <_dtoa_r+0x3d6>
  407314:	9b18      	ldr	r3, [sp, #96]	; 0x60
  407316:	9f0c      	ldr	r7, [sp, #48]	; 0x30
  407318:	9d08      	ldr	r5, [sp, #32]
  40731a:	f1c3 0336 	rsb	r3, r3, #54	; 0x36
  40731e:	f7ff bb6a 	b.w	4069f6 <_dtoa_r+0x3d6>
  407322:	e9dd 7810 	ldrd	r7, r8, [sp, #64]	; 0x40
  407326:	f04f 0a02 	mov.w	sl, #2
  40732a:	e56e      	b.n	406e0a <_dtoa_r+0x7ea>
  40732c:	9b0a      	ldr	r3, [sp, #40]	; 0x28
  40732e:	2b00      	cmp	r3, #0
  407330:	f43f aeb8 	beq.w	4070a4 <_dtoa_r+0xa84>
  407334:	9b0f      	ldr	r3, [sp, #60]	; 0x3c
  407336:	2b00      	cmp	r3, #0
  407338:	f77f aede 	ble.w	4070f8 <_dtoa_r+0xad8>
  40733c:	2200      	movs	r2, #0
  40733e:	4b24      	ldr	r3, [pc, #144]	; (4073d0 <_dtoa_r+0xdb0>)
  407340:	4638      	mov	r0, r7
  407342:	4641      	mov	r1, r8
  407344:	f001 ffc0 	bl	4092c8 <__aeabi_dmul>
  407348:	4607      	mov	r7, r0
  40734a:	4688      	mov	r8, r1
  40734c:	f10a 0001 	add.w	r0, sl, #1
  407350:	f001 ff54 	bl	4091fc <__aeabi_i2d>
  407354:	463a      	mov	r2, r7
  407356:	4643      	mov	r3, r8
  407358:	f001 ffb6 	bl	4092c8 <__aeabi_dmul>
  40735c:	2200      	movs	r2, #0
  40735e:	4b17      	ldr	r3, [pc, #92]	; (4073bc <_dtoa_r+0xd9c>)
  407360:	f001 fe00 	bl	408f64 <__adddf3>
  407364:	9a02      	ldr	r2, [sp, #8]
  407366:	9b0f      	ldr	r3, [sp, #60]	; 0x3c
  407368:	9312      	str	r3, [sp, #72]	; 0x48
  40736a:	3a01      	subs	r2, #1
  40736c:	4605      	mov	r5, r0
  40736e:	f1a1 7650 	sub.w	r6, r1, #54525952	; 0x3400000
  407372:	9215      	str	r2, [sp, #84]	; 0x54
  407374:	e56a      	b.n	406e4c <_dtoa_r+0x82c>
  407376:	2239      	movs	r2, #57	; 0x39
  407378:	46b3      	mov	fp, r6
  40737a:	703a      	strb	r2, [r7, #0]
  40737c:	9e06      	ldr	r6, [sp, #24]
  40737e:	1c7d      	adds	r5, r7, #1
  407380:	e4c0      	b.n	406d04 <_dtoa_r+0x6e4>
  407382:	e9dd 2316 	ldrd	r2, r3, [sp, #88]	; 0x58
  407386:	2000      	movs	r0, #0
  407388:	4910      	ldr	r1, [pc, #64]	; (4073cc <_dtoa_r+0xdac>)
  40738a:	f001 fde9 	bl	408f60 <__aeabi_dsub>
  40738e:	4632      	mov	r2, r6
  407390:	463b      	mov	r3, r7
  407392:	f002 fa29 	bl	4097e8 <__aeabi_dcmpgt>
  407396:	b908      	cbnz	r0, 40739c <_dtoa_r+0xd7c>
  407398:	e6ae      	b.n	4070f8 <_dtoa_r+0xad8>
  40739a:	4615      	mov	r5, r2
  40739c:	f815 3c01 	ldrb.w	r3, [r5, #-1]
  4073a0:	2b30      	cmp	r3, #48	; 0x30
  4073a2:	f105 32ff 	add.w	r2, r5, #4294967295
  4073a6:	d0f8      	beq.n	40739a <_dtoa_r+0xd7a>
  4073a8:	e5d7      	b.n	406f5a <_dtoa_r+0x93a>
  4073aa:	f8dd 9048 	ldr.w	r9, [sp, #72]	; 0x48
  4073ae:	9b15      	ldr	r3, [sp, #84]	; 0x54
  4073b0:	9302      	str	r3, [sp, #8]
  4073b2:	f7ff bae8 	b.w	406986 <_dtoa_r+0x366>
  4073b6:	970c      	str	r7, [sp, #48]	; 0x30
  4073b8:	f7ff bba5 	b.w	406b06 <_dtoa_r+0x4e6>
  4073bc:	401c0000 	.word	0x401c0000
  4073c0:	40140000 	.word	0x40140000
  4073c4:	0040a008 	.word	0x0040a008
  4073c8:	00409fe0 	.word	0x00409fe0
  4073cc:	3fe00000 	.word	0x3fe00000
  4073d0:	40240000 	.word	0x40240000
  4073d4:	2b39      	cmp	r3, #57	; 0x39
  4073d6:	f8cd b018 	str.w	fp, [sp, #24]
  4073da:	46d0      	mov	r8, sl
  4073dc:	f8dd b028 	ldr.w	fp, [sp, #40]	; 0x28
  4073e0:	469a      	mov	sl, r3
  4073e2:	d0c8      	beq.n	407376 <_dtoa_r+0xd56>
  4073e4:	f1bb 0f00 	cmp.w	fp, #0
  4073e8:	f73f aebf 	bgt.w	40716a <_dtoa_r+0xb4a>
  4073ec:	e6bf      	b.n	40716e <_dtoa_r+0xb4e>
  4073ee:	f47f aebe 	bne.w	40716e <_dtoa_r+0xb4e>
  4073f2:	f01a 0f01 	tst.w	sl, #1
  4073f6:	f43f aeba 	beq.w	40716e <_dtoa_r+0xb4e>
  4073fa:	e6b2      	b.n	407162 <_dtoa_r+0xb42>
  4073fc:	f04f 0800 	mov.w	r8, #0
  407400:	4646      	mov	r6, r8
  407402:	e5e9      	b.n	406fd8 <_dtoa_r+0x9b8>
  407404:	4631      	mov	r1, r6
  407406:	2300      	movs	r3, #0
  407408:	220a      	movs	r2, #10
  40740a:	4620      	mov	r0, r4
  40740c:	f000 fe74 	bl	4080f8 <__multadd>
  407410:	9b0f      	ldr	r3, [sp, #60]	; 0x3c
  407412:	2b00      	cmp	r3, #0
  407414:	4606      	mov	r6, r0
  407416:	dd0a      	ble.n	40742e <_dtoa_r+0xe0e>
  407418:	930a      	str	r3, [sp, #40]	; 0x28
  40741a:	f7ff bbaa 	b.w	406b72 <_dtoa_r+0x552>
  40741e:	9b24      	ldr	r3, [sp, #144]	; 0x90
  407420:	2b02      	cmp	r3, #2
  407422:	dc23      	bgt.n	40746c <_dtoa_r+0xe4c>
  407424:	9b0f      	ldr	r3, [sp, #60]	; 0x3c
  407426:	e43b      	b.n	406ca0 <_dtoa_r+0x680>
  407428:	f04f 0a02 	mov.w	sl, #2
  40742c:	e4ed      	b.n	406e0a <_dtoa_r+0x7ea>
  40742e:	9b24      	ldr	r3, [sp, #144]	; 0x90
  407430:	2b02      	cmp	r3, #2
  407432:	dc1b      	bgt.n	40746c <_dtoa_r+0xe4c>
  407434:	9b0f      	ldr	r3, [sp, #60]	; 0x3c
  407436:	e7ef      	b.n	407418 <_dtoa_r+0xdf8>
  407438:	2500      	movs	r5, #0
  40743a:	6465      	str	r5, [r4, #68]	; 0x44
  40743c:	4629      	mov	r1, r5
  40743e:	4620      	mov	r0, r4
  407440:	f000 fe2a 	bl	408098 <_Balloc>
  407444:	f04f 33ff 	mov.w	r3, #4294967295
  407448:	930a      	str	r3, [sp, #40]	; 0x28
  40744a:	930f      	str	r3, [sp, #60]	; 0x3c
  40744c:	2301      	movs	r3, #1
  40744e:	9004      	str	r0, [sp, #16]
  407450:	9525      	str	r5, [sp, #148]	; 0x94
  407452:	6420      	str	r0, [r4, #64]	; 0x40
  407454:	930b      	str	r3, [sp, #44]	; 0x2c
  407456:	f7ff b9dd 	b.w	406814 <_dtoa_r+0x1f4>
  40745a:	2501      	movs	r5, #1
  40745c:	f7ff b9a5 	b.w	4067aa <_dtoa_r+0x18a>
  407460:	f43f ab69 	beq.w	406b36 <_dtoa_r+0x516>
  407464:	f1c0 003c 	rsb	r0, r0, #60	; 0x3c
  407468:	f7ff bbf9 	b.w	406c5e <_dtoa_r+0x63e>
  40746c:	9b0f      	ldr	r3, [sp, #60]	; 0x3c
  40746e:	930a      	str	r3, [sp, #40]	; 0x28
  407470:	e5e5      	b.n	40703e <_dtoa_r+0xa1e>
  407472:	bf00      	nop

00407474 <__sflush_r>:
  407474:	f9b1 300c 	ldrsh.w	r3, [r1, #12]
  407478:	b29a      	uxth	r2, r3
  40747a:	e92d 41f0 	stmdb	sp!, {r4, r5, r6, r7, r8, lr}
  40747e:	460d      	mov	r5, r1
  407480:	0711      	lsls	r1, r2, #28
  407482:	4680      	mov	r8, r0
  407484:	d43a      	bmi.n	4074fc <__sflush_r+0x88>
  407486:	686a      	ldr	r2, [r5, #4]
  407488:	f443 6300 	orr.w	r3, r3, #2048	; 0x800
  40748c:	2a00      	cmp	r2, #0
  40748e:	81ab      	strh	r3, [r5, #12]
  407490:	dd6f      	ble.n	407572 <__sflush_r+0xfe>
  407492:	6aac      	ldr	r4, [r5, #40]	; 0x28
  407494:	2c00      	cmp	r4, #0
  407496:	d049      	beq.n	40752c <__sflush_r+0xb8>
  407498:	2200      	movs	r2, #0
  40749a:	b29b      	uxth	r3, r3
  40749c:	f8d8 6000 	ldr.w	r6, [r8]
  4074a0:	f8c8 2000 	str.w	r2, [r8]
  4074a4:	f413 5280 	ands.w	r2, r3, #4096	; 0x1000
  4074a8:	d067      	beq.n	40757a <__sflush_r+0x106>
  4074aa:	6d2a      	ldr	r2, [r5, #80]	; 0x50
  4074ac:	075f      	lsls	r7, r3, #29
  4074ae:	d505      	bpl.n	4074bc <__sflush_r+0x48>
  4074b0:	6869      	ldr	r1, [r5, #4]
  4074b2:	6b2b      	ldr	r3, [r5, #48]	; 0x30
  4074b4:	1a52      	subs	r2, r2, r1
  4074b6:	b10b      	cbz	r3, 4074bc <__sflush_r+0x48>
  4074b8:	6beb      	ldr	r3, [r5, #60]	; 0x3c
  4074ba:	1ad2      	subs	r2, r2, r3
  4074bc:	2300      	movs	r3, #0
  4074be:	69e9      	ldr	r1, [r5, #28]
  4074c0:	4640      	mov	r0, r8
  4074c2:	47a0      	blx	r4
  4074c4:	1c44      	adds	r4, r0, #1
  4074c6:	d03c      	beq.n	407542 <__sflush_r+0xce>
  4074c8:	f9b5 300c 	ldrsh.w	r3, [r5, #12]
  4074cc:	692a      	ldr	r2, [r5, #16]
  4074ce:	602a      	str	r2, [r5, #0]
  4074d0:	f423 6300 	bic.w	r3, r3, #2048	; 0x800
  4074d4:	2200      	movs	r2, #0
  4074d6:	81ab      	strh	r3, [r5, #12]
  4074d8:	04db      	lsls	r3, r3, #19
  4074da:	606a      	str	r2, [r5, #4]
  4074dc:	d447      	bmi.n	40756e <__sflush_r+0xfa>
  4074de:	6b29      	ldr	r1, [r5, #48]	; 0x30
  4074e0:	f8c8 6000 	str.w	r6, [r8]
  4074e4:	b311      	cbz	r1, 40752c <__sflush_r+0xb8>
  4074e6:	f105 0340 	add.w	r3, r5, #64	; 0x40
  4074ea:	4299      	cmp	r1, r3
  4074ec:	d002      	beq.n	4074f4 <__sflush_r+0x80>
  4074ee:	4640      	mov	r0, r8
  4074f0:	f000 f9de 	bl	4078b0 <_free_r>
  4074f4:	2000      	movs	r0, #0
  4074f6:	6328      	str	r0, [r5, #48]	; 0x30
  4074f8:	e8bd 81f0 	ldmia.w	sp!, {r4, r5, r6, r7, r8, pc}
  4074fc:	692e      	ldr	r6, [r5, #16]
  4074fe:	b1ae      	cbz	r6, 40752c <__sflush_r+0xb8>
  407500:	682c      	ldr	r4, [r5, #0]
  407502:	602e      	str	r6, [r5, #0]
  407504:	0791      	lsls	r1, r2, #30
  407506:	bf0c      	ite	eq
  407508:	696b      	ldreq	r3, [r5, #20]
  40750a:	2300      	movne	r3, #0
  40750c:	1ba4      	subs	r4, r4, r6
  40750e:	60ab      	str	r3, [r5, #8]
  407510:	e00a      	b.n	407528 <__sflush_r+0xb4>
  407512:	4623      	mov	r3, r4
  407514:	4632      	mov	r2, r6
  407516:	6a6f      	ldr	r7, [r5, #36]	; 0x24
  407518:	69e9      	ldr	r1, [r5, #28]
  40751a:	4640      	mov	r0, r8
  40751c:	47b8      	blx	r7
  40751e:	2800      	cmp	r0, #0
  407520:	eba4 0400 	sub.w	r4, r4, r0
  407524:	4406      	add	r6, r0
  407526:	dd04      	ble.n	407532 <__sflush_r+0xbe>
  407528:	2c00      	cmp	r4, #0
  40752a:	dcf2      	bgt.n	407512 <__sflush_r+0x9e>
  40752c:	2000      	movs	r0, #0
  40752e:	e8bd 81f0 	ldmia.w	sp!, {r4, r5, r6, r7, r8, pc}
  407532:	89ab      	ldrh	r3, [r5, #12]
  407534:	f043 0340 	orr.w	r3, r3, #64	; 0x40
  407538:	81ab      	strh	r3, [r5, #12]
  40753a:	f04f 30ff 	mov.w	r0, #4294967295
  40753e:	e8bd 81f0 	ldmia.w	sp!, {r4, r5, r6, r7, r8, pc}
  407542:	f8d8 4000 	ldr.w	r4, [r8]
  407546:	2c1d      	cmp	r4, #29
  407548:	d8f3      	bhi.n	407532 <__sflush_r+0xbe>
  40754a:	4b19      	ldr	r3, [pc, #100]	; (4075b0 <__sflush_r+0x13c>)
  40754c:	40e3      	lsrs	r3, r4
  40754e:	43db      	mvns	r3, r3
  407550:	f013 0301 	ands.w	r3, r3, #1
  407554:	d1ed      	bne.n	407532 <__sflush_r+0xbe>
  407556:	f9b5 200c 	ldrsh.w	r2, [r5, #12]
  40755a:	606b      	str	r3, [r5, #4]
  40755c:	f422 6300 	bic.w	r3, r2, #2048	; 0x800
  407560:	6929      	ldr	r1, [r5, #16]
  407562:	81ab      	strh	r3, [r5, #12]
  407564:	04da      	lsls	r2, r3, #19
  407566:	6029      	str	r1, [r5, #0]
  407568:	d5b9      	bpl.n	4074de <__sflush_r+0x6a>
  40756a:	2c00      	cmp	r4, #0
  40756c:	d1b7      	bne.n	4074de <__sflush_r+0x6a>
  40756e:	6528      	str	r0, [r5, #80]	; 0x50
  407570:	e7b5      	b.n	4074de <__sflush_r+0x6a>
  407572:	6bea      	ldr	r2, [r5, #60]	; 0x3c
  407574:	2a00      	cmp	r2, #0
  407576:	dc8c      	bgt.n	407492 <__sflush_r+0x1e>
  407578:	e7d8      	b.n	40752c <__sflush_r+0xb8>
  40757a:	2301      	movs	r3, #1
  40757c:	69e9      	ldr	r1, [r5, #28]
  40757e:	4640      	mov	r0, r8
  407580:	47a0      	blx	r4
  407582:	1c43      	adds	r3, r0, #1
  407584:	4602      	mov	r2, r0
  407586:	d002      	beq.n	40758e <__sflush_r+0x11a>
  407588:	89ab      	ldrh	r3, [r5, #12]
  40758a:	6aac      	ldr	r4, [r5, #40]	; 0x28
  40758c:	e78e      	b.n	4074ac <__sflush_r+0x38>
  40758e:	f8d8 3000 	ldr.w	r3, [r8]
  407592:	2b00      	cmp	r3, #0
  407594:	d0f8      	beq.n	407588 <__sflush_r+0x114>
  407596:	2b1d      	cmp	r3, #29
  407598:	d001      	beq.n	40759e <__sflush_r+0x12a>
  40759a:	2b16      	cmp	r3, #22
  40759c:	d102      	bne.n	4075a4 <__sflush_r+0x130>
  40759e:	f8c8 6000 	str.w	r6, [r8]
  4075a2:	e7c3      	b.n	40752c <__sflush_r+0xb8>
  4075a4:	89ab      	ldrh	r3, [r5, #12]
  4075a6:	f043 0340 	orr.w	r3, r3, #64	; 0x40
  4075aa:	81ab      	strh	r3, [r5, #12]
  4075ac:	e8bd 81f0 	ldmia.w	sp!, {r4, r5, r6, r7, r8, pc}
  4075b0:	20400001 	.word	0x20400001

004075b4 <_fflush_r>:
  4075b4:	b538      	push	{r3, r4, r5, lr}
  4075b6:	460d      	mov	r5, r1
  4075b8:	4604      	mov	r4, r0
  4075ba:	b108      	cbz	r0, 4075c0 <_fflush_r+0xc>
  4075bc:	6b83      	ldr	r3, [r0, #56]	; 0x38
  4075be:	b1bb      	cbz	r3, 4075f0 <_fflush_r+0x3c>
  4075c0:	f9b5 000c 	ldrsh.w	r0, [r5, #12]
  4075c4:	b188      	cbz	r0, 4075ea <_fflush_r+0x36>
  4075c6:	6e6b      	ldr	r3, [r5, #100]	; 0x64
  4075c8:	07db      	lsls	r3, r3, #31
  4075ca:	d401      	bmi.n	4075d0 <_fflush_r+0x1c>
  4075cc:	0581      	lsls	r1, r0, #22
  4075ce:	d517      	bpl.n	407600 <_fflush_r+0x4c>
  4075d0:	4620      	mov	r0, r4
  4075d2:	4629      	mov	r1, r5
  4075d4:	f7ff ff4e 	bl	407474 <__sflush_r>
  4075d8:	6e6b      	ldr	r3, [r5, #100]	; 0x64
  4075da:	07da      	lsls	r2, r3, #31
  4075dc:	4604      	mov	r4, r0
  4075de:	d402      	bmi.n	4075e6 <_fflush_r+0x32>
  4075e0:	89ab      	ldrh	r3, [r5, #12]
  4075e2:	059b      	lsls	r3, r3, #22
  4075e4:	d507      	bpl.n	4075f6 <_fflush_r+0x42>
  4075e6:	4620      	mov	r0, r4
  4075e8:	bd38      	pop	{r3, r4, r5, pc}
  4075ea:	4604      	mov	r4, r0
  4075ec:	4620      	mov	r0, r4
  4075ee:	bd38      	pop	{r3, r4, r5, pc}
  4075f0:	f000 f838 	bl	407664 <__sinit>
  4075f4:	e7e4      	b.n	4075c0 <_fflush_r+0xc>
  4075f6:	6da8      	ldr	r0, [r5, #88]	; 0x58
  4075f8:	f000 fc04 	bl	407e04 <__retarget_lock_release_recursive>
  4075fc:	4620      	mov	r0, r4
  4075fe:	bd38      	pop	{r3, r4, r5, pc}
  407600:	6da8      	ldr	r0, [r5, #88]	; 0x58
  407602:	f000 fbfd 	bl	407e00 <__retarget_lock_acquire_recursive>
  407606:	e7e3      	b.n	4075d0 <_fflush_r+0x1c>

00407608 <_cleanup_r>:
  407608:	4901      	ldr	r1, [pc, #4]	; (407610 <_cleanup_r+0x8>)
  40760a:	f000 bbaf 	b.w	407d6c <_fwalk_reent>
  40760e:	bf00      	nop
  407610:	00408df1 	.word	0x00408df1

00407614 <std.isra.0>:
  407614:	b510      	push	{r4, lr}
  407616:	2300      	movs	r3, #0
  407618:	4604      	mov	r4, r0
  40761a:	8181      	strh	r1, [r0, #12]
  40761c:	81c2      	strh	r2, [r0, #14]
  40761e:	6003      	str	r3, [r0, #0]
  407620:	6043      	str	r3, [r0, #4]
  407622:	6083      	str	r3, [r0, #8]
  407624:	6643      	str	r3, [r0, #100]	; 0x64
  407626:	6103      	str	r3, [r0, #16]
  407628:	6143      	str	r3, [r0, #20]
  40762a:	6183      	str	r3, [r0, #24]
  40762c:	4619      	mov	r1, r3
  40762e:	2208      	movs	r2, #8
  407630:	305c      	adds	r0, #92	; 0x5c
  407632:	f7fc fc09 	bl	403e48 <memset>
  407636:	4807      	ldr	r0, [pc, #28]	; (407654 <std.isra.0+0x40>)
  407638:	4907      	ldr	r1, [pc, #28]	; (407658 <std.isra.0+0x44>)
  40763a:	4a08      	ldr	r2, [pc, #32]	; (40765c <std.isra.0+0x48>)
  40763c:	4b08      	ldr	r3, [pc, #32]	; (407660 <std.isra.0+0x4c>)
  40763e:	6220      	str	r0, [r4, #32]
  407640:	61e4      	str	r4, [r4, #28]
  407642:	6261      	str	r1, [r4, #36]	; 0x24
  407644:	62a2      	str	r2, [r4, #40]	; 0x28
  407646:	62e3      	str	r3, [r4, #44]	; 0x2c
  407648:	f104 0058 	add.w	r0, r4, #88	; 0x58
  40764c:	e8bd 4010 	ldmia.w	sp!, {r4, lr}
  407650:	f000 bbd2 	b.w	407df8 <__retarget_lock_init_recursive>
  407654:	004089d9 	.word	0x004089d9
  407658:	004089fd 	.word	0x004089fd
  40765c:	00408a39 	.word	0x00408a39
  407660:	00408a59 	.word	0x00408a59

00407664 <__sinit>:
  407664:	b510      	push	{r4, lr}
  407666:	4604      	mov	r4, r0
  407668:	4812      	ldr	r0, [pc, #72]	; (4076b4 <__sinit+0x50>)
  40766a:	f000 fbc9 	bl	407e00 <__retarget_lock_acquire_recursive>
  40766e:	6ba2      	ldr	r2, [r4, #56]	; 0x38
  407670:	b9d2      	cbnz	r2, 4076a8 <__sinit+0x44>
  407672:	f504 733b 	add.w	r3, r4, #748	; 0x2ec
  407676:	4810      	ldr	r0, [pc, #64]	; (4076b8 <__sinit+0x54>)
  407678:	f8c4 32e8 	str.w	r3, [r4, #744]	; 0x2e8
  40767c:	2103      	movs	r1, #3
  40767e:	f8c4 22e0 	str.w	r2, [r4, #736]	; 0x2e0
  407682:	63e0      	str	r0, [r4, #60]	; 0x3c
  407684:	f8c4 12e4 	str.w	r1, [r4, #740]	; 0x2e4
  407688:	6860      	ldr	r0, [r4, #4]
  40768a:	2104      	movs	r1, #4
  40768c:	f7ff ffc2 	bl	407614 <std.isra.0>
  407690:	2201      	movs	r2, #1
  407692:	2109      	movs	r1, #9
  407694:	68a0      	ldr	r0, [r4, #8]
  407696:	f7ff ffbd 	bl	407614 <std.isra.0>
  40769a:	2202      	movs	r2, #2
  40769c:	2112      	movs	r1, #18
  40769e:	68e0      	ldr	r0, [r4, #12]
  4076a0:	f7ff ffb8 	bl	407614 <std.isra.0>
  4076a4:	2301      	movs	r3, #1
  4076a6:	63a3      	str	r3, [r4, #56]	; 0x38
  4076a8:	4802      	ldr	r0, [pc, #8]	; (4076b4 <__sinit+0x50>)
  4076aa:	e8bd 4010 	ldmia.w	sp!, {r4, lr}
  4076ae:	f000 bba9 	b.w	407e04 <__retarget_lock_release_recursive>
  4076b2:	bf00      	nop
  4076b4:	20400e44 	.word	0x20400e44
  4076b8:	00407609 	.word	0x00407609

004076bc <__sfp_lock_acquire>:
  4076bc:	4801      	ldr	r0, [pc, #4]	; (4076c4 <__sfp_lock_acquire+0x8>)
  4076be:	f000 bb9f 	b.w	407e00 <__retarget_lock_acquire_recursive>
  4076c2:	bf00      	nop
  4076c4:	20400e58 	.word	0x20400e58

004076c8 <__sfp_lock_release>:
  4076c8:	4801      	ldr	r0, [pc, #4]	; (4076d0 <__sfp_lock_release+0x8>)
  4076ca:	f000 bb9b 	b.w	407e04 <__retarget_lock_release_recursive>
  4076ce:	bf00      	nop
  4076d0:	20400e58 	.word	0x20400e58

004076d4 <__libc_fini_array>:
  4076d4:	b538      	push	{r3, r4, r5, lr}
  4076d6:	4c0a      	ldr	r4, [pc, #40]	; (407700 <__libc_fini_array+0x2c>)
  4076d8:	4d0a      	ldr	r5, [pc, #40]	; (407704 <__libc_fini_array+0x30>)
  4076da:	1b64      	subs	r4, r4, r5
  4076dc:	10a4      	asrs	r4, r4, #2
  4076de:	d00a      	beq.n	4076f6 <__libc_fini_array+0x22>
  4076e0:	f104 4380 	add.w	r3, r4, #1073741824	; 0x40000000
  4076e4:	3b01      	subs	r3, #1
  4076e6:	eb05 0583 	add.w	r5, r5, r3, lsl #2
  4076ea:	3c01      	subs	r4, #1
  4076ec:	f855 3904 	ldr.w	r3, [r5], #-4
  4076f0:	4798      	blx	r3
  4076f2:	2c00      	cmp	r4, #0
  4076f4:	d1f9      	bne.n	4076ea <__libc_fini_array+0x16>
  4076f6:	e8bd 4038 	ldmia.w	sp!, {r3, r4, r5, lr}
  4076fa:	f002 bd7b 	b.w	40a1f4 <_fini>
  4076fe:	bf00      	nop
  407700:	0040a204 	.word	0x0040a204
  407704:	0040a200 	.word	0x0040a200

00407708 <__fputwc>:
  407708:	e92d 47f0 	stmdb	sp!, {r4, r5, r6, r7, r8, r9, sl, lr}
  40770c:	b082      	sub	sp, #8
  40770e:	4680      	mov	r8, r0
  407710:	4689      	mov	r9, r1
  407712:	4614      	mov	r4, r2
  407714:	f000 fb54 	bl	407dc0 <__locale_mb_cur_max>
  407718:	2801      	cmp	r0, #1
  40771a:	d036      	beq.n	40778a <__fputwc+0x82>
  40771c:	464a      	mov	r2, r9
  40771e:	f104 035c 	add.w	r3, r4, #92	; 0x5c
  407722:	a901      	add	r1, sp, #4
  407724:	4640      	mov	r0, r8
  407726:	f001 fa71 	bl	408c0c <_wcrtomb_r>
  40772a:	1c42      	adds	r2, r0, #1
  40772c:	4606      	mov	r6, r0
  40772e:	d025      	beq.n	40777c <__fputwc+0x74>
  407730:	b3a8      	cbz	r0, 40779e <__fputwc+0x96>
  407732:	f89d e004 	ldrb.w	lr, [sp, #4]
  407736:	2500      	movs	r5, #0
  407738:	f10d 0a04 	add.w	sl, sp, #4
  40773c:	e009      	b.n	407752 <__fputwc+0x4a>
  40773e:	6823      	ldr	r3, [r4, #0]
  407740:	1c5a      	adds	r2, r3, #1
  407742:	6022      	str	r2, [r4, #0]
  407744:	f883 e000 	strb.w	lr, [r3]
  407748:	3501      	adds	r5, #1
  40774a:	42b5      	cmp	r5, r6
  40774c:	d227      	bcs.n	40779e <__fputwc+0x96>
  40774e:	f815 e00a 	ldrb.w	lr, [r5, sl]
  407752:	68a3      	ldr	r3, [r4, #8]
  407754:	3b01      	subs	r3, #1
  407756:	2b00      	cmp	r3, #0
  407758:	60a3      	str	r3, [r4, #8]
  40775a:	daf0      	bge.n	40773e <__fputwc+0x36>
  40775c:	69a7      	ldr	r7, [r4, #24]
  40775e:	42bb      	cmp	r3, r7
  407760:	4671      	mov	r1, lr
  407762:	4622      	mov	r2, r4
  407764:	4640      	mov	r0, r8
  407766:	db02      	blt.n	40776e <__fputwc+0x66>
  407768:	f1be 0f0a 	cmp.w	lr, #10
  40776c:	d1e7      	bne.n	40773e <__fputwc+0x36>
  40776e:	f001 f9f5 	bl	408b5c <__swbuf_r>
  407772:	1c43      	adds	r3, r0, #1
  407774:	d1e8      	bne.n	407748 <__fputwc+0x40>
  407776:	b002      	add	sp, #8
  407778:	e8bd 87f0 	ldmia.w	sp!, {r4, r5, r6, r7, r8, r9, sl, pc}
  40777c:	89a3      	ldrh	r3, [r4, #12]
  40777e:	f043 0340 	orr.w	r3, r3, #64	; 0x40
  407782:	81a3      	strh	r3, [r4, #12]
  407784:	b002      	add	sp, #8
  407786:	e8bd 87f0 	ldmia.w	sp!, {r4, r5, r6, r7, r8, r9, sl, pc}
  40778a:	f109 33ff 	add.w	r3, r9, #4294967295
  40778e:	2bfe      	cmp	r3, #254	; 0xfe
  407790:	d8c4      	bhi.n	40771c <__fputwc+0x14>
  407792:	fa5f fe89 	uxtb.w	lr, r9
  407796:	4606      	mov	r6, r0
  407798:	f88d e004 	strb.w	lr, [sp, #4]
  40779c:	e7cb      	b.n	407736 <__fputwc+0x2e>
  40779e:	4648      	mov	r0, r9
  4077a0:	b002      	add	sp, #8
  4077a2:	e8bd 87f0 	ldmia.w	sp!, {r4, r5, r6, r7, r8, r9, sl, pc}
  4077a6:	bf00      	nop

004077a8 <_fputwc_r>:
  4077a8:	b530      	push	{r4, r5, lr}
  4077aa:	6e53      	ldr	r3, [r2, #100]	; 0x64
  4077ac:	f013 0f01 	tst.w	r3, #1
  4077b0:	f9b2 300c 	ldrsh.w	r3, [r2, #12]
  4077b4:	4614      	mov	r4, r2
  4077b6:	b083      	sub	sp, #12
  4077b8:	4605      	mov	r5, r0
  4077ba:	b29a      	uxth	r2, r3
  4077bc:	d101      	bne.n	4077c2 <_fputwc_r+0x1a>
  4077be:	0590      	lsls	r0, r2, #22
  4077c0:	d51c      	bpl.n	4077fc <_fputwc_r+0x54>
  4077c2:	0490      	lsls	r0, r2, #18
  4077c4:	d406      	bmi.n	4077d4 <_fputwc_r+0x2c>
  4077c6:	6e62      	ldr	r2, [r4, #100]	; 0x64
  4077c8:	f443 5300 	orr.w	r3, r3, #8192	; 0x2000
  4077cc:	f442 5200 	orr.w	r2, r2, #8192	; 0x2000
  4077d0:	81a3      	strh	r3, [r4, #12]
  4077d2:	6662      	str	r2, [r4, #100]	; 0x64
  4077d4:	4628      	mov	r0, r5
  4077d6:	4622      	mov	r2, r4
  4077d8:	f7ff ff96 	bl	407708 <__fputwc>
  4077dc:	6e63      	ldr	r3, [r4, #100]	; 0x64
  4077de:	07da      	lsls	r2, r3, #31
  4077e0:	4605      	mov	r5, r0
  4077e2:	d402      	bmi.n	4077ea <_fputwc_r+0x42>
  4077e4:	89a3      	ldrh	r3, [r4, #12]
  4077e6:	059b      	lsls	r3, r3, #22
  4077e8:	d502      	bpl.n	4077f0 <_fputwc_r+0x48>
  4077ea:	4628      	mov	r0, r5
  4077ec:	b003      	add	sp, #12
  4077ee:	bd30      	pop	{r4, r5, pc}
  4077f0:	6da0      	ldr	r0, [r4, #88]	; 0x58
  4077f2:	f000 fb07 	bl	407e04 <__retarget_lock_release_recursive>
  4077f6:	4628      	mov	r0, r5
  4077f8:	b003      	add	sp, #12
  4077fa:	bd30      	pop	{r4, r5, pc}
  4077fc:	6da0      	ldr	r0, [r4, #88]	; 0x58
  4077fe:	9101      	str	r1, [sp, #4]
  407800:	f000 fafe 	bl	407e00 <__retarget_lock_acquire_recursive>
  407804:	f9b4 300c 	ldrsh.w	r3, [r4, #12]
  407808:	9901      	ldr	r1, [sp, #4]
  40780a:	b29a      	uxth	r2, r3
  40780c:	e7d9      	b.n	4077c2 <_fputwc_r+0x1a>
  40780e:	bf00      	nop

00407810 <_malloc_trim_r>:
  407810:	b5f8      	push	{r3, r4, r5, r6, r7, lr}
  407812:	4f24      	ldr	r7, [pc, #144]	; (4078a4 <_malloc_trim_r+0x94>)
  407814:	460c      	mov	r4, r1
  407816:	4606      	mov	r6, r0
  407818:	f7fc fb64 	bl	403ee4 <__malloc_lock>
  40781c:	68bb      	ldr	r3, [r7, #8]
  40781e:	685d      	ldr	r5, [r3, #4]
  407820:	f5c4 617e 	rsb	r1, r4, #4064	; 0xfe0
  407824:	310f      	adds	r1, #15
  407826:	f025 0503 	bic.w	r5, r5, #3
  40782a:	4429      	add	r1, r5
  40782c:	f421 617f 	bic.w	r1, r1, #4080	; 0xff0
  407830:	f021 010f 	bic.w	r1, r1, #15
  407834:	f5a1 5480 	sub.w	r4, r1, #4096	; 0x1000
  407838:	f5b4 5f80 	cmp.w	r4, #4096	; 0x1000
  40783c:	db07      	blt.n	40784e <_malloc_trim_r+0x3e>
  40783e:	2100      	movs	r1, #0
  407840:	4630      	mov	r0, r6
  407842:	f7fc fb5b 	bl	403efc <_sbrk_r>
  407846:	68bb      	ldr	r3, [r7, #8]
  407848:	442b      	add	r3, r5
  40784a:	4298      	cmp	r0, r3
  40784c:	d004      	beq.n	407858 <_malloc_trim_r+0x48>
  40784e:	4630      	mov	r0, r6
  407850:	f7fc fb4e 	bl	403ef0 <__malloc_unlock>
  407854:	2000      	movs	r0, #0
  407856:	bdf8      	pop	{r3, r4, r5, r6, r7, pc}
  407858:	4261      	negs	r1, r4
  40785a:	4630      	mov	r0, r6
  40785c:	f7fc fb4e 	bl	403efc <_sbrk_r>
  407860:	3001      	adds	r0, #1
  407862:	d00d      	beq.n	407880 <_malloc_trim_r+0x70>
  407864:	4b10      	ldr	r3, [pc, #64]	; (4078a8 <_malloc_trim_r+0x98>)
  407866:	68ba      	ldr	r2, [r7, #8]
  407868:	6819      	ldr	r1, [r3, #0]
  40786a:	1b2d      	subs	r5, r5, r4
  40786c:	f045 0501 	orr.w	r5, r5, #1
  407870:	4630      	mov	r0, r6
  407872:	1b09      	subs	r1, r1, r4
  407874:	6055      	str	r5, [r2, #4]
  407876:	6019      	str	r1, [r3, #0]
  407878:	f7fc fb3a 	bl	403ef0 <__malloc_unlock>
  40787c:	2001      	movs	r0, #1
  40787e:	bdf8      	pop	{r3, r4, r5, r6, r7, pc}
  407880:	2100      	movs	r1, #0
  407882:	4630      	mov	r0, r6
  407884:	f7fc fb3a 	bl	403efc <_sbrk_r>
  407888:	68ba      	ldr	r2, [r7, #8]
  40788a:	1a83      	subs	r3, r0, r2
  40788c:	2b0f      	cmp	r3, #15
  40788e:	ddde      	ble.n	40784e <_malloc_trim_r+0x3e>
  407890:	4c06      	ldr	r4, [pc, #24]	; (4078ac <_malloc_trim_r+0x9c>)
  407892:	4905      	ldr	r1, [pc, #20]	; (4078a8 <_malloc_trim_r+0x98>)
  407894:	6824      	ldr	r4, [r4, #0]
  407896:	f043 0301 	orr.w	r3, r3, #1
  40789a:	1b00      	subs	r0, r0, r4
  40789c:	6053      	str	r3, [r2, #4]
  40789e:	6008      	str	r0, [r1, #0]
  4078a0:	e7d5      	b.n	40784e <_malloc_trim_r+0x3e>
  4078a2:	bf00      	nop
  4078a4:	20400450 	.word	0x20400450
  4078a8:	20400dac 	.word	0x20400dac
  4078ac:	20400858 	.word	0x20400858

004078b0 <_free_r>:
  4078b0:	2900      	cmp	r1, #0
  4078b2:	d044      	beq.n	40793e <_free_r+0x8e>
  4078b4:	e92d 41f0 	stmdb	sp!, {r4, r5, r6, r7, r8, lr}
  4078b8:	460d      	mov	r5, r1
  4078ba:	4680      	mov	r8, r0
  4078bc:	f7fc fb12 	bl	403ee4 <__malloc_lock>
  4078c0:	f855 7c04 	ldr.w	r7, [r5, #-4]
  4078c4:	4969      	ldr	r1, [pc, #420]	; (407a6c <_free_r+0x1bc>)
  4078c6:	f027 0301 	bic.w	r3, r7, #1
  4078ca:	f1a5 0408 	sub.w	r4, r5, #8
  4078ce:	18e2      	adds	r2, r4, r3
  4078d0:	688e      	ldr	r6, [r1, #8]
  4078d2:	6850      	ldr	r0, [r2, #4]
  4078d4:	42b2      	cmp	r2, r6
  4078d6:	f020 0003 	bic.w	r0, r0, #3
  4078da:	d05e      	beq.n	40799a <_free_r+0xea>
  4078dc:	07fe      	lsls	r6, r7, #31
  4078de:	6050      	str	r0, [r2, #4]
  4078e0:	d40b      	bmi.n	4078fa <_free_r+0x4a>
  4078e2:	f855 7c08 	ldr.w	r7, [r5, #-8]
  4078e6:	1be4      	subs	r4, r4, r7
  4078e8:	f101 0e08 	add.w	lr, r1, #8
  4078ec:	68a5      	ldr	r5, [r4, #8]
  4078ee:	4575      	cmp	r5, lr
  4078f0:	443b      	add	r3, r7
  4078f2:	d06d      	beq.n	4079d0 <_free_r+0x120>
  4078f4:	68e7      	ldr	r7, [r4, #12]
  4078f6:	60ef      	str	r7, [r5, #12]
  4078f8:	60bd      	str	r5, [r7, #8]
  4078fa:	1815      	adds	r5, r2, r0
  4078fc:	686d      	ldr	r5, [r5, #4]
  4078fe:	07ed      	lsls	r5, r5, #31
  407900:	d53e      	bpl.n	407980 <_free_r+0xd0>
  407902:	f043 0201 	orr.w	r2, r3, #1
  407906:	6062      	str	r2, [r4, #4]
  407908:	50e3      	str	r3, [r4, r3]
  40790a:	f5b3 7f00 	cmp.w	r3, #512	; 0x200
  40790e:	d217      	bcs.n	407940 <_free_r+0x90>
  407910:	08db      	lsrs	r3, r3, #3
  407912:	1c58      	adds	r0, r3, #1
  407914:	109a      	asrs	r2, r3, #2
  407916:	684d      	ldr	r5, [r1, #4]
  407918:	f851 7030 	ldr.w	r7, [r1, r0, lsl #3]
  40791c:	60a7      	str	r7, [r4, #8]
  40791e:	2301      	movs	r3, #1
  407920:	4093      	lsls	r3, r2
  407922:	eb01 02c0 	add.w	r2, r1, r0, lsl #3
  407926:	432b      	orrs	r3, r5
  407928:	3a08      	subs	r2, #8
  40792a:	60e2      	str	r2, [r4, #12]
  40792c:	604b      	str	r3, [r1, #4]
  40792e:	f841 4030 	str.w	r4, [r1, r0, lsl #3]
  407932:	60fc      	str	r4, [r7, #12]
  407934:	4640      	mov	r0, r8
  407936:	e8bd 41f0 	ldmia.w	sp!, {r4, r5, r6, r7, r8, lr}
  40793a:	f7fc bad9 	b.w	403ef0 <__malloc_unlock>
  40793e:	4770      	bx	lr
  407940:	0a5a      	lsrs	r2, r3, #9
  407942:	2a04      	cmp	r2, #4
  407944:	d852      	bhi.n	4079ec <_free_r+0x13c>
  407946:	099a      	lsrs	r2, r3, #6
  407948:	f102 0739 	add.w	r7, r2, #57	; 0x39
  40794c:	00ff      	lsls	r7, r7, #3
  40794e:	f102 0538 	add.w	r5, r2, #56	; 0x38
  407952:	19c8      	adds	r0, r1, r7
  407954:	59ca      	ldr	r2, [r1, r7]
  407956:	3808      	subs	r0, #8
  407958:	4290      	cmp	r0, r2
  40795a:	d04f      	beq.n	4079fc <_free_r+0x14c>
  40795c:	6851      	ldr	r1, [r2, #4]
  40795e:	f021 0103 	bic.w	r1, r1, #3
  407962:	428b      	cmp	r3, r1
  407964:	d232      	bcs.n	4079cc <_free_r+0x11c>
  407966:	6892      	ldr	r2, [r2, #8]
  407968:	4290      	cmp	r0, r2
  40796a:	d1f7      	bne.n	40795c <_free_r+0xac>
  40796c:	68c3      	ldr	r3, [r0, #12]
  40796e:	60a0      	str	r0, [r4, #8]
  407970:	60e3      	str	r3, [r4, #12]
  407972:	609c      	str	r4, [r3, #8]
  407974:	60c4      	str	r4, [r0, #12]
  407976:	4640      	mov	r0, r8
  407978:	e8bd 41f0 	ldmia.w	sp!, {r4, r5, r6, r7, r8, lr}
  40797c:	f7fc bab8 	b.w	403ef0 <__malloc_unlock>
  407980:	6895      	ldr	r5, [r2, #8]
  407982:	4f3b      	ldr	r7, [pc, #236]	; (407a70 <_free_r+0x1c0>)
  407984:	42bd      	cmp	r5, r7
  407986:	4403      	add	r3, r0
  407988:	d040      	beq.n	407a0c <_free_r+0x15c>
  40798a:	68d0      	ldr	r0, [r2, #12]
  40798c:	60e8      	str	r0, [r5, #12]
  40798e:	f043 0201 	orr.w	r2, r3, #1
  407992:	6085      	str	r5, [r0, #8]
  407994:	6062      	str	r2, [r4, #4]
  407996:	50e3      	str	r3, [r4, r3]
  407998:	e7b7      	b.n	40790a <_free_r+0x5a>
  40799a:	07ff      	lsls	r7, r7, #31
  40799c:	4403      	add	r3, r0
  40799e:	d407      	bmi.n	4079b0 <_free_r+0x100>
  4079a0:	f855 2c08 	ldr.w	r2, [r5, #-8]
  4079a4:	1aa4      	subs	r4, r4, r2
  4079a6:	4413      	add	r3, r2
  4079a8:	68a0      	ldr	r0, [r4, #8]
  4079aa:	68e2      	ldr	r2, [r4, #12]
  4079ac:	60c2      	str	r2, [r0, #12]
  4079ae:	6090      	str	r0, [r2, #8]
  4079b0:	4a30      	ldr	r2, [pc, #192]	; (407a74 <_free_r+0x1c4>)
  4079b2:	6812      	ldr	r2, [r2, #0]
  4079b4:	f043 0001 	orr.w	r0, r3, #1
  4079b8:	4293      	cmp	r3, r2
  4079ba:	6060      	str	r0, [r4, #4]
  4079bc:	608c      	str	r4, [r1, #8]
  4079be:	d3b9      	bcc.n	407934 <_free_r+0x84>
  4079c0:	4b2d      	ldr	r3, [pc, #180]	; (407a78 <_free_r+0x1c8>)
  4079c2:	4640      	mov	r0, r8
  4079c4:	6819      	ldr	r1, [r3, #0]
  4079c6:	f7ff ff23 	bl	407810 <_malloc_trim_r>
  4079ca:	e7b3      	b.n	407934 <_free_r+0x84>
  4079cc:	4610      	mov	r0, r2
  4079ce:	e7cd      	b.n	40796c <_free_r+0xbc>
  4079d0:	1811      	adds	r1, r2, r0
  4079d2:	6849      	ldr	r1, [r1, #4]
  4079d4:	07c9      	lsls	r1, r1, #31
  4079d6:	d444      	bmi.n	407a62 <_free_r+0x1b2>
  4079d8:	6891      	ldr	r1, [r2, #8]
  4079da:	68d2      	ldr	r2, [r2, #12]
  4079dc:	60ca      	str	r2, [r1, #12]
  4079de:	4403      	add	r3, r0
  4079e0:	f043 0001 	orr.w	r0, r3, #1
  4079e4:	6091      	str	r1, [r2, #8]
  4079e6:	6060      	str	r0, [r4, #4]
  4079e8:	50e3      	str	r3, [r4, r3]
  4079ea:	e7a3      	b.n	407934 <_free_r+0x84>
  4079ec:	2a14      	cmp	r2, #20
  4079ee:	d816      	bhi.n	407a1e <_free_r+0x16e>
  4079f0:	f102 075c 	add.w	r7, r2, #92	; 0x5c
  4079f4:	00ff      	lsls	r7, r7, #3
  4079f6:	f102 055b 	add.w	r5, r2, #91	; 0x5b
  4079fa:	e7aa      	b.n	407952 <_free_r+0xa2>
  4079fc:	10aa      	asrs	r2, r5, #2
  4079fe:	2301      	movs	r3, #1
  407a00:	684d      	ldr	r5, [r1, #4]
  407a02:	4093      	lsls	r3, r2
  407a04:	432b      	orrs	r3, r5
  407a06:	604b      	str	r3, [r1, #4]
  407a08:	4603      	mov	r3, r0
  407a0a:	e7b0      	b.n	40796e <_free_r+0xbe>
  407a0c:	f043 0201 	orr.w	r2, r3, #1
  407a10:	614c      	str	r4, [r1, #20]
  407a12:	610c      	str	r4, [r1, #16]
  407a14:	60e5      	str	r5, [r4, #12]
  407a16:	60a5      	str	r5, [r4, #8]
  407a18:	6062      	str	r2, [r4, #4]
  407a1a:	50e3      	str	r3, [r4, r3]
  407a1c:	e78a      	b.n	407934 <_free_r+0x84>
  407a1e:	2a54      	cmp	r2, #84	; 0x54
  407a20:	d806      	bhi.n	407a30 <_free_r+0x180>
  407a22:	0b1a      	lsrs	r2, r3, #12
  407a24:	f102 076f 	add.w	r7, r2, #111	; 0x6f
  407a28:	00ff      	lsls	r7, r7, #3
  407a2a:	f102 056e 	add.w	r5, r2, #110	; 0x6e
  407a2e:	e790      	b.n	407952 <_free_r+0xa2>
  407a30:	f5b2 7faa 	cmp.w	r2, #340	; 0x154
  407a34:	d806      	bhi.n	407a44 <_free_r+0x194>
  407a36:	0bda      	lsrs	r2, r3, #15
  407a38:	f102 0778 	add.w	r7, r2, #120	; 0x78
  407a3c:	00ff      	lsls	r7, r7, #3
  407a3e:	f102 0577 	add.w	r5, r2, #119	; 0x77
  407a42:	e786      	b.n	407952 <_free_r+0xa2>
  407a44:	f240 5054 	movw	r0, #1364	; 0x554
  407a48:	4282      	cmp	r2, r0
  407a4a:	d806      	bhi.n	407a5a <_free_r+0x1aa>
  407a4c:	0c9a      	lsrs	r2, r3, #18
  407a4e:	f102 077d 	add.w	r7, r2, #125	; 0x7d
  407a52:	00ff      	lsls	r7, r7, #3
  407a54:	f102 057c 	add.w	r5, r2, #124	; 0x7c
  407a58:	e77b      	b.n	407952 <_free_r+0xa2>
  407a5a:	f44f 777e 	mov.w	r7, #1016	; 0x3f8
  407a5e:	257e      	movs	r5, #126	; 0x7e
  407a60:	e777      	b.n	407952 <_free_r+0xa2>
  407a62:	f043 0101 	orr.w	r1, r3, #1
  407a66:	6061      	str	r1, [r4, #4]
  407a68:	6013      	str	r3, [r2, #0]
  407a6a:	e763      	b.n	407934 <_free_r+0x84>
  407a6c:	20400450 	.word	0x20400450
  407a70:	20400458 	.word	0x20400458
  407a74:	2040085c 	.word	0x2040085c
  407a78:	20400ddc 	.word	0x20400ddc

00407a7c <__sfvwrite_r>:
  407a7c:	6893      	ldr	r3, [r2, #8]
  407a7e:	2b00      	cmp	r3, #0
  407a80:	d073      	beq.n	407b6a <__sfvwrite_r+0xee>
  407a82:	e92d 4ff0 	stmdb	sp!, {r4, r5, r6, r7, r8, r9, sl, fp, lr}
  407a86:	898b      	ldrh	r3, [r1, #12]
  407a88:	b083      	sub	sp, #12
  407a8a:	460c      	mov	r4, r1
  407a8c:	0719      	lsls	r1, r3, #28
  407a8e:	9000      	str	r0, [sp, #0]
  407a90:	4616      	mov	r6, r2
  407a92:	d526      	bpl.n	407ae2 <__sfvwrite_r+0x66>
  407a94:	6922      	ldr	r2, [r4, #16]
  407a96:	b322      	cbz	r2, 407ae2 <__sfvwrite_r+0x66>
  407a98:	f013 0002 	ands.w	r0, r3, #2
  407a9c:	6835      	ldr	r5, [r6, #0]
  407a9e:	d02c      	beq.n	407afa <__sfvwrite_r+0x7e>
  407aa0:	f04f 0900 	mov.w	r9, #0
  407aa4:	4fb0      	ldr	r7, [pc, #704]	; (407d68 <__sfvwrite_r+0x2ec>)
  407aa6:	46c8      	mov	r8, r9
  407aa8:	46b2      	mov	sl, r6
  407aaa:	45b8      	cmp	r8, r7
  407aac:	4643      	mov	r3, r8
  407aae:	464a      	mov	r2, r9
  407ab0:	bf28      	it	cs
  407ab2:	463b      	movcs	r3, r7
  407ab4:	9800      	ldr	r0, [sp, #0]
  407ab6:	f1b8 0f00 	cmp.w	r8, #0
  407aba:	d050      	beq.n	407b5e <__sfvwrite_r+0xe2>
  407abc:	69e1      	ldr	r1, [r4, #28]
  407abe:	6a66      	ldr	r6, [r4, #36]	; 0x24
  407ac0:	47b0      	blx	r6
  407ac2:	2800      	cmp	r0, #0
  407ac4:	dd58      	ble.n	407b78 <__sfvwrite_r+0xfc>
  407ac6:	f8da 3008 	ldr.w	r3, [sl, #8]
  407aca:	1a1b      	subs	r3, r3, r0
  407acc:	4481      	add	r9, r0
  407ace:	eba8 0800 	sub.w	r8, r8, r0
  407ad2:	f8ca 3008 	str.w	r3, [sl, #8]
  407ad6:	2b00      	cmp	r3, #0
  407ad8:	d1e7      	bne.n	407aaa <__sfvwrite_r+0x2e>
  407ada:	2000      	movs	r0, #0
  407adc:	b003      	add	sp, #12
  407ade:	e8bd 8ff0 	ldmia.w	sp!, {r4, r5, r6, r7, r8, r9, sl, fp, pc}
  407ae2:	4621      	mov	r1, r4
  407ae4:	9800      	ldr	r0, [sp, #0]
  407ae6:	f7fe fc91 	bl	40640c <__swsetup_r>
  407aea:	2800      	cmp	r0, #0
  407aec:	f040 8133 	bne.w	407d56 <__sfvwrite_r+0x2da>
  407af0:	89a3      	ldrh	r3, [r4, #12]
  407af2:	6835      	ldr	r5, [r6, #0]
  407af4:	f013 0002 	ands.w	r0, r3, #2
  407af8:	d1d2      	bne.n	407aa0 <__sfvwrite_r+0x24>
  407afa:	f013 0901 	ands.w	r9, r3, #1
  407afe:	d145      	bne.n	407b8c <__sfvwrite_r+0x110>
  407b00:	464f      	mov	r7, r9
  407b02:	9601      	str	r6, [sp, #4]
  407b04:	b337      	cbz	r7, 407b54 <__sfvwrite_r+0xd8>
  407b06:	059a      	lsls	r2, r3, #22
  407b08:	f8d4 8008 	ldr.w	r8, [r4, #8]
  407b0c:	f140 8083 	bpl.w	407c16 <__sfvwrite_r+0x19a>
  407b10:	4547      	cmp	r7, r8
  407b12:	46c3      	mov	fp, r8
  407b14:	f0c0 80ab 	bcc.w	407c6e <__sfvwrite_r+0x1f2>
  407b18:	f413 6f90 	tst.w	r3, #1152	; 0x480
  407b1c:	f040 80ac 	bne.w	407c78 <__sfvwrite_r+0x1fc>
  407b20:	6820      	ldr	r0, [r4, #0]
  407b22:	46ba      	mov	sl, r7
  407b24:	465a      	mov	r2, fp
  407b26:	4649      	mov	r1, r9
  407b28:	f000 fa52 	bl	407fd0 <memmove>
  407b2c:	68a2      	ldr	r2, [r4, #8]
  407b2e:	6823      	ldr	r3, [r4, #0]
  407b30:	eba2 0208 	sub.w	r2, r2, r8
  407b34:	445b      	add	r3, fp
  407b36:	60a2      	str	r2, [r4, #8]
  407b38:	6023      	str	r3, [r4, #0]
  407b3a:	9a01      	ldr	r2, [sp, #4]
  407b3c:	6893      	ldr	r3, [r2, #8]
  407b3e:	eba3 030a 	sub.w	r3, r3, sl
  407b42:	44d1      	add	r9, sl
  407b44:	eba7 070a 	sub.w	r7, r7, sl
  407b48:	6093      	str	r3, [r2, #8]
  407b4a:	2b00      	cmp	r3, #0
  407b4c:	d0c5      	beq.n	407ada <__sfvwrite_r+0x5e>
  407b4e:	89a3      	ldrh	r3, [r4, #12]
  407b50:	2f00      	cmp	r7, #0
  407b52:	d1d8      	bne.n	407b06 <__sfvwrite_r+0x8a>
  407b54:	f8d5 9000 	ldr.w	r9, [r5]
  407b58:	686f      	ldr	r7, [r5, #4]
  407b5a:	3508      	adds	r5, #8
  407b5c:	e7d2      	b.n	407b04 <__sfvwrite_r+0x88>
  407b5e:	f8d5 9000 	ldr.w	r9, [r5]
  407b62:	f8d5 8004 	ldr.w	r8, [r5, #4]
  407b66:	3508      	adds	r5, #8
  407b68:	e79f      	b.n	407aaa <__sfvwrite_r+0x2e>
  407b6a:	2000      	movs	r0, #0
  407b6c:	4770      	bx	lr
  407b6e:	4621      	mov	r1, r4
  407b70:	9800      	ldr	r0, [sp, #0]
  407b72:	f7ff fd1f 	bl	4075b4 <_fflush_r>
  407b76:	b370      	cbz	r0, 407bd6 <__sfvwrite_r+0x15a>
  407b78:	f9b4 300c 	ldrsh.w	r3, [r4, #12]
  407b7c:	f043 0340 	orr.w	r3, r3, #64	; 0x40
  407b80:	f04f 30ff 	mov.w	r0, #4294967295
  407b84:	81a3      	strh	r3, [r4, #12]
  407b86:	b003      	add	sp, #12
  407b88:	e8bd 8ff0 	ldmia.w	sp!, {r4, r5, r6, r7, r8, r9, sl, fp, pc}
  407b8c:	4681      	mov	r9, r0
  407b8e:	4633      	mov	r3, r6
  407b90:	464e      	mov	r6, r9
  407b92:	46a8      	mov	r8, r5
  407b94:	469a      	mov	sl, r3
  407b96:	464d      	mov	r5, r9
  407b98:	b34e      	cbz	r6, 407bee <__sfvwrite_r+0x172>
  407b9a:	b380      	cbz	r0, 407bfe <__sfvwrite_r+0x182>
  407b9c:	6820      	ldr	r0, [r4, #0]
  407b9e:	6923      	ldr	r3, [r4, #16]
  407ba0:	6962      	ldr	r2, [r4, #20]
  407ba2:	45b1      	cmp	r9, r6
  407ba4:	46cb      	mov	fp, r9
  407ba6:	bf28      	it	cs
  407ba8:	46b3      	movcs	fp, r6
  407baa:	4298      	cmp	r0, r3
  407bac:	465f      	mov	r7, fp
  407bae:	d904      	bls.n	407bba <__sfvwrite_r+0x13e>
  407bb0:	68a3      	ldr	r3, [r4, #8]
  407bb2:	4413      	add	r3, r2
  407bb4:	459b      	cmp	fp, r3
  407bb6:	f300 80a6 	bgt.w	407d06 <__sfvwrite_r+0x28a>
  407bba:	4593      	cmp	fp, r2
  407bbc:	db4b      	blt.n	407c56 <__sfvwrite_r+0x1da>
  407bbe:	4613      	mov	r3, r2
  407bc0:	6a67      	ldr	r7, [r4, #36]	; 0x24
  407bc2:	69e1      	ldr	r1, [r4, #28]
  407bc4:	9800      	ldr	r0, [sp, #0]
  407bc6:	462a      	mov	r2, r5
  407bc8:	47b8      	blx	r7
  407bca:	1e07      	subs	r7, r0, #0
  407bcc:	ddd4      	ble.n	407b78 <__sfvwrite_r+0xfc>
  407bce:	ebb9 0907 	subs.w	r9, r9, r7
  407bd2:	d0cc      	beq.n	407b6e <__sfvwrite_r+0xf2>
  407bd4:	2001      	movs	r0, #1
  407bd6:	f8da 3008 	ldr.w	r3, [sl, #8]
  407bda:	1bdb      	subs	r3, r3, r7
  407bdc:	443d      	add	r5, r7
  407bde:	1bf6      	subs	r6, r6, r7
  407be0:	f8ca 3008 	str.w	r3, [sl, #8]
  407be4:	2b00      	cmp	r3, #0
  407be6:	f43f af78 	beq.w	407ada <__sfvwrite_r+0x5e>
  407bea:	2e00      	cmp	r6, #0
  407bec:	d1d5      	bne.n	407b9a <__sfvwrite_r+0x11e>
  407bee:	f108 0308 	add.w	r3, r8, #8
  407bf2:	e913 0060 	ldmdb	r3, {r5, r6}
  407bf6:	4698      	mov	r8, r3
  407bf8:	3308      	adds	r3, #8
  407bfa:	2e00      	cmp	r6, #0
  407bfc:	d0f9      	beq.n	407bf2 <__sfvwrite_r+0x176>
  407bfe:	4632      	mov	r2, r6
  407c00:	210a      	movs	r1, #10
  407c02:	4628      	mov	r0, r5
  407c04:	f000 f994 	bl	407f30 <memchr>
  407c08:	2800      	cmp	r0, #0
  407c0a:	f000 80a1 	beq.w	407d50 <__sfvwrite_r+0x2d4>
  407c0e:	3001      	adds	r0, #1
  407c10:	eba0 0905 	sub.w	r9, r0, r5
  407c14:	e7c2      	b.n	407b9c <__sfvwrite_r+0x120>
  407c16:	6820      	ldr	r0, [r4, #0]
  407c18:	6923      	ldr	r3, [r4, #16]
  407c1a:	4298      	cmp	r0, r3
  407c1c:	d802      	bhi.n	407c24 <__sfvwrite_r+0x1a8>
  407c1e:	6963      	ldr	r3, [r4, #20]
  407c20:	429f      	cmp	r7, r3
  407c22:	d25d      	bcs.n	407ce0 <__sfvwrite_r+0x264>
  407c24:	45b8      	cmp	r8, r7
  407c26:	bf28      	it	cs
  407c28:	46b8      	movcs	r8, r7
  407c2a:	4642      	mov	r2, r8
  407c2c:	4649      	mov	r1, r9
  407c2e:	f000 f9cf 	bl	407fd0 <memmove>
  407c32:	68a3      	ldr	r3, [r4, #8]
  407c34:	6822      	ldr	r2, [r4, #0]
  407c36:	eba3 0308 	sub.w	r3, r3, r8
  407c3a:	4442      	add	r2, r8
  407c3c:	60a3      	str	r3, [r4, #8]
  407c3e:	6022      	str	r2, [r4, #0]
  407c40:	b10b      	cbz	r3, 407c46 <__sfvwrite_r+0x1ca>
  407c42:	46c2      	mov	sl, r8
  407c44:	e779      	b.n	407b3a <__sfvwrite_r+0xbe>
  407c46:	4621      	mov	r1, r4
  407c48:	9800      	ldr	r0, [sp, #0]
  407c4a:	f7ff fcb3 	bl	4075b4 <_fflush_r>
  407c4e:	2800      	cmp	r0, #0
  407c50:	d192      	bne.n	407b78 <__sfvwrite_r+0xfc>
  407c52:	46c2      	mov	sl, r8
  407c54:	e771      	b.n	407b3a <__sfvwrite_r+0xbe>
  407c56:	465a      	mov	r2, fp
  407c58:	4629      	mov	r1, r5
  407c5a:	f000 f9b9 	bl	407fd0 <memmove>
  407c5e:	68a2      	ldr	r2, [r4, #8]
  407c60:	6823      	ldr	r3, [r4, #0]
  407c62:	eba2 020b 	sub.w	r2, r2, fp
  407c66:	445b      	add	r3, fp
  407c68:	60a2      	str	r2, [r4, #8]
  407c6a:	6023      	str	r3, [r4, #0]
  407c6c:	e7af      	b.n	407bce <__sfvwrite_r+0x152>
  407c6e:	6820      	ldr	r0, [r4, #0]
  407c70:	46b8      	mov	r8, r7
  407c72:	46ba      	mov	sl, r7
  407c74:	46bb      	mov	fp, r7
  407c76:	e755      	b.n	407b24 <__sfvwrite_r+0xa8>
  407c78:	6962      	ldr	r2, [r4, #20]
  407c7a:	6820      	ldr	r0, [r4, #0]
  407c7c:	6921      	ldr	r1, [r4, #16]
  407c7e:	eb02 0842 	add.w	r8, r2, r2, lsl #1
  407c82:	eba0 0a01 	sub.w	sl, r0, r1
  407c86:	eb08 78d8 	add.w	r8, r8, r8, lsr #31
  407c8a:	f10a 0001 	add.w	r0, sl, #1
  407c8e:	ea4f 0868 	mov.w	r8, r8, asr #1
  407c92:	4438      	add	r0, r7
  407c94:	4540      	cmp	r0, r8
  407c96:	4642      	mov	r2, r8
  407c98:	bf84      	itt	hi
  407c9a:	4680      	movhi	r8, r0
  407c9c:	4642      	movhi	r2, r8
  407c9e:	055b      	lsls	r3, r3, #21
  407ca0:	d544      	bpl.n	407d2c <__sfvwrite_r+0x2b0>
  407ca2:	4611      	mov	r1, r2
  407ca4:	9800      	ldr	r0, [sp, #0]
  407ca6:	f7fb fd85 	bl	4037b4 <_malloc_r>
  407caa:	4683      	mov	fp, r0
  407cac:	2800      	cmp	r0, #0
  407cae:	d055      	beq.n	407d5c <__sfvwrite_r+0x2e0>
  407cb0:	4652      	mov	r2, sl
  407cb2:	6921      	ldr	r1, [r4, #16]
  407cb4:	f7fc f82e 	bl	403d14 <memcpy>
  407cb8:	89a3      	ldrh	r3, [r4, #12]
  407cba:	f423 6390 	bic.w	r3, r3, #1152	; 0x480
  407cbe:	f043 0380 	orr.w	r3, r3, #128	; 0x80
  407cc2:	81a3      	strh	r3, [r4, #12]
  407cc4:	eb0b 000a 	add.w	r0, fp, sl
  407cc8:	eba8 030a 	sub.w	r3, r8, sl
  407ccc:	f8c4 b010 	str.w	fp, [r4, #16]
  407cd0:	f8c4 8014 	str.w	r8, [r4, #20]
  407cd4:	6020      	str	r0, [r4, #0]
  407cd6:	60a3      	str	r3, [r4, #8]
  407cd8:	46b8      	mov	r8, r7
  407cda:	46ba      	mov	sl, r7
  407cdc:	46bb      	mov	fp, r7
  407cde:	e721      	b.n	407b24 <__sfvwrite_r+0xa8>
  407ce0:	f06f 4100 	mvn.w	r1, #2147483648	; 0x80000000
  407ce4:	42b9      	cmp	r1, r7
  407ce6:	bf28      	it	cs
  407ce8:	4639      	movcs	r1, r7
  407cea:	464a      	mov	r2, r9
  407cec:	fb91 f1f3 	sdiv	r1, r1, r3
  407cf0:	9800      	ldr	r0, [sp, #0]
  407cf2:	6a66      	ldr	r6, [r4, #36]	; 0x24
  407cf4:	fb03 f301 	mul.w	r3, r3, r1
  407cf8:	69e1      	ldr	r1, [r4, #28]
  407cfa:	47b0      	blx	r6
  407cfc:	f1b0 0a00 	subs.w	sl, r0, #0
  407d00:	f73f af1b 	bgt.w	407b3a <__sfvwrite_r+0xbe>
  407d04:	e738      	b.n	407b78 <__sfvwrite_r+0xfc>
  407d06:	461a      	mov	r2, r3
  407d08:	4629      	mov	r1, r5
  407d0a:	9301      	str	r3, [sp, #4]
  407d0c:	f000 f960 	bl	407fd0 <memmove>
  407d10:	6822      	ldr	r2, [r4, #0]
  407d12:	9b01      	ldr	r3, [sp, #4]
  407d14:	9800      	ldr	r0, [sp, #0]
  407d16:	441a      	add	r2, r3
  407d18:	6022      	str	r2, [r4, #0]
  407d1a:	4621      	mov	r1, r4
  407d1c:	f7ff fc4a 	bl	4075b4 <_fflush_r>
  407d20:	9b01      	ldr	r3, [sp, #4]
  407d22:	2800      	cmp	r0, #0
  407d24:	f47f af28 	bne.w	407b78 <__sfvwrite_r+0xfc>
  407d28:	461f      	mov	r7, r3
  407d2a:	e750      	b.n	407bce <__sfvwrite_r+0x152>
  407d2c:	9800      	ldr	r0, [sp, #0]
  407d2e:	f000 fcad 	bl	40868c <_realloc_r>
  407d32:	4683      	mov	fp, r0
  407d34:	2800      	cmp	r0, #0
  407d36:	d1c5      	bne.n	407cc4 <__sfvwrite_r+0x248>
  407d38:	9d00      	ldr	r5, [sp, #0]
  407d3a:	6921      	ldr	r1, [r4, #16]
  407d3c:	4628      	mov	r0, r5
  407d3e:	f7ff fdb7 	bl	4078b0 <_free_r>
  407d42:	f9b4 300c 	ldrsh.w	r3, [r4, #12]
  407d46:	220c      	movs	r2, #12
  407d48:	f023 0380 	bic.w	r3, r3, #128	; 0x80
  407d4c:	602a      	str	r2, [r5, #0]
  407d4e:	e715      	b.n	407b7c <__sfvwrite_r+0x100>
  407d50:	f106 0901 	add.w	r9, r6, #1
  407d54:	e722      	b.n	407b9c <__sfvwrite_r+0x120>
  407d56:	f04f 30ff 	mov.w	r0, #4294967295
  407d5a:	e6bf      	b.n	407adc <__sfvwrite_r+0x60>
  407d5c:	9a00      	ldr	r2, [sp, #0]
  407d5e:	230c      	movs	r3, #12
  407d60:	6013      	str	r3, [r2, #0]
  407d62:	f9b4 300c 	ldrsh.w	r3, [r4, #12]
  407d66:	e709      	b.n	407b7c <__sfvwrite_r+0x100>
  407d68:	7ffffc00 	.word	0x7ffffc00

00407d6c <_fwalk_reent>:
  407d6c:	e92d 43f8 	stmdb	sp!, {r3, r4, r5, r6, r7, r8, r9, lr}
  407d70:	f510 7738 	adds.w	r7, r0, #736	; 0x2e0
  407d74:	d01f      	beq.n	407db6 <_fwalk_reent+0x4a>
  407d76:	4688      	mov	r8, r1
  407d78:	4606      	mov	r6, r0
  407d7a:	f04f 0900 	mov.w	r9, #0
  407d7e:	687d      	ldr	r5, [r7, #4]
  407d80:	68bc      	ldr	r4, [r7, #8]
  407d82:	3d01      	subs	r5, #1
  407d84:	d411      	bmi.n	407daa <_fwalk_reent+0x3e>
  407d86:	89a3      	ldrh	r3, [r4, #12]
  407d88:	2b01      	cmp	r3, #1
  407d8a:	f105 35ff 	add.w	r5, r5, #4294967295
  407d8e:	d908      	bls.n	407da2 <_fwalk_reent+0x36>
  407d90:	f9b4 300e 	ldrsh.w	r3, [r4, #14]
  407d94:	3301      	adds	r3, #1
  407d96:	4621      	mov	r1, r4
  407d98:	4630      	mov	r0, r6
  407d9a:	d002      	beq.n	407da2 <_fwalk_reent+0x36>
  407d9c:	47c0      	blx	r8
  407d9e:	ea49 0900 	orr.w	r9, r9, r0
  407da2:	1c6b      	adds	r3, r5, #1
  407da4:	f104 0468 	add.w	r4, r4, #104	; 0x68
  407da8:	d1ed      	bne.n	407d86 <_fwalk_reent+0x1a>
  407daa:	683f      	ldr	r7, [r7, #0]
  407dac:	2f00      	cmp	r7, #0
  407dae:	d1e6      	bne.n	407d7e <_fwalk_reent+0x12>
  407db0:	4648      	mov	r0, r9
  407db2:	e8bd 83f8 	ldmia.w	sp!, {r3, r4, r5, r6, r7, r8, r9, pc}
  407db6:	46b9      	mov	r9, r7
  407db8:	4648      	mov	r0, r9
  407dba:	e8bd 83f8 	ldmia.w	sp!, {r3, r4, r5, r6, r7, r8, r9, pc}
  407dbe:	bf00      	nop

00407dc0 <__locale_mb_cur_max>:
  407dc0:	4b04      	ldr	r3, [pc, #16]	; (407dd4 <__locale_mb_cur_max+0x14>)
  407dc2:	4a05      	ldr	r2, [pc, #20]	; (407dd8 <__locale_mb_cur_max+0x18>)
  407dc4:	681b      	ldr	r3, [r3, #0]
  407dc6:	6b5b      	ldr	r3, [r3, #52]	; 0x34
  407dc8:	2b00      	cmp	r3, #0
  407dca:	bf08      	it	eq
  407dcc:	4613      	moveq	r3, r2
  407dce:	f893 0128 	ldrb.w	r0, [r3, #296]	; 0x128
  407dd2:	4770      	bx	lr
  407dd4:	20400024 	.word	0x20400024
  407dd8:	20400864 	.word	0x20400864

00407ddc <_localeconv_r>:
  407ddc:	4a04      	ldr	r2, [pc, #16]	; (407df0 <_localeconv_r+0x14>)
  407dde:	4b05      	ldr	r3, [pc, #20]	; (407df4 <_localeconv_r+0x18>)
  407de0:	6812      	ldr	r2, [r2, #0]
  407de2:	6b50      	ldr	r0, [r2, #52]	; 0x34
  407de4:	2800      	cmp	r0, #0
  407de6:	bf08      	it	eq
  407de8:	4618      	moveq	r0, r3
  407dea:	30f0      	adds	r0, #240	; 0xf0
  407dec:	4770      	bx	lr
  407dee:	bf00      	nop
  407df0:	20400024 	.word	0x20400024
  407df4:	20400864 	.word	0x20400864

00407df8 <__retarget_lock_init_recursive>:
  407df8:	4770      	bx	lr
  407dfa:	bf00      	nop

00407dfc <__retarget_lock_close_recursive>:
  407dfc:	4770      	bx	lr
  407dfe:	bf00      	nop

00407e00 <__retarget_lock_acquire_recursive>:
  407e00:	4770      	bx	lr
  407e02:	bf00      	nop

00407e04 <__retarget_lock_release_recursive>:
  407e04:	4770      	bx	lr
  407e06:	bf00      	nop

00407e08 <__swhatbuf_r>:
  407e08:	b570      	push	{r4, r5, r6, lr}
  407e0a:	460c      	mov	r4, r1
  407e0c:	f9b1 100e 	ldrsh.w	r1, [r1, #14]
  407e10:	2900      	cmp	r1, #0
  407e12:	b090      	sub	sp, #64	; 0x40
  407e14:	4615      	mov	r5, r2
  407e16:	461e      	mov	r6, r3
  407e18:	db14      	blt.n	407e44 <__swhatbuf_r+0x3c>
  407e1a:	aa01      	add	r2, sp, #4
  407e1c:	f001 f84a 	bl	408eb4 <_fstat_r>
  407e20:	2800      	cmp	r0, #0
  407e22:	db0f      	blt.n	407e44 <__swhatbuf_r+0x3c>
  407e24:	9a02      	ldr	r2, [sp, #8]
  407e26:	f402 4270 	and.w	r2, r2, #61440	; 0xf000
  407e2a:	f5a2 5200 	sub.w	r2, r2, #8192	; 0x2000
  407e2e:	fab2 f282 	clz	r2, r2
  407e32:	0952      	lsrs	r2, r2, #5
  407e34:	f44f 6380 	mov.w	r3, #1024	; 0x400
  407e38:	f44f 6000 	mov.w	r0, #2048	; 0x800
  407e3c:	6032      	str	r2, [r6, #0]
  407e3e:	602b      	str	r3, [r5, #0]
  407e40:	b010      	add	sp, #64	; 0x40
  407e42:	bd70      	pop	{r4, r5, r6, pc}
  407e44:	89a2      	ldrh	r2, [r4, #12]
  407e46:	2300      	movs	r3, #0
  407e48:	f012 0080 	ands.w	r0, r2, #128	; 0x80
  407e4c:	6033      	str	r3, [r6, #0]
  407e4e:	d004      	beq.n	407e5a <__swhatbuf_r+0x52>
  407e50:	2240      	movs	r2, #64	; 0x40
  407e52:	4618      	mov	r0, r3
  407e54:	602a      	str	r2, [r5, #0]
  407e56:	b010      	add	sp, #64	; 0x40
  407e58:	bd70      	pop	{r4, r5, r6, pc}
  407e5a:	f44f 6380 	mov.w	r3, #1024	; 0x400
  407e5e:	602b      	str	r3, [r5, #0]
  407e60:	b010      	add	sp, #64	; 0x40
  407e62:	bd70      	pop	{r4, r5, r6, pc}

00407e64 <__smakebuf_r>:
  407e64:	898a      	ldrh	r2, [r1, #12]
  407e66:	0792      	lsls	r2, r2, #30
  407e68:	460b      	mov	r3, r1
  407e6a:	d506      	bpl.n	407e7a <__smakebuf_r+0x16>
  407e6c:	f101 0243 	add.w	r2, r1, #67	; 0x43
  407e70:	2101      	movs	r1, #1
  407e72:	601a      	str	r2, [r3, #0]
  407e74:	611a      	str	r2, [r3, #16]
  407e76:	6159      	str	r1, [r3, #20]
  407e78:	4770      	bx	lr
  407e7a:	b5f0      	push	{r4, r5, r6, r7, lr}
  407e7c:	b083      	sub	sp, #12
  407e7e:	ab01      	add	r3, sp, #4
  407e80:	466a      	mov	r2, sp
  407e82:	460c      	mov	r4, r1
  407e84:	4606      	mov	r6, r0
  407e86:	f7ff ffbf 	bl	407e08 <__swhatbuf_r>
  407e8a:	9900      	ldr	r1, [sp, #0]
  407e8c:	4605      	mov	r5, r0
  407e8e:	4630      	mov	r0, r6
  407e90:	f7fb fc90 	bl	4037b4 <_malloc_r>
  407e94:	f9b4 300c 	ldrsh.w	r3, [r4, #12]
  407e98:	b1d8      	cbz	r0, 407ed2 <__smakebuf_r+0x6e>
  407e9a:	9a01      	ldr	r2, [sp, #4]
  407e9c:	4f15      	ldr	r7, [pc, #84]	; (407ef4 <__smakebuf_r+0x90>)
  407e9e:	9900      	ldr	r1, [sp, #0]
  407ea0:	63f7      	str	r7, [r6, #60]	; 0x3c
  407ea2:	f043 0380 	orr.w	r3, r3, #128	; 0x80
  407ea6:	81a3      	strh	r3, [r4, #12]
  407ea8:	6020      	str	r0, [r4, #0]
  407eaa:	6120      	str	r0, [r4, #16]
  407eac:	6161      	str	r1, [r4, #20]
  407eae:	b91a      	cbnz	r2, 407eb8 <__smakebuf_r+0x54>
  407eb0:	432b      	orrs	r3, r5
  407eb2:	81a3      	strh	r3, [r4, #12]
  407eb4:	b003      	add	sp, #12
  407eb6:	bdf0      	pop	{r4, r5, r6, r7, pc}
  407eb8:	4630      	mov	r0, r6
  407eba:	f9b4 100e 	ldrsh.w	r1, [r4, #14]
  407ebe:	f001 f80d 	bl	408edc <_isatty_r>
  407ec2:	b1a0      	cbz	r0, 407eee <__smakebuf_r+0x8a>
  407ec4:	89a3      	ldrh	r3, [r4, #12]
  407ec6:	f023 0303 	bic.w	r3, r3, #3
  407eca:	f043 0301 	orr.w	r3, r3, #1
  407ece:	b21b      	sxth	r3, r3
  407ed0:	e7ee      	b.n	407eb0 <__smakebuf_r+0x4c>
  407ed2:	059a      	lsls	r2, r3, #22
  407ed4:	d4ee      	bmi.n	407eb4 <__smakebuf_r+0x50>
  407ed6:	f023 0303 	bic.w	r3, r3, #3
  407eda:	f104 0243 	add.w	r2, r4, #67	; 0x43
  407ede:	f043 0302 	orr.w	r3, r3, #2
  407ee2:	2101      	movs	r1, #1
  407ee4:	81a3      	strh	r3, [r4, #12]
  407ee6:	6022      	str	r2, [r4, #0]
  407ee8:	6122      	str	r2, [r4, #16]
  407eea:	6161      	str	r1, [r4, #20]
  407eec:	e7e2      	b.n	407eb4 <__smakebuf_r+0x50>
  407eee:	f9b4 300c 	ldrsh.w	r3, [r4, #12]
  407ef2:	e7dd      	b.n	407eb0 <__smakebuf_r+0x4c>
  407ef4:	00407609 	.word	0x00407609

00407ef8 <__ascii_mbtowc>:
  407ef8:	b082      	sub	sp, #8
  407efa:	b149      	cbz	r1, 407f10 <__ascii_mbtowc+0x18>
  407efc:	b15a      	cbz	r2, 407f16 <__ascii_mbtowc+0x1e>
  407efe:	b16b      	cbz	r3, 407f1c <__ascii_mbtowc+0x24>
  407f00:	7813      	ldrb	r3, [r2, #0]
  407f02:	600b      	str	r3, [r1, #0]
  407f04:	7812      	ldrb	r2, [r2, #0]
  407f06:	1c10      	adds	r0, r2, #0
  407f08:	bf18      	it	ne
  407f0a:	2001      	movne	r0, #1
  407f0c:	b002      	add	sp, #8
  407f0e:	4770      	bx	lr
  407f10:	a901      	add	r1, sp, #4
  407f12:	2a00      	cmp	r2, #0
  407f14:	d1f3      	bne.n	407efe <__ascii_mbtowc+0x6>
  407f16:	4610      	mov	r0, r2
  407f18:	b002      	add	sp, #8
  407f1a:	4770      	bx	lr
  407f1c:	f06f 0001 	mvn.w	r0, #1
  407f20:	e7f4      	b.n	407f0c <__ascii_mbtowc+0x14>
  407f22:	bf00      	nop
	...

00407f30 <memchr>:
  407f30:	f001 01ff 	and.w	r1, r1, #255	; 0xff
  407f34:	2a10      	cmp	r2, #16
  407f36:	db2b      	blt.n	407f90 <memchr+0x60>
  407f38:	f010 0f07 	tst.w	r0, #7
  407f3c:	d008      	beq.n	407f50 <memchr+0x20>
  407f3e:	f810 3b01 	ldrb.w	r3, [r0], #1
  407f42:	3a01      	subs	r2, #1
  407f44:	428b      	cmp	r3, r1
  407f46:	d02d      	beq.n	407fa4 <memchr+0x74>
  407f48:	f010 0f07 	tst.w	r0, #7
  407f4c:	b342      	cbz	r2, 407fa0 <memchr+0x70>
  407f4e:	d1f6      	bne.n	407f3e <memchr+0xe>
  407f50:	b4f0      	push	{r4, r5, r6, r7}
  407f52:	ea41 2101 	orr.w	r1, r1, r1, lsl #8
  407f56:	ea41 4101 	orr.w	r1, r1, r1, lsl #16
  407f5a:	f022 0407 	bic.w	r4, r2, #7
  407f5e:	f07f 0700 	mvns.w	r7, #0
  407f62:	2300      	movs	r3, #0
  407f64:	e8f0 5602 	ldrd	r5, r6, [r0], #8
  407f68:	3c08      	subs	r4, #8
  407f6a:	ea85 0501 	eor.w	r5, r5, r1
  407f6e:	ea86 0601 	eor.w	r6, r6, r1
  407f72:	fa85 f547 	uadd8	r5, r5, r7
  407f76:	faa3 f587 	sel	r5, r3, r7
  407f7a:	fa86 f647 	uadd8	r6, r6, r7
  407f7e:	faa5 f687 	sel	r6, r5, r7
  407f82:	b98e      	cbnz	r6, 407fa8 <memchr+0x78>
  407f84:	d1ee      	bne.n	407f64 <memchr+0x34>
  407f86:	bcf0      	pop	{r4, r5, r6, r7}
  407f88:	f001 01ff 	and.w	r1, r1, #255	; 0xff
  407f8c:	f002 0207 	and.w	r2, r2, #7
  407f90:	b132      	cbz	r2, 407fa0 <memchr+0x70>
  407f92:	f810 3b01 	ldrb.w	r3, [r0], #1
  407f96:	3a01      	subs	r2, #1
  407f98:	ea83 0301 	eor.w	r3, r3, r1
  407f9c:	b113      	cbz	r3, 407fa4 <memchr+0x74>
  407f9e:	d1f8      	bne.n	407f92 <memchr+0x62>
  407fa0:	2000      	movs	r0, #0
  407fa2:	4770      	bx	lr
  407fa4:	3801      	subs	r0, #1
  407fa6:	4770      	bx	lr
  407fa8:	2d00      	cmp	r5, #0
  407faa:	bf06      	itte	eq
  407fac:	4635      	moveq	r5, r6
  407fae:	3803      	subeq	r0, #3
  407fb0:	3807      	subne	r0, #7
  407fb2:	f015 0f01 	tst.w	r5, #1
  407fb6:	d107      	bne.n	407fc8 <memchr+0x98>
  407fb8:	3001      	adds	r0, #1
  407fba:	f415 7f80 	tst.w	r5, #256	; 0x100
  407fbe:	bf02      	ittt	eq
  407fc0:	3001      	addeq	r0, #1
  407fc2:	f415 3fc0 	tsteq.w	r5, #98304	; 0x18000
  407fc6:	3001      	addeq	r0, #1
  407fc8:	bcf0      	pop	{r4, r5, r6, r7}
  407fca:	3801      	subs	r0, #1
  407fcc:	4770      	bx	lr
  407fce:	bf00      	nop

00407fd0 <memmove>:
  407fd0:	4288      	cmp	r0, r1
  407fd2:	b5f0      	push	{r4, r5, r6, r7, lr}
  407fd4:	d90d      	bls.n	407ff2 <memmove+0x22>
  407fd6:	188b      	adds	r3, r1, r2
  407fd8:	4298      	cmp	r0, r3
  407fda:	d20a      	bcs.n	407ff2 <memmove+0x22>
  407fdc:	1884      	adds	r4, r0, r2
  407fde:	2a00      	cmp	r2, #0
  407fe0:	d051      	beq.n	408086 <memmove+0xb6>
  407fe2:	4622      	mov	r2, r4
  407fe4:	f813 4d01 	ldrb.w	r4, [r3, #-1]!
  407fe8:	f802 4d01 	strb.w	r4, [r2, #-1]!
  407fec:	4299      	cmp	r1, r3
  407fee:	d1f9      	bne.n	407fe4 <memmove+0x14>
  407ff0:	bdf0      	pop	{r4, r5, r6, r7, pc}
  407ff2:	2a0f      	cmp	r2, #15
  407ff4:	d948      	bls.n	408088 <memmove+0xb8>
  407ff6:	ea41 0300 	orr.w	r3, r1, r0
  407ffa:	079b      	lsls	r3, r3, #30
  407ffc:	d146      	bne.n	40808c <memmove+0xbc>
  407ffe:	f100 0410 	add.w	r4, r0, #16
  408002:	f101 0310 	add.w	r3, r1, #16
  408006:	4615      	mov	r5, r2
  408008:	f853 6c10 	ldr.w	r6, [r3, #-16]
  40800c:	f844 6c10 	str.w	r6, [r4, #-16]
  408010:	f853 6c0c 	ldr.w	r6, [r3, #-12]
  408014:	f844 6c0c 	str.w	r6, [r4, #-12]
  408018:	f853 6c08 	ldr.w	r6, [r3, #-8]
  40801c:	f844 6c08 	str.w	r6, [r4, #-8]
  408020:	3d10      	subs	r5, #16
  408022:	f853 6c04 	ldr.w	r6, [r3, #-4]
  408026:	f844 6c04 	str.w	r6, [r4, #-4]
  40802a:	2d0f      	cmp	r5, #15
  40802c:	f103 0310 	add.w	r3, r3, #16
  408030:	f104 0410 	add.w	r4, r4, #16
  408034:	d8e8      	bhi.n	408008 <memmove+0x38>
  408036:	f1a2 0310 	sub.w	r3, r2, #16
  40803a:	f023 030f 	bic.w	r3, r3, #15
  40803e:	f002 0e0f 	and.w	lr, r2, #15
  408042:	3310      	adds	r3, #16
  408044:	f1be 0f03 	cmp.w	lr, #3
  408048:	4419      	add	r1, r3
  40804a:	4403      	add	r3, r0
  40804c:	d921      	bls.n	408092 <memmove+0xc2>
  40804e:	1f1e      	subs	r6, r3, #4
  408050:	460d      	mov	r5, r1
  408052:	4674      	mov	r4, lr
  408054:	3c04      	subs	r4, #4
  408056:	f855 7b04 	ldr.w	r7, [r5], #4
  40805a:	f846 7f04 	str.w	r7, [r6, #4]!
  40805e:	2c03      	cmp	r4, #3
  408060:	d8f8      	bhi.n	408054 <memmove+0x84>
  408062:	f1ae 0404 	sub.w	r4, lr, #4
  408066:	f024 0403 	bic.w	r4, r4, #3
  40806a:	3404      	adds	r4, #4
  40806c:	4421      	add	r1, r4
  40806e:	4423      	add	r3, r4
  408070:	f002 0203 	and.w	r2, r2, #3
  408074:	b162      	cbz	r2, 408090 <memmove+0xc0>
  408076:	3b01      	subs	r3, #1
  408078:	440a      	add	r2, r1
  40807a:	f811 4b01 	ldrb.w	r4, [r1], #1
  40807e:	f803 4f01 	strb.w	r4, [r3, #1]!
  408082:	428a      	cmp	r2, r1
  408084:	d1f9      	bne.n	40807a <memmove+0xaa>
  408086:	bdf0      	pop	{r4, r5, r6, r7, pc}
  408088:	4603      	mov	r3, r0
  40808a:	e7f3      	b.n	408074 <memmove+0xa4>
  40808c:	4603      	mov	r3, r0
  40808e:	e7f2      	b.n	408076 <memmove+0xa6>
  408090:	bdf0      	pop	{r4, r5, r6, r7, pc}
  408092:	4672      	mov	r2, lr
  408094:	e7ee      	b.n	408074 <memmove+0xa4>
  408096:	bf00      	nop

00408098 <_Balloc>:
  408098:	6cc3      	ldr	r3, [r0, #76]	; 0x4c
  40809a:	b570      	push	{r4, r5, r6, lr}
  40809c:	4605      	mov	r5, r0
  40809e:	460c      	mov	r4, r1
  4080a0:	b14b      	cbz	r3, 4080b6 <_Balloc+0x1e>
  4080a2:	f853 0024 	ldr.w	r0, [r3, r4, lsl #2]
  4080a6:	b180      	cbz	r0, 4080ca <_Balloc+0x32>
  4080a8:	6802      	ldr	r2, [r0, #0]
  4080aa:	f843 2024 	str.w	r2, [r3, r4, lsl #2]
  4080ae:	2300      	movs	r3, #0
  4080b0:	6103      	str	r3, [r0, #16]
  4080b2:	60c3      	str	r3, [r0, #12]
  4080b4:	bd70      	pop	{r4, r5, r6, pc}
  4080b6:	2221      	movs	r2, #33	; 0x21
  4080b8:	2104      	movs	r1, #4
  4080ba:	f000 fe57 	bl	408d6c <_calloc_r>
  4080be:	64e8      	str	r0, [r5, #76]	; 0x4c
  4080c0:	4603      	mov	r3, r0
  4080c2:	2800      	cmp	r0, #0
  4080c4:	d1ed      	bne.n	4080a2 <_Balloc+0xa>
  4080c6:	2000      	movs	r0, #0
  4080c8:	bd70      	pop	{r4, r5, r6, pc}
  4080ca:	2101      	movs	r1, #1
  4080cc:	fa01 f604 	lsl.w	r6, r1, r4
  4080d0:	1d72      	adds	r2, r6, #5
  4080d2:	4628      	mov	r0, r5
  4080d4:	0092      	lsls	r2, r2, #2
  4080d6:	f000 fe49 	bl	408d6c <_calloc_r>
  4080da:	2800      	cmp	r0, #0
  4080dc:	d0f3      	beq.n	4080c6 <_Balloc+0x2e>
  4080de:	6044      	str	r4, [r0, #4]
  4080e0:	6086      	str	r6, [r0, #8]
  4080e2:	e7e4      	b.n	4080ae <_Balloc+0x16>

004080e4 <_Bfree>:
  4080e4:	b131      	cbz	r1, 4080f4 <_Bfree+0x10>
  4080e6:	6cc3      	ldr	r3, [r0, #76]	; 0x4c
  4080e8:	684a      	ldr	r2, [r1, #4]
  4080ea:	f853 0022 	ldr.w	r0, [r3, r2, lsl #2]
  4080ee:	6008      	str	r0, [r1, #0]
  4080f0:	f843 1022 	str.w	r1, [r3, r2, lsl #2]
  4080f4:	4770      	bx	lr
  4080f6:	bf00      	nop

004080f8 <__multadd>:
  4080f8:	b5f0      	push	{r4, r5, r6, r7, lr}
  4080fa:	690c      	ldr	r4, [r1, #16]
  4080fc:	b083      	sub	sp, #12
  4080fe:	460d      	mov	r5, r1
  408100:	4606      	mov	r6, r0
  408102:	f101 0e14 	add.w	lr, r1, #20
  408106:	2700      	movs	r7, #0
  408108:	f8de 0000 	ldr.w	r0, [lr]
  40810c:	b281      	uxth	r1, r0
  40810e:	fb02 3301 	mla	r3, r2, r1, r3
  408112:	0c01      	lsrs	r1, r0, #16
  408114:	0c18      	lsrs	r0, r3, #16
  408116:	fb02 0101 	mla	r1, r2, r1, r0
  40811a:	b29b      	uxth	r3, r3
  40811c:	3701      	adds	r7, #1
  40811e:	eb03 4301 	add.w	r3, r3, r1, lsl #16
  408122:	42bc      	cmp	r4, r7
  408124:	f84e 3b04 	str.w	r3, [lr], #4
  408128:	ea4f 4311 	mov.w	r3, r1, lsr #16
  40812c:	dcec      	bgt.n	408108 <__multadd+0x10>
  40812e:	b13b      	cbz	r3, 408140 <__multadd+0x48>
  408130:	68aa      	ldr	r2, [r5, #8]
  408132:	4294      	cmp	r4, r2
  408134:	da07      	bge.n	408146 <__multadd+0x4e>
  408136:	eb05 0284 	add.w	r2, r5, r4, lsl #2
  40813a:	3401      	adds	r4, #1
  40813c:	6153      	str	r3, [r2, #20]
  40813e:	612c      	str	r4, [r5, #16]
  408140:	4628      	mov	r0, r5
  408142:	b003      	add	sp, #12
  408144:	bdf0      	pop	{r4, r5, r6, r7, pc}
  408146:	6869      	ldr	r1, [r5, #4]
  408148:	9301      	str	r3, [sp, #4]
  40814a:	3101      	adds	r1, #1
  40814c:	4630      	mov	r0, r6
  40814e:	f7ff ffa3 	bl	408098 <_Balloc>
  408152:	692a      	ldr	r2, [r5, #16]
  408154:	3202      	adds	r2, #2
  408156:	f105 010c 	add.w	r1, r5, #12
  40815a:	4607      	mov	r7, r0
  40815c:	0092      	lsls	r2, r2, #2
  40815e:	300c      	adds	r0, #12
  408160:	f7fb fdd8 	bl	403d14 <memcpy>
  408164:	6cf2      	ldr	r2, [r6, #76]	; 0x4c
  408166:	6869      	ldr	r1, [r5, #4]
  408168:	9b01      	ldr	r3, [sp, #4]
  40816a:	f852 0021 	ldr.w	r0, [r2, r1, lsl #2]
  40816e:	6028      	str	r0, [r5, #0]
  408170:	f842 5021 	str.w	r5, [r2, r1, lsl #2]
  408174:	463d      	mov	r5, r7
  408176:	e7de      	b.n	408136 <__multadd+0x3e>

00408178 <__hi0bits>:
  408178:	0c02      	lsrs	r2, r0, #16
  40817a:	0412      	lsls	r2, r2, #16
  40817c:	4603      	mov	r3, r0
  40817e:	b9b2      	cbnz	r2, 4081ae <__hi0bits+0x36>
  408180:	0403      	lsls	r3, r0, #16
  408182:	2010      	movs	r0, #16
  408184:	f013 4f7f 	tst.w	r3, #4278190080	; 0xff000000
  408188:	bf04      	itt	eq
  40818a:	021b      	lsleq	r3, r3, #8
  40818c:	3008      	addeq	r0, #8
  40818e:	f013 4f70 	tst.w	r3, #4026531840	; 0xf0000000
  408192:	bf04      	itt	eq
  408194:	011b      	lsleq	r3, r3, #4
  408196:	3004      	addeq	r0, #4
  408198:	f013 4f40 	tst.w	r3, #3221225472	; 0xc0000000
  40819c:	bf04      	itt	eq
  40819e:	009b      	lsleq	r3, r3, #2
  4081a0:	3002      	addeq	r0, #2
  4081a2:	2b00      	cmp	r3, #0
  4081a4:	db02      	blt.n	4081ac <__hi0bits+0x34>
  4081a6:	005b      	lsls	r3, r3, #1
  4081a8:	d403      	bmi.n	4081b2 <__hi0bits+0x3a>
  4081aa:	2020      	movs	r0, #32
  4081ac:	4770      	bx	lr
  4081ae:	2000      	movs	r0, #0
  4081b0:	e7e8      	b.n	408184 <__hi0bits+0xc>
  4081b2:	3001      	adds	r0, #1
  4081b4:	4770      	bx	lr
  4081b6:	bf00      	nop

004081b8 <__lo0bits>:
  4081b8:	6803      	ldr	r3, [r0, #0]
  4081ba:	f013 0207 	ands.w	r2, r3, #7
  4081be:	4601      	mov	r1, r0
  4081c0:	d007      	beq.n	4081d2 <__lo0bits+0x1a>
  4081c2:	07da      	lsls	r2, r3, #31
  4081c4:	d421      	bmi.n	40820a <__lo0bits+0x52>
  4081c6:	0798      	lsls	r0, r3, #30
  4081c8:	d421      	bmi.n	40820e <__lo0bits+0x56>
  4081ca:	089b      	lsrs	r3, r3, #2
  4081cc:	600b      	str	r3, [r1, #0]
  4081ce:	2002      	movs	r0, #2
  4081d0:	4770      	bx	lr
  4081d2:	b298      	uxth	r0, r3
  4081d4:	b198      	cbz	r0, 4081fe <__lo0bits+0x46>
  4081d6:	4610      	mov	r0, r2
  4081d8:	f013 0fff 	tst.w	r3, #255	; 0xff
  4081dc:	bf04      	itt	eq
  4081de:	0a1b      	lsreq	r3, r3, #8
  4081e0:	3008      	addeq	r0, #8
  4081e2:	071a      	lsls	r2, r3, #28
  4081e4:	bf04      	itt	eq
  4081e6:	091b      	lsreq	r3, r3, #4
  4081e8:	3004      	addeq	r0, #4
  4081ea:	079a      	lsls	r2, r3, #30
  4081ec:	bf04      	itt	eq
  4081ee:	089b      	lsreq	r3, r3, #2
  4081f0:	3002      	addeq	r0, #2
  4081f2:	07da      	lsls	r2, r3, #31
  4081f4:	d407      	bmi.n	408206 <__lo0bits+0x4e>
  4081f6:	085b      	lsrs	r3, r3, #1
  4081f8:	d104      	bne.n	408204 <__lo0bits+0x4c>
  4081fa:	2020      	movs	r0, #32
  4081fc:	4770      	bx	lr
  4081fe:	0c1b      	lsrs	r3, r3, #16
  408200:	2010      	movs	r0, #16
  408202:	e7e9      	b.n	4081d8 <__lo0bits+0x20>
  408204:	3001      	adds	r0, #1
  408206:	600b      	str	r3, [r1, #0]
  408208:	4770      	bx	lr
  40820a:	2000      	movs	r0, #0
  40820c:	4770      	bx	lr
  40820e:	085b      	lsrs	r3, r3, #1
  408210:	600b      	str	r3, [r1, #0]
  408212:	2001      	movs	r0, #1
  408214:	4770      	bx	lr
  408216:	bf00      	nop

00408218 <__i2b>:
  408218:	b510      	push	{r4, lr}
  40821a:	460c      	mov	r4, r1
  40821c:	2101      	movs	r1, #1
  40821e:	f7ff ff3b 	bl	408098 <_Balloc>
  408222:	2201      	movs	r2, #1
  408224:	6144      	str	r4, [r0, #20]
  408226:	6102      	str	r2, [r0, #16]
  408228:	bd10      	pop	{r4, pc}
  40822a:	bf00      	nop

0040822c <__multiply>:
  40822c:	e92d 4ff0 	stmdb	sp!, {r4, r5, r6, r7, r8, r9, sl, fp, lr}
  408230:	690c      	ldr	r4, [r1, #16]
  408232:	6915      	ldr	r5, [r2, #16]
  408234:	42ac      	cmp	r4, r5
  408236:	b083      	sub	sp, #12
  408238:	468b      	mov	fp, r1
  40823a:	4616      	mov	r6, r2
  40823c:	da04      	bge.n	408248 <__multiply+0x1c>
  40823e:	4622      	mov	r2, r4
  408240:	46b3      	mov	fp, r6
  408242:	462c      	mov	r4, r5
  408244:	460e      	mov	r6, r1
  408246:	4615      	mov	r5, r2
  408248:	f8db 3008 	ldr.w	r3, [fp, #8]
  40824c:	f8db 1004 	ldr.w	r1, [fp, #4]
  408250:	eb04 0805 	add.w	r8, r4, r5
  408254:	4598      	cmp	r8, r3
  408256:	bfc8      	it	gt
  408258:	3101      	addgt	r1, #1
  40825a:	f7ff ff1d 	bl	408098 <_Balloc>
  40825e:	f100 0914 	add.w	r9, r0, #20
  408262:	eb09 0a88 	add.w	sl, r9, r8, lsl #2
  408266:	45d1      	cmp	r9, sl
  408268:	9000      	str	r0, [sp, #0]
  40826a:	d205      	bcs.n	408278 <__multiply+0x4c>
  40826c:	464b      	mov	r3, r9
  40826e:	2100      	movs	r1, #0
  408270:	f843 1b04 	str.w	r1, [r3], #4
  408274:	459a      	cmp	sl, r3
  408276:	d8fb      	bhi.n	408270 <__multiply+0x44>
  408278:	f106 0c14 	add.w	ip, r6, #20
  40827c:	eb0c 0385 	add.w	r3, ip, r5, lsl #2
  408280:	f10b 0b14 	add.w	fp, fp, #20
  408284:	459c      	cmp	ip, r3
  408286:	eb0b 0e84 	add.w	lr, fp, r4, lsl #2
  40828a:	d24c      	bcs.n	408326 <__multiply+0xfa>
  40828c:	f8cd a004 	str.w	sl, [sp, #4]
  408290:	469a      	mov	sl, r3
  408292:	f8dc 5000 	ldr.w	r5, [ip]
  408296:	b2af      	uxth	r7, r5
  408298:	b1ef      	cbz	r7, 4082d6 <__multiply+0xaa>
  40829a:	2100      	movs	r1, #0
  40829c:	464d      	mov	r5, r9
  40829e:	465e      	mov	r6, fp
  4082a0:	460c      	mov	r4, r1
  4082a2:	f856 2b04 	ldr.w	r2, [r6], #4
  4082a6:	6828      	ldr	r0, [r5, #0]
  4082a8:	b293      	uxth	r3, r2
  4082aa:	b281      	uxth	r1, r0
  4082ac:	fb07 1303 	mla	r3, r7, r3, r1
  4082b0:	0c12      	lsrs	r2, r2, #16
  4082b2:	0c01      	lsrs	r1, r0, #16
  4082b4:	4423      	add	r3, r4
  4082b6:	fb07 1102 	mla	r1, r7, r2, r1
  4082ba:	eb01 4113 	add.w	r1, r1, r3, lsr #16
  4082be:	b29b      	uxth	r3, r3
  4082c0:	ea43 4301 	orr.w	r3, r3, r1, lsl #16
  4082c4:	45b6      	cmp	lr, r6
  4082c6:	f845 3b04 	str.w	r3, [r5], #4
  4082ca:	ea4f 4411 	mov.w	r4, r1, lsr #16
  4082ce:	d8e8      	bhi.n	4082a2 <__multiply+0x76>
  4082d0:	602c      	str	r4, [r5, #0]
  4082d2:	f8dc 5000 	ldr.w	r5, [ip]
  4082d6:	0c2d      	lsrs	r5, r5, #16
  4082d8:	d01d      	beq.n	408316 <__multiply+0xea>
  4082da:	f8d9 3000 	ldr.w	r3, [r9]
  4082de:	4648      	mov	r0, r9
  4082e0:	461c      	mov	r4, r3
  4082e2:	4659      	mov	r1, fp
  4082e4:	2200      	movs	r2, #0
  4082e6:	880e      	ldrh	r6, [r1, #0]
  4082e8:	0c24      	lsrs	r4, r4, #16
  4082ea:	fb05 4406 	mla	r4, r5, r6, r4
  4082ee:	4422      	add	r2, r4
  4082f0:	b29b      	uxth	r3, r3
  4082f2:	ea43 4302 	orr.w	r3, r3, r2, lsl #16
  4082f6:	f840 3b04 	str.w	r3, [r0], #4
  4082fa:	f851 3b04 	ldr.w	r3, [r1], #4
  4082fe:	6804      	ldr	r4, [r0, #0]
  408300:	0c1b      	lsrs	r3, r3, #16
  408302:	b2a6      	uxth	r6, r4
  408304:	fb05 6303 	mla	r3, r5, r3, r6
  408308:	eb03 4312 	add.w	r3, r3, r2, lsr #16
  40830c:	458e      	cmp	lr, r1
  40830e:	ea4f 4213 	mov.w	r2, r3, lsr #16
  408312:	d8e8      	bhi.n	4082e6 <__multiply+0xba>
  408314:	6003      	str	r3, [r0, #0]
  408316:	f10c 0c04 	add.w	ip, ip, #4
  40831a:	45e2      	cmp	sl, ip
  40831c:	f109 0904 	add.w	r9, r9, #4
  408320:	d8b7      	bhi.n	408292 <__multiply+0x66>
  408322:	f8dd a004 	ldr.w	sl, [sp, #4]
  408326:	f1b8 0f00 	cmp.w	r8, #0
  40832a:	dd0b      	ble.n	408344 <__multiply+0x118>
  40832c:	f85a 3c04 	ldr.w	r3, [sl, #-4]
  408330:	f1aa 0a04 	sub.w	sl, sl, #4
  408334:	b11b      	cbz	r3, 40833e <__multiply+0x112>
  408336:	e005      	b.n	408344 <__multiply+0x118>
  408338:	f85a 3d04 	ldr.w	r3, [sl, #-4]!
  40833c:	b913      	cbnz	r3, 408344 <__multiply+0x118>
  40833e:	f1b8 0801 	subs.w	r8, r8, #1
  408342:	d1f9      	bne.n	408338 <__multiply+0x10c>
  408344:	9800      	ldr	r0, [sp, #0]
  408346:	f8c0 8010 	str.w	r8, [r0, #16]
  40834a:	b003      	add	sp, #12
  40834c:	e8bd 8ff0 	ldmia.w	sp!, {r4, r5, r6, r7, r8, r9, sl, fp, pc}

00408350 <__pow5mult>:
  408350:	f012 0303 	ands.w	r3, r2, #3
  408354:	e92d 41f0 	stmdb	sp!, {r4, r5, r6, r7, r8, lr}
  408358:	4614      	mov	r4, r2
  40835a:	4607      	mov	r7, r0
  40835c:	d12e      	bne.n	4083bc <__pow5mult+0x6c>
  40835e:	460d      	mov	r5, r1
  408360:	10a4      	asrs	r4, r4, #2
  408362:	d01c      	beq.n	40839e <__pow5mult+0x4e>
  408364:	6cbe      	ldr	r6, [r7, #72]	; 0x48
  408366:	b396      	cbz	r6, 4083ce <__pow5mult+0x7e>
  408368:	07e3      	lsls	r3, r4, #31
  40836a:	f04f 0800 	mov.w	r8, #0
  40836e:	d406      	bmi.n	40837e <__pow5mult+0x2e>
  408370:	1064      	asrs	r4, r4, #1
  408372:	d014      	beq.n	40839e <__pow5mult+0x4e>
  408374:	6830      	ldr	r0, [r6, #0]
  408376:	b1a8      	cbz	r0, 4083a4 <__pow5mult+0x54>
  408378:	4606      	mov	r6, r0
  40837a:	07e3      	lsls	r3, r4, #31
  40837c:	d5f8      	bpl.n	408370 <__pow5mult+0x20>
  40837e:	4632      	mov	r2, r6
  408380:	4629      	mov	r1, r5
  408382:	4638      	mov	r0, r7
  408384:	f7ff ff52 	bl	40822c <__multiply>
  408388:	b1b5      	cbz	r5, 4083b8 <__pow5mult+0x68>
  40838a:	686a      	ldr	r2, [r5, #4]
  40838c:	6cfb      	ldr	r3, [r7, #76]	; 0x4c
  40838e:	1064      	asrs	r4, r4, #1
  408390:	f853 1022 	ldr.w	r1, [r3, r2, lsl #2]
  408394:	6029      	str	r1, [r5, #0]
  408396:	f843 5022 	str.w	r5, [r3, r2, lsl #2]
  40839a:	4605      	mov	r5, r0
  40839c:	d1ea      	bne.n	408374 <__pow5mult+0x24>
  40839e:	4628      	mov	r0, r5
  4083a0:	e8bd 81f0 	ldmia.w	sp!, {r4, r5, r6, r7, r8, pc}
  4083a4:	4632      	mov	r2, r6
  4083a6:	4631      	mov	r1, r6
  4083a8:	4638      	mov	r0, r7
  4083aa:	f7ff ff3f 	bl	40822c <__multiply>
  4083ae:	6030      	str	r0, [r6, #0]
  4083b0:	f8c0 8000 	str.w	r8, [r0]
  4083b4:	4606      	mov	r6, r0
  4083b6:	e7e0      	b.n	40837a <__pow5mult+0x2a>
  4083b8:	4605      	mov	r5, r0
  4083ba:	e7d9      	b.n	408370 <__pow5mult+0x20>
  4083bc:	1e5a      	subs	r2, r3, #1
  4083be:	4d0b      	ldr	r5, [pc, #44]	; (4083ec <__pow5mult+0x9c>)
  4083c0:	2300      	movs	r3, #0
  4083c2:	f855 2022 	ldr.w	r2, [r5, r2, lsl #2]
  4083c6:	f7ff fe97 	bl	4080f8 <__multadd>
  4083ca:	4605      	mov	r5, r0
  4083cc:	e7c8      	b.n	408360 <__pow5mult+0x10>
  4083ce:	2101      	movs	r1, #1
  4083d0:	4638      	mov	r0, r7
  4083d2:	f7ff fe61 	bl	408098 <_Balloc>
  4083d6:	f240 2171 	movw	r1, #625	; 0x271
  4083da:	2201      	movs	r2, #1
  4083dc:	2300      	movs	r3, #0
  4083de:	6141      	str	r1, [r0, #20]
  4083e0:	6102      	str	r2, [r0, #16]
  4083e2:	4606      	mov	r6, r0
  4083e4:	64b8      	str	r0, [r7, #72]	; 0x48
  4083e6:	6003      	str	r3, [r0, #0]
  4083e8:	e7be      	b.n	408368 <__pow5mult+0x18>
  4083ea:	bf00      	nop
  4083ec:	0040a0d0 	.word	0x0040a0d0

004083f0 <__lshift>:
  4083f0:	e92d 43f8 	stmdb	sp!, {r3, r4, r5, r6, r7, r8, r9, lr}
  4083f4:	4691      	mov	r9, r2
  4083f6:	690a      	ldr	r2, [r1, #16]
  4083f8:	688b      	ldr	r3, [r1, #8]
  4083fa:	ea4f 1469 	mov.w	r4, r9, asr #5
  4083fe:	eb04 0802 	add.w	r8, r4, r2
  408402:	f108 0501 	add.w	r5, r8, #1
  408406:	429d      	cmp	r5, r3
  408408:	460e      	mov	r6, r1
  40840a:	4607      	mov	r7, r0
  40840c:	6849      	ldr	r1, [r1, #4]
  40840e:	dd04      	ble.n	40841a <__lshift+0x2a>
  408410:	005b      	lsls	r3, r3, #1
  408412:	429d      	cmp	r5, r3
  408414:	f101 0101 	add.w	r1, r1, #1
  408418:	dcfa      	bgt.n	408410 <__lshift+0x20>
  40841a:	4638      	mov	r0, r7
  40841c:	f7ff fe3c 	bl	408098 <_Balloc>
  408420:	2c00      	cmp	r4, #0
  408422:	f100 0314 	add.w	r3, r0, #20
  408426:	dd06      	ble.n	408436 <__lshift+0x46>
  408428:	eb03 0284 	add.w	r2, r3, r4, lsl #2
  40842c:	2100      	movs	r1, #0
  40842e:	f843 1b04 	str.w	r1, [r3], #4
  408432:	429a      	cmp	r2, r3
  408434:	d1fb      	bne.n	40842e <__lshift+0x3e>
  408436:	6934      	ldr	r4, [r6, #16]
  408438:	f106 0114 	add.w	r1, r6, #20
  40843c:	f019 091f 	ands.w	r9, r9, #31
  408440:	eb01 0e84 	add.w	lr, r1, r4, lsl #2
  408444:	d01d      	beq.n	408482 <__lshift+0x92>
  408446:	f1c9 0c20 	rsb	ip, r9, #32
  40844a:	2200      	movs	r2, #0
  40844c:	680c      	ldr	r4, [r1, #0]
  40844e:	fa04 f409 	lsl.w	r4, r4, r9
  408452:	4314      	orrs	r4, r2
  408454:	f843 4b04 	str.w	r4, [r3], #4
  408458:	f851 2b04 	ldr.w	r2, [r1], #4
  40845c:	458e      	cmp	lr, r1
  40845e:	fa22 f20c 	lsr.w	r2, r2, ip
  408462:	d8f3      	bhi.n	40844c <__lshift+0x5c>
  408464:	601a      	str	r2, [r3, #0]
  408466:	b10a      	cbz	r2, 40846c <__lshift+0x7c>
  408468:	f108 0502 	add.w	r5, r8, #2
  40846c:	6cfb      	ldr	r3, [r7, #76]	; 0x4c
  40846e:	6872      	ldr	r2, [r6, #4]
  408470:	3d01      	subs	r5, #1
  408472:	f853 1022 	ldr.w	r1, [r3, r2, lsl #2]
  408476:	6105      	str	r5, [r0, #16]
  408478:	6031      	str	r1, [r6, #0]
  40847a:	f843 6022 	str.w	r6, [r3, r2, lsl #2]
  40847e:	e8bd 83f8 	ldmia.w	sp!, {r3, r4, r5, r6, r7, r8, r9, pc}
  408482:	3b04      	subs	r3, #4
  408484:	f851 2b04 	ldr.w	r2, [r1], #4
  408488:	f843 2f04 	str.w	r2, [r3, #4]!
  40848c:	458e      	cmp	lr, r1
  40848e:	d8f9      	bhi.n	408484 <__lshift+0x94>
  408490:	e7ec      	b.n	40846c <__lshift+0x7c>
  408492:	bf00      	nop

00408494 <__mcmp>:
  408494:	b430      	push	{r4, r5}
  408496:	690b      	ldr	r3, [r1, #16]
  408498:	4605      	mov	r5, r0
  40849a:	6900      	ldr	r0, [r0, #16]
  40849c:	1ac0      	subs	r0, r0, r3
  40849e:	d10f      	bne.n	4084c0 <__mcmp+0x2c>
  4084a0:	009b      	lsls	r3, r3, #2
  4084a2:	3514      	adds	r5, #20
  4084a4:	3114      	adds	r1, #20
  4084a6:	4419      	add	r1, r3
  4084a8:	442b      	add	r3, r5
  4084aa:	e001      	b.n	4084b0 <__mcmp+0x1c>
  4084ac:	429d      	cmp	r5, r3
  4084ae:	d207      	bcs.n	4084c0 <__mcmp+0x2c>
  4084b0:	f853 4d04 	ldr.w	r4, [r3, #-4]!
  4084b4:	f851 2d04 	ldr.w	r2, [r1, #-4]!
  4084b8:	4294      	cmp	r4, r2
  4084ba:	d0f7      	beq.n	4084ac <__mcmp+0x18>
  4084bc:	d302      	bcc.n	4084c4 <__mcmp+0x30>
  4084be:	2001      	movs	r0, #1
  4084c0:	bc30      	pop	{r4, r5}
  4084c2:	4770      	bx	lr
  4084c4:	f04f 30ff 	mov.w	r0, #4294967295
  4084c8:	e7fa      	b.n	4084c0 <__mcmp+0x2c>
  4084ca:	bf00      	nop

004084cc <__mdiff>:
  4084cc:	e92d 41f0 	stmdb	sp!, {r4, r5, r6, r7, r8, lr}
  4084d0:	690f      	ldr	r7, [r1, #16]
  4084d2:	460e      	mov	r6, r1
  4084d4:	6911      	ldr	r1, [r2, #16]
  4084d6:	1a7f      	subs	r7, r7, r1
  4084d8:	2f00      	cmp	r7, #0
  4084da:	4690      	mov	r8, r2
  4084dc:	d117      	bne.n	40850e <__mdiff+0x42>
  4084de:	0089      	lsls	r1, r1, #2
  4084e0:	f106 0514 	add.w	r5, r6, #20
  4084e4:	f102 0e14 	add.w	lr, r2, #20
  4084e8:	186b      	adds	r3, r5, r1
  4084ea:	4471      	add	r1, lr
  4084ec:	e001      	b.n	4084f2 <__mdiff+0x26>
  4084ee:	429d      	cmp	r5, r3
  4084f0:	d25c      	bcs.n	4085ac <__mdiff+0xe0>
  4084f2:	f853 2d04 	ldr.w	r2, [r3, #-4]!
  4084f6:	f851 4d04 	ldr.w	r4, [r1, #-4]!
  4084fa:	42a2      	cmp	r2, r4
  4084fc:	d0f7      	beq.n	4084ee <__mdiff+0x22>
  4084fe:	d25e      	bcs.n	4085be <__mdiff+0xf2>
  408500:	4633      	mov	r3, r6
  408502:	462c      	mov	r4, r5
  408504:	4646      	mov	r6, r8
  408506:	4675      	mov	r5, lr
  408508:	4698      	mov	r8, r3
  40850a:	2701      	movs	r7, #1
  40850c:	e005      	b.n	40851a <__mdiff+0x4e>
  40850e:	db58      	blt.n	4085c2 <__mdiff+0xf6>
  408510:	f106 0514 	add.w	r5, r6, #20
  408514:	f108 0414 	add.w	r4, r8, #20
  408518:	2700      	movs	r7, #0
  40851a:	6871      	ldr	r1, [r6, #4]
  40851c:	f7ff fdbc 	bl	408098 <_Balloc>
  408520:	f8d8 3010 	ldr.w	r3, [r8, #16]
  408524:	6936      	ldr	r6, [r6, #16]
  408526:	60c7      	str	r7, [r0, #12]
  408528:	eb04 0c83 	add.w	ip, r4, r3, lsl #2
  40852c:	46a6      	mov	lr, r4
  40852e:	eb05 0786 	add.w	r7, r5, r6, lsl #2
  408532:	f100 0414 	add.w	r4, r0, #20
  408536:	2300      	movs	r3, #0
  408538:	f85e 1b04 	ldr.w	r1, [lr], #4
  40853c:	f855 8b04 	ldr.w	r8, [r5], #4
  408540:	b28a      	uxth	r2, r1
  408542:	fa13 f388 	uxtah	r3, r3, r8
  408546:	0c09      	lsrs	r1, r1, #16
  408548:	1a9a      	subs	r2, r3, r2
  40854a:	ebc1 4318 	rsb	r3, r1, r8, lsr #16
  40854e:	eb03 4322 	add.w	r3, r3, r2, asr #16
  408552:	b292      	uxth	r2, r2
  408554:	ea42 4203 	orr.w	r2, r2, r3, lsl #16
  408558:	45f4      	cmp	ip, lr
  40855a:	f844 2b04 	str.w	r2, [r4], #4
  40855e:	ea4f 4323 	mov.w	r3, r3, asr #16
  408562:	d8e9      	bhi.n	408538 <__mdiff+0x6c>
  408564:	42af      	cmp	r7, r5
  408566:	d917      	bls.n	408598 <__mdiff+0xcc>
  408568:	46a4      	mov	ip, r4
  40856a:	46ae      	mov	lr, r5
  40856c:	f85e 2b04 	ldr.w	r2, [lr], #4
  408570:	fa13 f382 	uxtah	r3, r3, r2
  408574:	1419      	asrs	r1, r3, #16
  408576:	eb01 4112 	add.w	r1, r1, r2, lsr #16
  40857a:	b29b      	uxth	r3, r3
  40857c:	ea43 4201 	orr.w	r2, r3, r1, lsl #16
  408580:	4577      	cmp	r7, lr
  408582:	f84c 2b04 	str.w	r2, [ip], #4
  408586:	ea4f 4321 	mov.w	r3, r1, asr #16
  40858a:	d8ef      	bhi.n	40856c <__mdiff+0xa0>
  40858c:	43ed      	mvns	r5, r5
  40858e:	442f      	add	r7, r5
  408590:	f027 0703 	bic.w	r7, r7, #3
  408594:	3704      	adds	r7, #4
  408596:	443c      	add	r4, r7
  408598:	3c04      	subs	r4, #4
  40859a:	b922      	cbnz	r2, 4085a6 <__mdiff+0xda>
  40859c:	f854 3d04 	ldr.w	r3, [r4, #-4]!
  4085a0:	3e01      	subs	r6, #1
  4085a2:	2b00      	cmp	r3, #0
  4085a4:	d0fa      	beq.n	40859c <__mdiff+0xd0>
  4085a6:	6106      	str	r6, [r0, #16]
  4085a8:	e8bd 81f0 	ldmia.w	sp!, {r4, r5, r6, r7, r8, pc}
  4085ac:	2100      	movs	r1, #0
  4085ae:	f7ff fd73 	bl	408098 <_Balloc>
  4085b2:	2201      	movs	r2, #1
  4085b4:	2300      	movs	r3, #0
  4085b6:	6102      	str	r2, [r0, #16]
  4085b8:	6143      	str	r3, [r0, #20]
  4085ba:	e8bd 81f0 	ldmia.w	sp!, {r4, r5, r6, r7, r8, pc}
  4085be:	4674      	mov	r4, lr
  4085c0:	e7ab      	b.n	40851a <__mdiff+0x4e>
  4085c2:	4633      	mov	r3, r6
  4085c4:	f106 0414 	add.w	r4, r6, #20
  4085c8:	f102 0514 	add.w	r5, r2, #20
  4085cc:	4616      	mov	r6, r2
  4085ce:	2701      	movs	r7, #1
  4085d0:	4698      	mov	r8, r3
  4085d2:	e7a2      	b.n	40851a <__mdiff+0x4e>

004085d4 <__d2b>:
  4085d4:	e92d 41f0 	stmdb	sp!, {r4, r5, r6, r7, r8, lr}
  4085d8:	b082      	sub	sp, #8
  4085da:	2101      	movs	r1, #1
  4085dc:	461c      	mov	r4, r3
  4085de:	f3c3 570a 	ubfx	r7, r3, #20, #11
  4085e2:	4615      	mov	r5, r2
  4085e4:	9e08      	ldr	r6, [sp, #32]
  4085e6:	f7ff fd57 	bl	408098 <_Balloc>
  4085ea:	f3c4 0413 	ubfx	r4, r4, #0, #20
  4085ee:	4680      	mov	r8, r0
  4085f0:	b10f      	cbz	r7, 4085f6 <__d2b+0x22>
  4085f2:	f444 1480 	orr.w	r4, r4, #1048576	; 0x100000
  4085f6:	9401      	str	r4, [sp, #4]
  4085f8:	b31d      	cbz	r5, 408642 <__d2b+0x6e>
  4085fa:	a802      	add	r0, sp, #8
  4085fc:	f840 5d08 	str.w	r5, [r0, #-8]!
  408600:	f7ff fdda 	bl	4081b8 <__lo0bits>
  408604:	2800      	cmp	r0, #0
  408606:	d134      	bne.n	408672 <__d2b+0x9e>
  408608:	e89d 000c 	ldmia.w	sp, {r2, r3}
  40860c:	f8c8 2014 	str.w	r2, [r8, #20]
  408610:	2b00      	cmp	r3, #0
  408612:	bf0c      	ite	eq
  408614:	2101      	moveq	r1, #1
  408616:	2102      	movne	r1, #2
  408618:	f8c8 3018 	str.w	r3, [r8, #24]
  40861c:	f8c8 1010 	str.w	r1, [r8, #16]
  408620:	b9df      	cbnz	r7, 40865a <__d2b+0x86>
  408622:	eb08 0381 	add.w	r3, r8, r1, lsl #2
  408626:	f2a0 4032 	subw	r0, r0, #1074	; 0x432
  40862a:	6030      	str	r0, [r6, #0]
  40862c:	6918      	ldr	r0, [r3, #16]
  40862e:	f7ff fda3 	bl	408178 <__hi0bits>
  408632:	9b09      	ldr	r3, [sp, #36]	; 0x24
  408634:	ebc0 1041 	rsb	r0, r0, r1, lsl #5
  408638:	6018      	str	r0, [r3, #0]
  40863a:	4640      	mov	r0, r8
  40863c:	b002      	add	sp, #8
  40863e:	e8bd 81f0 	ldmia.w	sp!, {r4, r5, r6, r7, r8, pc}
  408642:	a801      	add	r0, sp, #4
  408644:	f7ff fdb8 	bl	4081b8 <__lo0bits>
  408648:	9b01      	ldr	r3, [sp, #4]
  40864a:	f8c8 3014 	str.w	r3, [r8, #20]
  40864e:	2101      	movs	r1, #1
  408650:	3020      	adds	r0, #32
  408652:	f8c8 1010 	str.w	r1, [r8, #16]
  408656:	2f00      	cmp	r7, #0
  408658:	d0e3      	beq.n	408622 <__d2b+0x4e>
  40865a:	9b09      	ldr	r3, [sp, #36]	; 0x24
  40865c:	f2a7 4733 	subw	r7, r7, #1075	; 0x433
  408660:	4407      	add	r7, r0
  408662:	f1c0 0035 	rsb	r0, r0, #53	; 0x35
  408666:	6037      	str	r7, [r6, #0]
  408668:	6018      	str	r0, [r3, #0]
  40866a:	4640      	mov	r0, r8
  40866c:	b002      	add	sp, #8
  40866e:	e8bd 81f0 	ldmia.w	sp!, {r4, r5, r6, r7, r8, pc}
  408672:	e89d 000a 	ldmia.w	sp, {r1, r3}
  408676:	f1c0 0220 	rsb	r2, r0, #32
  40867a:	fa03 f202 	lsl.w	r2, r3, r2
  40867e:	430a      	orrs	r2, r1
  408680:	40c3      	lsrs	r3, r0
  408682:	9301      	str	r3, [sp, #4]
  408684:	f8c8 2014 	str.w	r2, [r8, #20]
  408688:	e7c2      	b.n	408610 <__d2b+0x3c>
  40868a:	bf00      	nop

0040868c <_realloc_r>:
  40868c:	2900      	cmp	r1, #0
  40868e:	f000 8095 	beq.w	4087bc <_realloc_r+0x130>
  408692:	e92d 4ff0 	stmdb	sp!, {r4, r5, r6, r7, r8, r9, sl, fp, lr}
  408696:	460d      	mov	r5, r1
  408698:	4616      	mov	r6, r2
  40869a:	b083      	sub	sp, #12
  40869c:	4680      	mov	r8, r0
  40869e:	f106 070b 	add.w	r7, r6, #11
  4086a2:	f7fb fc1f 	bl	403ee4 <__malloc_lock>
  4086a6:	f855 ec04 	ldr.w	lr, [r5, #-4]
  4086aa:	2f16      	cmp	r7, #22
  4086ac:	f02e 0403 	bic.w	r4, lr, #3
  4086b0:	f1a5 0908 	sub.w	r9, r5, #8
  4086b4:	d83c      	bhi.n	408730 <_realloc_r+0xa4>
  4086b6:	2210      	movs	r2, #16
  4086b8:	4617      	mov	r7, r2
  4086ba:	42be      	cmp	r6, r7
  4086bc:	d83d      	bhi.n	40873a <_realloc_r+0xae>
  4086be:	4294      	cmp	r4, r2
  4086c0:	da43      	bge.n	40874a <_realloc_r+0xbe>
  4086c2:	4bc4      	ldr	r3, [pc, #784]	; (4089d4 <_realloc_r+0x348>)
  4086c4:	6899      	ldr	r1, [r3, #8]
  4086c6:	eb09 0004 	add.w	r0, r9, r4
  4086ca:	4288      	cmp	r0, r1
  4086cc:	f000 80b4 	beq.w	408838 <_realloc_r+0x1ac>
  4086d0:	6843      	ldr	r3, [r0, #4]
  4086d2:	f023 0101 	bic.w	r1, r3, #1
  4086d6:	4401      	add	r1, r0
  4086d8:	6849      	ldr	r1, [r1, #4]
  4086da:	07c9      	lsls	r1, r1, #31
  4086dc:	d54c      	bpl.n	408778 <_realloc_r+0xec>
  4086de:	f01e 0f01 	tst.w	lr, #1
  4086e2:	f000 809b 	beq.w	40881c <_realloc_r+0x190>
  4086e6:	4631      	mov	r1, r6
  4086e8:	4640      	mov	r0, r8
  4086ea:	f7fb f863 	bl	4037b4 <_malloc_r>
  4086ee:	4606      	mov	r6, r0
  4086f0:	2800      	cmp	r0, #0
  4086f2:	d03a      	beq.n	40876a <_realloc_r+0xde>
  4086f4:	f855 3c04 	ldr.w	r3, [r5, #-4]
  4086f8:	f023 0301 	bic.w	r3, r3, #1
  4086fc:	444b      	add	r3, r9
  4086fe:	f1a0 0208 	sub.w	r2, r0, #8
  408702:	429a      	cmp	r2, r3
  408704:	f000 8121 	beq.w	40894a <_realloc_r+0x2be>
  408708:	1f22      	subs	r2, r4, #4
  40870a:	2a24      	cmp	r2, #36	; 0x24
  40870c:	f200 8107 	bhi.w	40891e <_realloc_r+0x292>
  408710:	2a13      	cmp	r2, #19
  408712:	f200 80db 	bhi.w	4088cc <_realloc_r+0x240>
  408716:	4603      	mov	r3, r0
  408718:	462a      	mov	r2, r5
  40871a:	6811      	ldr	r1, [r2, #0]
  40871c:	6019      	str	r1, [r3, #0]
  40871e:	6851      	ldr	r1, [r2, #4]
  408720:	6059      	str	r1, [r3, #4]
  408722:	6892      	ldr	r2, [r2, #8]
  408724:	609a      	str	r2, [r3, #8]
  408726:	4629      	mov	r1, r5
  408728:	4640      	mov	r0, r8
  40872a:	f7ff f8c1 	bl	4078b0 <_free_r>
  40872e:	e01c      	b.n	40876a <_realloc_r+0xde>
  408730:	f027 0707 	bic.w	r7, r7, #7
  408734:	2f00      	cmp	r7, #0
  408736:	463a      	mov	r2, r7
  408738:	dabf      	bge.n	4086ba <_realloc_r+0x2e>
  40873a:	2600      	movs	r6, #0
  40873c:	230c      	movs	r3, #12
  40873e:	4630      	mov	r0, r6
  408740:	f8c8 3000 	str.w	r3, [r8]
  408744:	b003      	add	sp, #12
  408746:	e8bd 8ff0 	ldmia.w	sp!, {r4, r5, r6, r7, r8, r9, sl, fp, pc}
  40874a:	462e      	mov	r6, r5
  40874c:	1be3      	subs	r3, r4, r7
  40874e:	2b0f      	cmp	r3, #15
  408750:	d81e      	bhi.n	408790 <_realloc_r+0x104>
  408752:	f8d9 3004 	ldr.w	r3, [r9, #4]
  408756:	f003 0301 	and.w	r3, r3, #1
  40875a:	4323      	orrs	r3, r4
  40875c:	444c      	add	r4, r9
  40875e:	f8c9 3004 	str.w	r3, [r9, #4]
  408762:	6863      	ldr	r3, [r4, #4]
  408764:	f043 0301 	orr.w	r3, r3, #1
  408768:	6063      	str	r3, [r4, #4]
  40876a:	4640      	mov	r0, r8
  40876c:	f7fb fbc0 	bl	403ef0 <__malloc_unlock>
  408770:	4630      	mov	r0, r6
  408772:	b003      	add	sp, #12
  408774:	e8bd 8ff0 	ldmia.w	sp!, {r4, r5, r6, r7, r8, r9, sl, fp, pc}
  408778:	f023 0303 	bic.w	r3, r3, #3
  40877c:	18e1      	adds	r1, r4, r3
  40877e:	4291      	cmp	r1, r2
  408780:	db1f      	blt.n	4087c2 <_realloc_r+0x136>
  408782:	68c3      	ldr	r3, [r0, #12]
  408784:	6882      	ldr	r2, [r0, #8]
  408786:	462e      	mov	r6, r5
  408788:	60d3      	str	r3, [r2, #12]
  40878a:	460c      	mov	r4, r1
  40878c:	609a      	str	r2, [r3, #8]
  40878e:	e7dd      	b.n	40874c <_realloc_r+0xc0>
  408790:	f8d9 2004 	ldr.w	r2, [r9, #4]
  408794:	eb09 0107 	add.w	r1, r9, r7
  408798:	f002 0201 	and.w	r2, r2, #1
  40879c:	444c      	add	r4, r9
  40879e:	f043 0301 	orr.w	r3, r3, #1
  4087a2:	4317      	orrs	r7, r2
  4087a4:	f8c9 7004 	str.w	r7, [r9, #4]
  4087a8:	604b      	str	r3, [r1, #4]
  4087aa:	6863      	ldr	r3, [r4, #4]
  4087ac:	f043 0301 	orr.w	r3, r3, #1
  4087b0:	3108      	adds	r1, #8
  4087b2:	6063      	str	r3, [r4, #4]
  4087b4:	4640      	mov	r0, r8
  4087b6:	f7ff f87b 	bl	4078b0 <_free_r>
  4087ba:	e7d6      	b.n	40876a <_realloc_r+0xde>
  4087bc:	4611      	mov	r1, r2
  4087be:	f7fa bff9 	b.w	4037b4 <_malloc_r>
  4087c2:	f01e 0f01 	tst.w	lr, #1
  4087c6:	d18e      	bne.n	4086e6 <_realloc_r+0x5a>
  4087c8:	f855 1c08 	ldr.w	r1, [r5, #-8]
  4087cc:	eba9 0a01 	sub.w	sl, r9, r1
  4087d0:	f8da 1004 	ldr.w	r1, [sl, #4]
  4087d4:	f021 0103 	bic.w	r1, r1, #3
  4087d8:	440b      	add	r3, r1
  4087da:	4423      	add	r3, r4
  4087dc:	4293      	cmp	r3, r2
  4087de:	db25      	blt.n	40882c <_realloc_r+0x1a0>
  4087e0:	68c2      	ldr	r2, [r0, #12]
  4087e2:	6881      	ldr	r1, [r0, #8]
  4087e4:	4656      	mov	r6, sl
  4087e6:	60ca      	str	r2, [r1, #12]
  4087e8:	6091      	str	r1, [r2, #8]
  4087ea:	f8da 100c 	ldr.w	r1, [sl, #12]
  4087ee:	f856 0f08 	ldr.w	r0, [r6, #8]!
  4087f2:	1f22      	subs	r2, r4, #4
  4087f4:	2a24      	cmp	r2, #36	; 0x24
  4087f6:	60c1      	str	r1, [r0, #12]
  4087f8:	6088      	str	r0, [r1, #8]
  4087fa:	f200 8094 	bhi.w	408926 <_realloc_r+0x29a>
  4087fe:	2a13      	cmp	r2, #19
  408800:	d96f      	bls.n	4088e2 <_realloc_r+0x256>
  408802:	6829      	ldr	r1, [r5, #0]
  408804:	f8ca 1008 	str.w	r1, [sl, #8]
  408808:	6869      	ldr	r1, [r5, #4]
  40880a:	f8ca 100c 	str.w	r1, [sl, #12]
  40880e:	2a1b      	cmp	r2, #27
  408810:	f200 80a2 	bhi.w	408958 <_realloc_r+0x2cc>
  408814:	3508      	adds	r5, #8
  408816:	f10a 0210 	add.w	r2, sl, #16
  40881a:	e063      	b.n	4088e4 <_realloc_r+0x258>
  40881c:	f855 3c08 	ldr.w	r3, [r5, #-8]
  408820:	eba9 0a03 	sub.w	sl, r9, r3
  408824:	f8da 1004 	ldr.w	r1, [sl, #4]
  408828:	f021 0103 	bic.w	r1, r1, #3
  40882c:	1863      	adds	r3, r4, r1
  40882e:	4293      	cmp	r3, r2
  408830:	f6ff af59 	blt.w	4086e6 <_realloc_r+0x5a>
  408834:	4656      	mov	r6, sl
  408836:	e7d8      	b.n	4087ea <_realloc_r+0x15e>
  408838:	6841      	ldr	r1, [r0, #4]
  40883a:	f021 0b03 	bic.w	fp, r1, #3
  40883e:	44a3      	add	fp, r4
  408840:	f107 0010 	add.w	r0, r7, #16
  408844:	4583      	cmp	fp, r0
  408846:	da56      	bge.n	4088f6 <_realloc_r+0x26a>
  408848:	f01e 0f01 	tst.w	lr, #1
  40884c:	f47f af4b 	bne.w	4086e6 <_realloc_r+0x5a>
  408850:	f855 1c08 	ldr.w	r1, [r5, #-8]
  408854:	eba9 0a01 	sub.w	sl, r9, r1
  408858:	f8da 1004 	ldr.w	r1, [sl, #4]
  40885c:	f021 0103 	bic.w	r1, r1, #3
  408860:	448b      	add	fp, r1
  408862:	4558      	cmp	r0, fp
  408864:	dce2      	bgt.n	40882c <_realloc_r+0x1a0>
  408866:	4656      	mov	r6, sl
  408868:	f8da 100c 	ldr.w	r1, [sl, #12]
  40886c:	f856 0f08 	ldr.w	r0, [r6, #8]!
  408870:	1f22      	subs	r2, r4, #4
  408872:	2a24      	cmp	r2, #36	; 0x24
  408874:	60c1      	str	r1, [r0, #12]
  408876:	6088      	str	r0, [r1, #8]
  408878:	f200 808f 	bhi.w	40899a <_realloc_r+0x30e>
  40887c:	2a13      	cmp	r2, #19
  40887e:	f240 808a 	bls.w	408996 <_realloc_r+0x30a>
  408882:	6829      	ldr	r1, [r5, #0]
  408884:	f8ca 1008 	str.w	r1, [sl, #8]
  408888:	6869      	ldr	r1, [r5, #4]
  40888a:	f8ca 100c 	str.w	r1, [sl, #12]
  40888e:	2a1b      	cmp	r2, #27
  408890:	f200 808a 	bhi.w	4089a8 <_realloc_r+0x31c>
  408894:	3508      	adds	r5, #8
  408896:	f10a 0210 	add.w	r2, sl, #16
  40889a:	6829      	ldr	r1, [r5, #0]
  40889c:	6011      	str	r1, [r2, #0]
  40889e:	6869      	ldr	r1, [r5, #4]
  4088a0:	6051      	str	r1, [r2, #4]
  4088a2:	68a9      	ldr	r1, [r5, #8]
  4088a4:	6091      	str	r1, [r2, #8]
  4088a6:	eb0a 0107 	add.w	r1, sl, r7
  4088aa:	ebab 0207 	sub.w	r2, fp, r7
  4088ae:	f042 0201 	orr.w	r2, r2, #1
  4088b2:	6099      	str	r1, [r3, #8]
  4088b4:	604a      	str	r2, [r1, #4]
  4088b6:	f8da 3004 	ldr.w	r3, [sl, #4]
  4088ba:	f003 0301 	and.w	r3, r3, #1
  4088be:	431f      	orrs	r7, r3
  4088c0:	4640      	mov	r0, r8
  4088c2:	f8ca 7004 	str.w	r7, [sl, #4]
  4088c6:	f7fb fb13 	bl	403ef0 <__malloc_unlock>
  4088ca:	e751      	b.n	408770 <_realloc_r+0xe4>
  4088cc:	682b      	ldr	r3, [r5, #0]
  4088ce:	6003      	str	r3, [r0, #0]
  4088d0:	686b      	ldr	r3, [r5, #4]
  4088d2:	6043      	str	r3, [r0, #4]
  4088d4:	2a1b      	cmp	r2, #27
  4088d6:	d82d      	bhi.n	408934 <_realloc_r+0x2a8>
  4088d8:	f100 0308 	add.w	r3, r0, #8
  4088dc:	f105 0208 	add.w	r2, r5, #8
  4088e0:	e71b      	b.n	40871a <_realloc_r+0x8e>
  4088e2:	4632      	mov	r2, r6
  4088e4:	6829      	ldr	r1, [r5, #0]
  4088e6:	6011      	str	r1, [r2, #0]
  4088e8:	6869      	ldr	r1, [r5, #4]
  4088ea:	6051      	str	r1, [r2, #4]
  4088ec:	68a9      	ldr	r1, [r5, #8]
  4088ee:	6091      	str	r1, [r2, #8]
  4088f0:	461c      	mov	r4, r3
  4088f2:	46d1      	mov	r9, sl
  4088f4:	e72a      	b.n	40874c <_realloc_r+0xc0>
  4088f6:	eb09 0107 	add.w	r1, r9, r7
  4088fa:	ebab 0b07 	sub.w	fp, fp, r7
  4088fe:	f04b 0201 	orr.w	r2, fp, #1
  408902:	6099      	str	r1, [r3, #8]
  408904:	604a      	str	r2, [r1, #4]
  408906:	f855 3c04 	ldr.w	r3, [r5, #-4]
  40890a:	f003 0301 	and.w	r3, r3, #1
  40890e:	431f      	orrs	r7, r3
  408910:	4640      	mov	r0, r8
  408912:	f845 7c04 	str.w	r7, [r5, #-4]
  408916:	f7fb faeb 	bl	403ef0 <__malloc_unlock>
  40891a:	462e      	mov	r6, r5
  40891c:	e728      	b.n	408770 <_realloc_r+0xe4>
  40891e:	4629      	mov	r1, r5
  408920:	f7ff fb56 	bl	407fd0 <memmove>
  408924:	e6ff      	b.n	408726 <_realloc_r+0x9a>
  408926:	4629      	mov	r1, r5
  408928:	4630      	mov	r0, r6
  40892a:	461c      	mov	r4, r3
  40892c:	46d1      	mov	r9, sl
  40892e:	f7ff fb4f 	bl	407fd0 <memmove>
  408932:	e70b      	b.n	40874c <_realloc_r+0xc0>
  408934:	68ab      	ldr	r3, [r5, #8]
  408936:	6083      	str	r3, [r0, #8]
  408938:	68eb      	ldr	r3, [r5, #12]
  40893a:	60c3      	str	r3, [r0, #12]
  40893c:	2a24      	cmp	r2, #36	; 0x24
  40893e:	d017      	beq.n	408970 <_realloc_r+0x2e4>
  408940:	f100 0310 	add.w	r3, r0, #16
  408944:	f105 0210 	add.w	r2, r5, #16
  408948:	e6e7      	b.n	40871a <_realloc_r+0x8e>
  40894a:	f850 3c04 	ldr.w	r3, [r0, #-4]
  40894e:	f023 0303 	bic.w	r3, r3, #3
  408952:	441c      	add	r4, r3
  408954:	462e      	mov	r6, r5
  408956:	e6f9      	b.n	40874c <_realloc_r+0xc0>
  408958:	68a9      	ldr	r1, [r5, #8]
  40895a:	f8ca 1010 	str.w	r1, [sl, #16]
  40895e:	68e9      	ldr	r1, [r5, #12]
  408960:	f8ca 1014 	str.w	r1, [sl, #20]
  408964:	2a24      	cmp	r2, #36	; 0x24
  408966:	d00c      	beq.n	408982 <_realloc_r+0x2f6>
  408968:	3510      	adds	r5, #16
  40896a:	f10a 0218 	add.w	r2, sl, #24
  40896e:	e7b9      	b.n	4088e4 <_realloc_r+0x258>
  408970:	692b      	ldr	r3, [r5, #16]
  408972:	6103      	str	r3, [r0, #16]
  408974:	696b      	ldr	r3, [r5, #20]
  408976:	6143      	str	r3, [r0, #20]
  408978:	f105 0218 	add.w	r2, r5, #24
  40897c:	f100 0318 	add.w	r3, r0, #24
  408980:	e6cb      	b.n	40871a <_realloc_r+0x8e>
  408982:	692a      	ldr	r2, [r5, #16]
  408984:	f8ca 2018 	str.w	r2, [sl, #24]
  408988:	696a      	ldr	r2, [r5, #20]
  40898a:	f8ca 201c 	str.w	r2, [sl, #28]
  40898e:	3518      	adds	r5, #24
  408990:	f10a 0220 	add.w	r2, sl, #32
  408994:	e7a6      	b.n	4088e4 <_realloc_r+0x258>
  408996:	4632      	mov	r2, r6
  408998:	e77f      	b.n	40889a <_realloc_r+0x20e>
  40899a:	4629      	mov	r1, r5
  40899c:	4630      	mov	r0, r6
  40899e:	9301      	str	r3, [sp, #4]
  4089a0:	f7ff fb16 	bl	407fd0 <memmove>
  4089a4:	9b01      	ldr	r3, [sp, #4]
  4089a6:	e77e      	b.n	4088a6 <_realloc_r+0x21a>
  4089a8:	68a9      	ldr	r1, [r5, #8]
  4089aa:	f8ca 1010 	str.w	r1, [sl, #16]
  4089ae:	68e9      	ldr	r1, [r5, #12]
  4089b0:	f8ca 1014 	str.w	r1, [sl, #20]
  4089b4:	2a24      	cmp	r2, #36	; 0x24
  4089b6:	d003      	beq.n	4089c0 <_realloc_r+0x334>
  4089b8:	3510      	adds	r5, #16
  4089ba:	f10a 0218 	add.w	r2, sl, #24
  4089be:	e76c      	b.n	40889a <_realloc_r+0x20e>
  4089c0:	692a      	ldr	r2, [r5, #16]
  4089c2:	f8ca 2018 	str.w	r2, [sl, #24]
  4089c6:	696a      	ldr	r2, [r5, #20]
  4089c8:	f8ca 201c 	str.w	r2, [sl, #28]
  4089cc:	3518      	adds	r5, #24
  4089ce:	f10a 0220 	add.w	r2, sl, #32
  4089d2:	e762      	b.n	40889a <_realloc_r+0x20e>
  4089d4:	20400450 	.word	0x20400450

004089d8 <__sread>:
  4089d8:	b510      	push	{r4, lr}
  4089da:	460c      	mov	r4, r1
  4089dc:	f9b1 100e 	ldrsh.w	r1, [r1, #14]
  4089e0:	f000 faa4 	bl	408f2c <_read_r>
  4089e4:	2800      	cmp	r0, #0
  4089e6:	db03      	blt.n	4089f0 <__sread+0x18>
  4089e8:	6d23      	ldr	r3, [r4, #80]	; 0x50
  4089ea:	4403      	add	r3, r0
  4089ec:	6523      	str	r3, [r4, #80]	; 0x50
  4089ee:	bd10      	pop	{r4, pc}
  4089f0:	89a3      	ldrh	r3, [r4, #12]
  4089f2:	f423 5380 	bic.w	r3, r3, #4096	; 0x1000
  4089f6:	81a3      	strh	r3, [r4, #12]
  4089f8:	bd10      	pop	{r4, pc}
  4089fa:	bf00      	nop

004089fc <__swrite>:
  4089fc:	e92d 41f0 	stmdb	sp!, {r4, r5, r6, r7, r8, lr}
  408a00:	4616      	mov	r6, r2
  408a02:	f9b1 200c 	ldrsh.w	r2, [r1, #12]
  408a06:	461f      	mov	r7, r3
  408a08:	05d3      	lsls	r3, r2, #23
  408a0a:	460c      	mov	r4, r1
  408a0c:	4605      	mov	r5, r0
  408a0e:	d507      	bpl.n	408a20 <__swrite+0x24>
  408a10:	2200      	movs	r2, #0
  408a12:	2302      	movs	r3, #2
  408a14:	f9b1 100e 	ldrsh.w	r1, [r1, #14]
  408a18:	f000 fa72 	bl	408f00 <_lseek_r>
  408a1c:	f9b4 200c 	ldrsh.w	r2, [r4, #12]
  408a20:	f9b4 100e 	ldrsh.w	r1, [r4, #14]
  408a24:	f422 5280 	bic.w	r2, r2, #4096	; 0x1000
  408a28:	81a2      	strh	r2, [r4, #12]
  408a2a:	463b      	mov	r3, r7
  408a2c:	4632      	mov	r2, r6
  408a2e:	4628      	mov	r0, r5
  408a30:	e8bd 41f0 	ldmia.w	sp!, {r4, r5, r6, r7, r8, lr}
  408a34:	f000 b922 	b.w	408c7c <_write_r>

00408a38 <__sseek>:
  408a38:	b510      	push	{r4, lr}
  408a3a:	460c      	mov	r4, r1
  408a3c:	f9b1 100e 	ldrsh.w	r1, [r1, #14]
  408a40:	f000 fa5e 	bl	408f00 <_lseek_r>
  408a44:	89a3      	ldrh	r3, [r4, #12]
  408a46:	1c42      	adds	r2, r0, #1
  408a48:	bf0e      	itee	eq
  408a4a:	f423 5380 	biceq.w	r3, r3, #4096	; 0x1000
  408a4e:	f443 5380 	orrne.w	r3, r3, #4096	; 0x1000
  408a52:	6520      	strne	r0, [r4, #80]	; 0x50
  408a54:	81a3      	strh	r3, [r4, #12]
  408a56:	bd10      	pop	{r4, pc}

00408a58 <__sclose>:
  408a58:	f9b1 100e 	ldrsh.w	r1, [r1, #14]
  408a5c:	f000 b9b6 	b.w	408dcc <_close_r>

00408a60 <__ssprint_r>:
  408a60:	e92d 4ff0 	stmdb	sp!, {r4, r5, r6, r7, r8, r9, sl, fp, lr}
  408a64:	6893      	ldr	r3, [r2, #8]
  408a66:	b083      	sub	sp, #12
  408a68:	4690      	mov	r8, r2
  408a6a:	2b00      	cmp	r3, #0
  408a6c:	d070      	beq.n	408b50 <__ssprint_r+0xf0>
  408a6e:	4682      	mov	sl, r0
  408a70:	460c      	mov	r4, r1
  408a72:	6817      	ldr	r7, [r2, #0]
  408a74:	688d      	ldr	r5, [r1, #8]
  408a76:	6808      	ldr	r0, [r1, #0]
  408a78:	e042      	b.n	408b00 <__ssprint_r+0xa0>
  408a7a:	89a3      	ldrh	r3, [r4, #12]
  408a7c:	f413 6f90 	tst.w	r3, #1152	; 0x480
  408a80:	d02e      	beq.n	408ae0 <__ssprint_r+0x80>
  408a82:	6965      	ldr	r5, [r4, #20]
  408a84:	6921      	ldr	r1, [r4, #16]
  408a86:	eb05 0545 	add.w	r5, r5, r5, lsl #1
  408a8a:	eba0 0b01 	sub.w	fp, r0, r1
  408a8e:	eb05 75d5 	add.w	r5, r5, r5, lsr #31
  408a92:	f10b 0001 	add.w	r0, fp, #1
  408a96:	106d      	asrs	r5, r5, #1
  408a98:	4430      	add	r0, r6
  408a9a:	42a8      	cmp	r0, r5
  408a9c:	462a      	mov	r2, r5
  408a9e:	bf84      	itt	hi
  408aa0:	4605      	movhi	r5, r0
  408aa2:	462a      	movhi	r2, r5
  408aa4:	055b      	lsls	r3, r3, #21
  408aa6:	d538      	bpl.n	408b1a <__ssprint_r+0xba>
  408aa8:	4611      	mov	r1, r2
  408aaa:	4650      	mov	r0, sl
  408aac:	f7fa fe82 	bl	4037b4 <_malloc_r>
  408ab0:	2800      	cmp	r0, #0
  408ab2:	d03c      	beq.n	408b2e <__ssprint_r+0xce>
  408ab4:	465a      	mov	r2, fp
  408ab6:	6921      	ldr	r1, [r4, #16]
  408ab8:	9001      	str	r0, [sp, #4]
  408aba:	f7fb f92b 	bl	403d14 <memcpy>
  408abe:	89a2      	ldrh	r2, [r4, #12]
  408ac0:	9b01      	ldr	r3, [sp, #4]
  408ac2:	f422 6290 	bic.w	r2, r2, #1152	; 0x480
  408ac6:	f042 0280 	orr.w	r2, r2, #128	; 0x80
  408aca:	81a2      	strh	r2, [r4, #12]
  408acc:	eba5 020b 	sub.w	r2, r5, fp
  408ad0:	eb03 000b 	add.w	r0, r3, fp
  408ad4:	6165      	str	r5, [r4, #20]
  408ad6:	6123      	str	r3, [r4, #16]
  408ad8:	6020      	str	r0, [r4, #0]
  408ada:	60a2      	str	r2, [r4, #8]
  408adc:	4635      	mov	r5, r6
  408ade:	46b3      	mov	fp, r6
  408ae0:	465a      	mov	r2, fp
  408ae2:	4649      	mov	r1, r9
  408ae4:	f7ff fa74 	bl	407fd0 <memmove>
  408ae8:	f8d8 3008 	ldr.w	r3, [r8, #8]
  408aec:	68a2      	ldr	r2, [r4, #8]
  408aee:	6820      	ldr	r0, [r4, #0]
  408af0:	1b55      	subs	r5, r2, r5
  408af2:	4458      	add	r0, fp
  408af4:	1b9e      	subs	r6, r3, r6
  408af6:	60a5      	str	r5, [r4, #8]
  408af8:	6020      	str	r0, [r4, #0]
  408afa:	f8c8 6008 	str.w	r6, [r8, #8]
  408afe:	b33e      	cbz	r6, 408b50 <__ssprint_r+0xf0>
  408b00:	687e      	ldr	r6, [r7, #4]
  408b02:	463b      	mov	r3, r7
  408b04:	3708      	adds	r7, #8
  408b06:	2e00      	cmp	r6, #0
  408b08:	d0fa      	beq.n	408b00 <__ssprint_r+0xa0>
  408b0a:	42ae      	cmp	r6, r5
  408b0c:	f8d3 9000 	ldr.w	r9, [r3]
  408b10:	46ab      	mov	fp, r5
  408b12:	d2b2      	bcs.n	408a7a <__ssprint_r+0x1a>
  408b14:	4635      	mov	r5, r6
  408b16:	46b3      	mov	fp, r6
  408b18:	e7e2      	b.n	408ae0 <__ssprint_r+0x80>
  408b1a:	4650      	mov	r0, sl
  408b1c:	f7ff fdb6 	bl	40868c <_realloc_r>
  408b20:	4603      	mov	r3, r0
  408b22:	2800      	cmp	r0, #0
  408b24:	d1d2      	bne.n	408acc <__ssprint_r+0x6c>
  408b26:	6921      	ldr	r1, [r4, #16]
  408b28:	4650      	mov	r0, sl
  408b2a:	f7fe fec1 	bl	4078b0 <_free_r>
  408b2e:	230c      	movs	r3, #12
  408b30:	f8ca 3000 	str.w	r3, [sl]
  408b34:	89a3      	ldrh	r3, [r4, #12]
  408b36:	2200      	movs	r2, #0
  408b38:	f043 0340 	orr.w	r3, r3, #64	; 0x40
  408b3c:	f04f 30ff 	mov.w	r0, #4294967295
  408b40:	81a3      	strh	r3, [r4, #12]
  408b42:	f8c8 2008 	str.w	r2, [r8, #8]
  408b46:	f8c8 2004 	str.w	r2, [r8, #4]
  408b4a:	b003      	add	sp, #12
  408b4c:	e8bd 8ff0 	ldmia.w	sp!, {r4, r5, r6, r7, r8, r9, sl, fp, pc}
  408b50:	2000      	movs	r0, #0
  408b52:	f8c8 0004 	str.w	r0, [r8, #4]
  408b56:	b003      	add	sp, #12
  408b58:	e8bd 8ff0 	ldmia.w	sp!, {r4, r5, r6, r7, r8, r9, sl, fp, pc}

00408b5c <__swbuf_r>:
  408b5c:	b5f8      	push	{r3, r4, r5, r6, r7, lr}
  408b5e:	460d      	mov	r5, r1
  408b60:	4614      	mov	r4, r2
  408b62:	4606      	mov	r6, r0
  408b64:	b110      	cbz	r0, 408b6c <__swbuf_r+0x10>
  408b66:	6b83      	ldr	r3, [r0, #56]	; 0x38
  408b68:	2b00      	cmp	r3, #0
  408b6a:	d04b      	beq.n	408c04 <__swbuf_r+0xa8>
  408b6c:	f9b4 200c 	ldrsh.w	r2, [r4, #12]
  408b70:	69a3      	ldr	r3, [r4, #24]
  408b72:	60a3      	str	r3, [r4, #8]
  408b74:	b291      	uxth	r1, r2
  408b76:	0708      	lsls	r0, r1, #28
  408b78:	d539      	bpl.n	408bee <__swbuf_r+0x92>
  408b7a:	6923      	ldr	r3, [r4, #16]
  408b7c:	2b00      	cmp	r3, #0
  408b7e:	d036      	beq.n	408bee <__swbuf_r+0x92>
  408b80:	b2ed      	uxtb	r5, r5
  408b82:	0489      	lsls	r1, r1, #18
  408b84:	462f      	mov	r7, r5
  408b86:	d515      	bpl.n	408bb4 <__swbuf_r+0x58>
  408b88:	6822      	ldr	r2, [r4, #0]
  408b8a:	6961      	ldr	r1, [r4, #20]
  408b8c:	1ad3      	subs	r3, r2, r3
  408b8e:	428b      	cmp	r3, r1
  408b90:	da1c      	bge.n	408bcc <__swbuf_r+0x70>
  408b92:	3301      	adds	r3, #1
  408b94:	68a1      	ldr	r1, [r4, #8]
  408b96:	1c50      	adds	r0, r2, #1
  408b98:	3901      	subs	r1, #1
  408b9a:	60a1      	str	r1, [r4, #8]
  408b9c:	6020      	str	r0, [r4, #0]
  408b9e:	7015      	strb	r5, [r2, #0]
  408ba0:	6962      	ldr	r2, [r4, #20]
  408ba2:	429a      	cmp	r2, r3
  408ba4:	d01a      	beq.n	408bdc <__swbuf_r+0x80>
  408ba6:	89a3      	ldrh	r3, [r4, #12]
  408ba8:	07db      	lsls	r3, r3, #31
  408baa:	d501      	bpl.n	408bb0 <__swbuf_r+0x54>
  408bac:	2d0a      	cmp	r5, #10
  408bae:	d015      	beq.n	408bdc <__swbuf_r+0x80>
  408bb0:	4638      	mov	r0, r7
  408bb2:	bdf8      	pop	{r3, r4, r5, r6, r7, pc}
  408bb4:	6e61      	ldr	r1, [r4, #100]	; 0x64
  408bb6:	f442 5200 	orr.w	r2, r2, #8192	; 0x2000
  408bba:	f421 5100 	bic.w	r1, r1, #8192	; 0x2000
  408bbe:	81a2      	strh	r2, [r4, #12]
  408bc0:	6822      	ldr	r2, [r4, #0]
  408bc2:	6661      	str	r1, [r4, #100]	; 0x64
  408bc4:	6961      	ldr	r1, [r4, #20]
  408bc6:	1ad3      	subs	r3, r2, r3
  408bc8:	428b      	cmp	r3, r1
  408bca:	dbe2      	blt.n	408b92 <__swbuf_r+0x36>
  408bcc:	4621      	mov	r1, r4
  408bce:	4630      	mov	r0, r6
  408bd0:	f7fe fcf0 	bl	4075b4 <_fflush_r>
  408bd4:	b940      	cbnz	r0, 408be8 <__swbuf_r+0x8c>
  408bd6:	6822      	ldr	r2, [r4, #0]
  408bd8:	2301      	movs	r3, #1
  408bda:	e7db      	b.n	408b94 <__swbuf_r+0x38>
  408bdc:	4621      	mov	r1, r4
  408bde:	4630      	mov	r0, r6
  408be0:	f7fe fce8 	bl	4075b4 <_fflush_r>
  408be4:	2800      	cmp	r0, #0
  408be6:	d0e3      	beq.n	408bb0 <__swbuf_r+0x54>
  408be8:	f04f 37ff 	mov.w	r7, #4294967295
  408bec:	e7e0      	b.n	408bb0 <__swbuf_r+0x54>
  408bee:	4621      	mov	r1, r4
  408bf0:	4630      	mov	r0, r6
  408bf2:	f7fd fc0b 	bl	40640c <__swsetup_r>
  408bf6:	2800      	cmp	r0, #0
  408bf8:	d1f6      	bne.n	408be8 <__swbuf_r+0x8c>
  408bfa:	f9b4 200c 	ldrsh.w	r2, [r4, #12]
  408bfe:	6923      	ldr	r3, [r4, #16]
  408c00:	b291      	uxth	r1, r2
  408c02:	e7bd      	b.n	408b80 <__swbuf_r+0x24>
  408c04:	f7fe fd2e 	bl	407664 <__sinit>
  408c08:	e7b0      	b.n	408b6c <__swbuf_r+0x10>
  408c0a:	bf00      	nop

00408c0c <_wcrtomb_r>:
  408c0c:	b5f0      	push	{r4, r5, r6, r7, lr}
  408c0e:	4606      	mov	r6, r0
  408c10:	b085      	sub	sp, #20
  408c12:	461f      	mov	r7, r3
  408c14:	b189      	cbz	r1, 408c3a <_wcrtomb_r+0x2e>
  408c16:	4c10      	ldr	r4, [pc, #64]	; (408c58 <_wcrtomb_r+0x4c>)
  408c18:	4d10      	ldr	r5, [pc, #64]	; (408c5c <_wcrtomb_r+0x50>)
  408c1a:	6824      	ldr	r4, [r4, #0]
  408c1c:	6b64      	ldr	r4, [r4, #52]	; 0x34
  408c1e:	2c00      	cmp	r4, #0
  408c20:	bf08      	it	eq
  408c22:	462c      	moveq	r4, r5
  408c24:	f8d4 40e0 	ldr.w	r4, [r4, #224]	; 0xe0
  408c28:	47a0      	blx	r4
  408c2a:	1c43      	adds	r3, r0, #1
  408c2c:	d103      	bne.n	408c36 <_wcrtomb_r+0x2a>
  408c2e:	2200      	movs	r2, #0
  408c30:	238a      	movs	r3, #138	; 0x8a
  408c32:	603a      	str	r2, [r7, #0]
  408c34:	6033      	str	r3, [r6, #0]
  408c36:	b005      	add	sp, #20
  408c38:	bdf0      	pop	{r4, r5, r6, r7, pc}
  408c3a:	460c      	mov	r4, r1
  408c3c:	4906      	ldr	r1, [pc, #24]	; (408c58 <_wcrtomb_r+0x4c>)
  408c3e:	4a07      	ldr	r2, [pc, #28]	; (408c5c <_wcrtomb_r+0x50>)
  408c40:	6809      	ldr	r1, [r1, #0]
  408c42:	6b49      	ldr	r1, [r1, #52]	; 0x34
  408c44:	2900      	cmp	r1, #0
  408c46:	bf08      	it	eq
  408c48:	4611      	moveq	r1, r2
  408c4a:	4622      	mov	r2, r4
  408c4c:	f8d1 40e0 	ldr.w	r4, [r1, #224]	; 0xe0
  408c50:	a901      	add	r1, sp, #4
  408c52:	47a0      	blx	r4
  408c54:	e7e9      	b.n	408c2a <_wcrtomb_r+0x1e>
  408c56:	bf00      	nop
  408c58:	20400024 	.word	0x20400024
  408c5c:	20400864 	.word	0x20400864

00408c60 <__ascii_wctomb>:
  408c60:	b121      	cbz	r1, 408c6c <__ascii_wctomb+0xc>
  408c62:	2aff      	cmp	r2, #255	; 0xff
  408c64:	d804      	bhi.n	408c70 <__ascii_wctomb+0x10>
  408c66:	700a      	strb	r2, [r1, #0]
  408c68:	2001      	movs	r0, #1
  408c6a:	4770      	bx	lr
  408c6c:	4608      	mov	r0, r1
  408c6e:	4770      	bx	lr
  408c70:	238a      	movs	r3, #138	; 0x8a
  408c72:	6003      	str	r3, [r0, #0]
  408c74:	f04f 30ff 	mov.w	r0, #4294967295
  408c78:	4770      	bx	lr
  408c7a:	bf00      	nop

00408c7c <_write_r>:
  408c7c:	b570      	push	{r4, r5, r6, lr}
  408c7e:	460d      	mov	r5, r1
  408c80:	4c08      	ldr	r4, [pc, #32]	; (408ca4 <_write_r+0x28>)
  408c82:	4611      	mov	r1, r2
  408c84:	4606      	mov	r6, r0
  408c86:	461a      	mov	r2, r3
  408c88:	4628      	mov	r0, r5
  408c8a:	2300      	movs	r3, #0
  408c8c:	6023      	str	r3, [r4, #0]
  408c8e:	f7f7 fe57 	bl	400940 <_write>
  408c92:	1c43      	adds	r3, r0, #1
  408c94:	d000      	beq.n	408c98 <_write_r+0x1c>
  408c96:	bd70      	pop	{r4, r5, r6, pc}
  408c98:	6823      	ldr	r3, [r4, #0]
  408c9a:	2b00      	cmp	r3, #0
  408c9c:	d0fb      	beq.n	408c96 <_write_r+0x1a>
  408c9e:	6033      	str	r3, [r6, #0]
  408ca0:	bd70      	pop	{r4, r5, r6, pc}
  408ca2:	bf00      	nop
  408ca4:	20400e5c 	.word	0x20400e5c

00408ca8 <__register_exitproc>:
  408ca8:	e92d 43f8 	stmdb	sp!, {r3, r4, r5, r6, r7, r8, r9, lr}
  408cac:	4d2c      	ldr	r5, [pc, #176]	; (408d60 <__register_exitproc+0xb8>)
  408cae:	4606      	mov	r6, r0
  408cb0:	6828      	ldr	r0, [r5, #0]
  408cb2:	4698      	mov	r8, r3
  408cb4:	460f      	mov	r7, r1
  408cb6:	4691      	mov	r9, r2
  408cb8:	f7ff f8a2 	bl	407e00 <__retarget_lock_acquire_recursive>
  408cbc:	4b29      	ldr	r3, [pc, #164]	; (408d64 <__register_exitproc+0xbc>)
  408cbe:	681c      	ldr	r4, [r3, #0]
  408cc0:	f8d4 3148 	ldr.w	r3, [r4, #328]	; 0x148
  408cc4:	2b00      	cmp	r3, #0
  408cc6:	d03e      	beq.n	408d46 <__register_exitproc+0x9e>
  408cc8:	685a      	ldr	r2, [r3, #4]
  408cca:	2a1f      	cmp	r2, #31
  408ccc:	dc1c      	bgt.n	408d08 <__register_exitproc+0x60>
  408cce:	f102 0e01 	add.w	lr, r2, #1
  408cd2:	b176      	cbz	r6, 408cf2 <__register_exitproc+0x4a>
  408cd4:	eb03 0182 	add.w	r1, r3, r2, lsl #2
  408cd8:	2401      	movs	r4, #1
  408cda:	f8c1 9088 	str.w	r9, [r1, #136]	; 0x88
  408cde:	f8d3 0188 	ldr.w	r0, [r3, #392]	; 0x188
  408ce2:	4094      	lsls	r4, r2
  408ce4:	4320      	orrs	r0, r4
  408ce6:	2e02      	cmp	r6, #2
  408ce8:	f8c3 0188 	str.w	r0, [r3, #392]	; 0x188
  408cec:	f8c1 8108 	str.w	r8, [r1, #264]	; 0x108
  408cf0:	d023      	beq.n	408d3a <__register_exitproc+0x92>
  408cf2:	3202      	adds	r2, #2
  408cf4:	f8c3 e004 	str.w	lr, [r3, #4]
  408cf8:	6828      	ldr	r0, [r5, #0]
  408cfa:	f843 7022 	str.w	r7, [r3, r2, lsl #2]
  408cfe:	f7ff f881 	bl	407e04 <__retarget_lock_release_recursive>
  408d02:	2000      	movs	r0, #0
  408d04:	e8bd 83f8 	ldmia.w	sp!, {r3, r4, r5, r6, r7, r8, r9, pc}
  408d08:	4b17      	ldr	r3, [pc, #92]	; (408d68 <__register_exitproc+0xc0>)
  408d0a:	b30b      	cbz	r3, 408d50 <__register_exitproc+0xa8>
  408d0c:	f44f 70c8 	mov.w	r0, #400	; 0x190
  408d10:	f7fa fd40 	bl	403794 <malloc>
  408d14:	4603      	mov	r3, r0
  408d16:	b1d8      	cbz	r0, 408d50 <__register_exitproc+0xa8>
  408d18:	f8d4 2148 	ldr.w	r2, [r4, #328]	; 0x148
  408d1c:	6002      	str	r2, [r0, #0]
  408d1e:	2100      	movs	r1, #0
  408d20:	6041      	str	r1, [r0, #4]
  408d22:	460a      	mov	r2, r1
  408d24:	f8c4 0148 	str.w	r0, [r4, #328]	; 0x148
  408d28:	f04f 0e01 	mov.w	lr, #1
  408d2c:	f8c0 1188 	str.w	r1, [r0, #392]	; 0x188
  408d30:	f8c0 118c 	str.w	r1, [r0, #396]	; 0x18c
  408d34:	2e00      	cmp	r6, #0
  408d36:	d0dc      	beq.n	408cf2 <__register_exitproc+0x4a>
  408d38:	e7cc      	b.n	408cd4 <__register_exitproc+0x2c>
  408d3a:	f8d3 118c 	ldr.w	r1, [r3, #396]	; 0x18c
  408d3e:	430c      	orrs	r4, r1
  408d40:	f8c3 418c 	str.w	r4, [r3, #396]	; 0x18c
  408d44:	e7d5      	b.n	408cf2 <__register_exitproc+0x4a>
  408d46:	f504 73a6 	add.w	r3, r4, #332	; 0x14c
  408d4a:	f8c4 3148 	str.w	r3, [r4, #328]	; 0x148
  408d4e:	e7bb      	b.n	408cc8 <__register_exitproc+0x20>
  408d50:	6828      	ldr	r0, [r5, #0]
  408d52:	f7ff f857 	bl	407e04 <__retarget_lock_release_recursive>
  408d56:	f04f 30ff 	mov.w	r0, #4294967295
  408d5a:	e8bd 83f8 	ldmia.w	sp!, {r3, r4, r5, r6, r7, r8, r9, pc}
  408d5e:	bf00      	nop
  408d60:	20400860 	.word	0x20400860
  408d64:	00409f34 	.word	0x00409f34
  408d68:	00403795 	.word	0x00403795

00408d6c <_calloc_r>:
  408d6c:	b510      	push	{r4, lr}
  408d6e:	fb02 f101 	mul.w	r1, r2, r1
  408d72:	f7fa fd1f 	bl	4037b4 <_malloc_r>
  408d76:	4604      	mov	r4, r0
  408d78:	b1d8      	cbz	r0, 408db2 <_calloc_r+0x46>
  408d7a:	f850 2c04 	ldr.w	r2, [r0, #-4]
  408d7e:	f022 0203 	bic.w	r2, r2, #3
  408d82:	3a04      	subs	r2, #4
  408d84:	2a24      	cmp	r2, #36	; 0x24
  408d86:	d818      	bhi.n	408dba <_calloc_r+0x4e>
  408d88:	2a13      	cmp	r2, #19
  408d8a:	d914      	bls.n	408db6 <_calloc_r+0x4a>
  408d8c:	2300      	movs	r3, #0
  408d8e:	2a1b      	cmp	r2, #27
  408d90:	6003      	str	r3, [r0, #0]
  408d92:	6043      	str	r3, [r0, #4]
  408d94:	d916      	bls.n	408dc4 <_calloc_r+0x58>
  408d96:	2a24      	cmp	r2, #36	; 0x24
  408d98:	6083      	str	r3, [r0, #8]
  408d9a:	60c3      	str	r3, [r0, #12]
  408d9c:	bf11      	iteee	ne
  408d9e:	f100 0210 	addne.w	r2, r0, #16
  408da2:	6103      	streq	r3, [r0, #16]
  408da4:	6143      	streq	r3, [r0, #20]
  408da6:	f100 0218 	addeq.w	r2, r0, #24
  408daa:	2300      	movs	r3, #0
  408dac:	6013      	str	r3, [r2, #0]
  408dae:	6053      	str	r3, [r2, #4]
  408db0:	6093      	str	r3, [r2, #8]
  408db2:	4620      	mov	r0, r4
  408db4:	bd10      	pop	{r4, pc}
  408db6:	4602      	mov	r2, r0
  408db8:	e7f7      	b.n	408daa <_calloc_r+0x3e>
  408dba:	2100      	movs	r1, #0
  408dbc:	f7fb f844 	bl	403e48 <memset>
  408dc0:	4620      	mov	r0, r4
  408dc2:	bd10      	pop	{r4, pc}
  408dc4:	f100 0208 	add.w	r2, r0, #8
  408dc8:	e7ef      	b.n	408daa <_calloc_r+0x3e>
  408dca:	bf00      	nop

00408dcc <_close_r>:
  408dcc:	b538      	push	{r3, r4, r5, lr}
  408dce:	4c07      	ldr	r4, [pc, #28]	; (408dec <_close_r+0x20>)
  408dd0:	2300      	movs	r3, #0
  408dd2:	4605      	mov	r5, r0
  408dd4:	4608      	mov	r0, r1
  408dd6:	6023      	str	r3, [r4, #0]
  408dd8:	f7f8 facc 	bl	401374 <_close>
  408ddc:	1c43      	adds	r3, r0, #1
  408dde:	d000      	beq.n	408de2 <_close_r+0x16>
  408de0:	bd38      	pop	{r3, r4, r5, pc}
  408de2:	6823      	ldr	r3, [r4, #0]
  408de4:	2b00      	cmp	r3, #0
  408de6:	d0fb      	beq.n	408de0 <_close_r+0x14>
  408de8:	602b      	str	r3, [r5, #0]
  408dea:	bd38      	pop	{r3, r4, r5, pc}
  408dec:	20400e5c 	.word	0x20400e5c

00408df0 <_fclose_r>:
  408df0:	b570      	push	{r4, r5, r6, lr}
  408df2:	b159      	cbz	r1, 408e0c <_fclose_r+0x1c>
  408df4:	4605      	mov	r5, r0
  408df6:	460c      	mov	r4, r1
  408df8:	b110      	cbz	r0, 408e00 <_fclose_r+0x10>
  408dfa:	6b83      	ldr	r3, [r0, #56]	; 0x38
  408dfc:	2b00      	cmp	r3, #0
  408dfe:	d03c      	beq.n	408e7a <_fclose_r+0x8a>
  408e00:	6e63      	ldr	r3, [r4, #100]	; 0x64
  408e02:	07d8      	lsls	r0, r3, #31
  408e04:	d505      	bpl.n	408e12 <_fclose_r+0x22>
  408e06:	f9b4 300c 	ldrsh.w	r3, [r4, #12]
  408e0a:	b92b      	cbnz	r3, 408e18 <_fclose_r+0x28>
  408e0c:	2600      	movs	r6, #0
  408e0e:	4630      	mov	r0, r6
  408e10:	bd70      	pop	{r4, r5, r6, pc}
  408e12:	89a3      	ldrh	r3, [r4, #12]
  408e14:	0599      	lsls	r1, r3, #22
  408e16:	d53c      	bpl.n	408e92 <_fclose_r+0xa2>
  408e18:	4621      	mov	r1, r4
  408e1a:	4628      	mov	r0, r5
  408e1c:	f7fe fb2a 	bl	407474 <__sflush_r>
  408e20:	6ae3      	ldr	r3, [r4, #44]	; 0x2c
  408e22:	4606      	mov	r6, r0
  408e24:	b133      	cbz	r3, 408e34 <_fclose_r+0x44>
  408e26:	69e1      	ldr	r1, [r4, #28]
  408e28:	4628      	mov	r0, r5
  408e2a:	4798      	blx	r3
  408e2c:	2800      	cmp	r0, #0
  408e2e:	bfb8      	it	lt
  408e30:	f04f 36ff 	movlt.w	r6, #4294967295
  408e34:	89a3      	ldrh	r3, [r4, #12]
  408e36:	061a      	lsls	r2, r3, #24
  408e38:	d422      	bmi.n	408e80 <_fclose_r+0x90>
  408e3a:	6b21      	ldr	r1, [r4, #48]	; 0x30
  408e3c:	b141      	cbz	r1, 408e50 <_fclose_r+0x60>
  408e3e:	f104 0340 	add.w	r3, r4, #64	; 0x40
  408e42:	4299      	cmp	r1, r3
  408e44:	d002      	beq.n	408e4c <_fclose_r+0x5c>
  408e46:	4628      	mov	r0, r5
  408e48:	f7fe fd32 	bl	4078b0 <_free_r>
  408e4c:	2300      	movs	r3, #0
  408e4e:	6323      	str	r3, [r4, #48]	; 0x30
  408e50:	6c61      	ldr	r1, [r4, #68]	; 0x44
  408e52:	b121      	cbz	r1, 408e5e <_fclose_r+0x6e>
  408e54:	4628      	mov	r0, r5
  408e56:	f7fe fd2b 	bl	4078b0 <_free_r>
  408e5a:	2300      	movs	r3, #0
  408e5c:	6463      	str	r3, [r4, #68]	; 0x44
  408e5e:	f7fe fc2d 	bl	4076bc <__sfp_lock_acquire>
  408e62:	6e63      	ldr	r3, [r4, #100]	; 0x64
  408e64:	2200      	movs	r2, #0
  408e66:	07db      	lsls	r3, r3, #31
  408e68:	81a2      	strh	r2, [r4, #12]
  408e6a:	d50e      	bpl.n	408e8a <_fclose_r+0x9a>
  408e6c:	6da0      	ldr	r0, [r4, #88]	; 0x58
  408e6e:	f7fe ffc5 	bl	407dfc <__retarget_lock_close_recursive>
  408e72:	f7fe fc29 	bl	4076c8 <__sfp_lock_release>
  408e76:	4630      	mov	r0, r6
  408e78:	bd70      	pop	{r4, r5, r6, pc}
  408e7a:	f7fe fbf3 	bl	407664 <__sinit>
  408e7e:	e7bf      	b.n	408e00 <_fclose_r+0x10>
  408e80:	6921      	ldr	r1, [r4, #16]
  408e82:	4628      	mov	r0, r5
  408e84:	f7fe fd14 	bl	4078b0 <_free_r>
  408e88:	e7d7      	b.n	408e3a <_fclose_r+0x4a>
  408e8a:	6da0      	ldr	r0, [r4, #88]	; 0x58
  408e8c:	f7fe ffba 	bl	407e04 <__retarget_lock_release_recursive>
  408e90:	e7ec      	b.n	408e6c <_fclose_r+0x7c>
  408e92:	6da0      	ldr	r0, [r4, #88]	; 0x58
  408e94:	f7fe ffb4 	bl	407e00 <__retarget_lock_acquire_recursive>
  408e98:	f9b4 300c 	ldrsh.w	r3, [r4, #12]
  408e9c:	2b00      	cmp	r3, #0
  408e9e:	d1bb      	bne.n	408e18 <_fclose_r+0x28>
  408ea0:	6e66      	ldr	r6, [r4, #100]	; 0x64
  408ea2:	f016 0601 	ands.w	r6, r6, #1
  408ea6:	d1b1      	bne.n	408e0c <_fclose_r+0x1c>
  408ea8:	6da0      	ldr	r0, [r4, #88]	; 0x58
  408eaa:	f7fe ffab 	bl	407e04 <__retarget_lock_release_recursive>
  408eae:	4630      	mov	r0, r6
  408eb0:	bd70      	pop	{r4, r5, r6, pc}
  408eb2:	bf00      	nop

00408eb4 <_fstat_r>:
  408eb4:	b538      	push	{r3, r4, r5, lr}
  408eb6:	460b      	mov	r3, r1
  408eb8:	4c07      	ldr	r4, [pc, #28]	; (408ed8 <_fstat_r+0x24>)
  408eba:	4605      	mov	r5, r0
  408ebc:	4611      	mov	r1, r2
  408ebe:	4618      	mov	r0, r3
  408ec0:	2300      	movs	r3, #0
  408ec2:	6023      	str	r3, [r4, #0]
  408ec4:	f7f8 fa59 	bl	40137a <_fstat>
  408ec8:	1c43      	adds	r3, r0, #1
  408eca:	d000      	beq.n	408ece <_fstat_r+0x1a>
  408ecc:	bd38      	pop	{r3, r4, r5, pc}
  408ece:	6823      	ldr	r3, [r4, #0]
  408ed0:	2b00      	cmp	r3, #0
  408ed2:	d0fb      	beq.n	408ecc <_fstat_r+0x18>
  408ed4:	602b      	str	r3, [r5, #0]
  408ed6:	bd38      	pop	{r3, r4, r5, pc}
  408ed8:	20400e5c 	.word	0x20400e5c

00408edc <_isatty_r>:
  408edc:	b538      	push	{r3, r4, r5, lr}
  408ede:	4c07      	ldr	r4, [pc, #28]	; (408efc <_isatty_r+0x20>)
  408ee0:	2300      	movs	r3, #0
  408ee2:	4605      	mov	r5, r0
  408ee4:	4608      	mov	r0, r1
  408ee6:	6023      	str	r3, [r4, #0]
  408ee8:	f7f8 fa4c 	bl	401384 <_isatty>
  408eec:	1c43      	adds	r3, r0, #1
  408eee:	d000      	beq.n	408ef2 <_isatty_r+0x16>
  408ef0:	bd38      	pop	{r3, r4, r5, pc}
  408ef2:	6823      	ldr	r3, [r4, #0]
  408ef4:	2b00      	cmp	r3, #0
  408ef6:	d0fb      	beq.n	408ef0 <_isatty_r+0x14>
  408ef8:	602b      	str	r3, [r5, #0]
  408efa:	bd38      	pop	{r3, r4, r5, pc}
  408efc:	20400e5c 	.word	0x20400e5c

00408f00 <_lseek_r>:
  408f00:	b570      	push	{r4, r5, r6, lr}
  408f02:	460d      	mov	r5, r1
  408f04:	4c08      	ldr	r4, [pc, #32]	; (408f28 <_lseek_r+0x28>)
  408f06:	4611      	mov	r1, r2
  408f08:	4606      	mov	r6, r0
  408f0a:	461a      	mov	r2, r3
  408f0c:	4628      	mov	r0, r5
  408f0e:	2300      	movs	r3, #0
  408f10:	6023      	str	r3, [r4, #0]
  408f12:	f7f8 fa39 	bl	401388 <_lseek>
  408f16:	1c43      	adds	r3, r0, #1
  408f18:	d000      	beq.n	408f1c <_lseek_r+0x1c>
  408f1a:	bd70      	pop	{r4, r5, r6, pc}
  408f1c:	6823      	ldr	r3, [r4, #0]
  408f1e:	2b00      	cmp	r3, #0
  408f20:	d0fb      	beq.n	408f1a <_lseek_r+0x1a>
  408f22:	6033      	str	r3, [r6, #0]
  408f24:	bd70      	pop	{r4, r5, r6, pc}
  408f26:	bf00      	nop
  408f28:	20400e5c 	.word	0x20400e5c

00408f2c <_read_r>:
  408f2c:	b570      	push	{r4, r5, r6, lr}
  408f2e:	460d      	mov	r5, r1
  408f30:	4c08      	ldr	r4, [pc, #32]	; (408f54 <_read_r+0x28>)
  408f32:	4611      	mov	r1, r2
  408f34:	4606      	mov	r6, r0
  408f36:	461a      	mov	r2, r3
  408f38:	4628      	mov	r0, r5
  408f3a:	2300      	movs	r3, #0
  408f3c:	6023      	str	r3, [r4, #0]
  408f3e:	f7f7 fce1 	bl	400904 <_read>
  408f42:	1c43      	adds	r3, r0, #1
  408f44:	d000      	beq.n	408f48 <_read_r+0x1c>
  408f46:	bd70      	pop	{r4, r5, r6, pc}
  408f48:	6823      	ldr	r3, [r4, #0]
  408f4a:	2b00      	cmp	r3, #0
  408f4c:	d0fb      	beq.n	408f46 <_read_r+0x1a>
  408f4e:	6033      	str	r3, [r6, #0]
  408f50:	bd70      	pop	{r4, r5, r6, pc}
  408f52:	bf00      	nop
  408f54:	20400e5c 	.word	0x20400e5c

00408f58 <__aeabi_drsub>:
  408f58:	f081 4100 	eor.w	r1, r1, #2147483648	; 0x80000000
  408f5c:	e002      	b.n	408f64 <__adddf3>
  408f5e:	bf00      	nop

00408f60 <__aeabi_dsub>:
  408f60:	f083 4300 	eor.w	r3, r3, #2147483648	; 0x80000000

00408f64 <__adddf3>:
  408f64:	b530      	push	{r4, r5, lr}
  408f66:	ea4f 0441 	mov.w	r4, r1, lsl #1
  408f6a:	ea4f 0543 	mov.w	r5, r3, lsl #1
  408f6e:	ea94 0f05 	teq	r4, r5
  408f72:	bf08      	it	eq
  408f74:	ea90 0f02 	teqeq	r0, r2
  408f78:	bf1f      	itttt	ne
  408f7a:	ea54 0c00 	orrsne.w	ip, r4, r0
  408f7e:	ea55 0c02 	orrsne.w	ip, r5, r2
  408f82:	ea7f 5c64 	mvnsne.w	ip, r4, asr #21
  408f86:	ea7f 5c65 	mvnsne.w	ip, r5, asr #21
  408f8a:	f000 80e2 	beq.w	409152 <__adddf3+0x1ee>
  408f8e:	ea4f 5454 	mov.w	r4, r4, lsr #21
  408f92:	ebd4 5555 	rsbs	r5, r4, r5, lsr #21
  408f96:	bfb8      	it	lt
  408f98:	426d      	neglt	r5, r5
  408f9a:	dd0c      	ble.n	408fb6 <__adddf3+0x52>
  408f9c:	442c      	add	r4, r5
  408f9e:	ea80 0202 	eor.w	r2, r0, r2
  408fa2:	ea81 0303 	eor.w	r3, r1, r3
  408fa6:	ea82 0000 	eor.w	r0, r2, r0
  408faa:	ea83 0101 	eor.w	r1, r3, r1
  408fae:	ea80 0202 	eor.w	r2, r0, r2
  408fb2:	ea81 0303 	eor.w	r3, r1, r3
  408fb6:	2d36      	cmp	r5, #54	; 0x36
  408fb8:	bf88      	it	hi
  408fba:	bd30      	pophi	{r4, r5, pc}
  408fbc:	f011 4f00 	tst.w	r1, #2147483648	; 0x80000000
  408fc0:	ea4f 3101 	mov.w	r1, r1, lsl #12
  408fc4:	f44f 1c80 	mov.w	ip, #1048576	; 0x100000
  408fc8:	ea4c 3111 	orr.w	r1, ip, r1, lsr #12
  408fcc:	d002      	beq.n	408fd4 <__adddf3+0x70>
  408fce:	4240      	negs	r0, r0
  408fd0:	eb61 0141 	sbc.w	r1, r1, r1, lsl #1
  408fd4:	f013 4f00 	tst.w	r3, #2147483648	; 0x80000000
  408fd8:	ea4f 3303 	mov.w	r3, r3, lsl #12
  408fdc:	ea4c 3313 	orr.w	r3, ip, r3, lsr #12
  408fe0:	d002      	beq.n	408fe8 <__adddf3+0x84>
  408fe2:	4252      	negs	r2, r2
  408fe4:	eb63 0343 	sbc.w	r3, r3, r3, lsl #1
  408fe8:	ea94 0f05 	teq	r4, r5
  408fec:	f000 80a7 	beq.w	40913e <__adddf3+0x1da>
  408ff0:	f1a4 0401 	sub.w	r4, r4, #1
  408ff4:	f1d5 0e20 	rsbs	lr, r5, #32
  408ff8:	db0d      	blt.n	409016 <__adddf3+0xb2>
  408ffa:	fa02 fc0e 	lsl.w	ip, r2, lr
  408ffe:	fa22 f205 	lsr.w	r2, r2, r5
  409002:	1880      	adds	r0, r0, r2
  409004:	f141 0100 	adc.w	r1, r1, #0
  409008:	fa03 f20e 	lsl.w	r2, r3, lr
  40900c:	1880      	adds	r0, r0, r2
  40900e:	fa43 f305 	asr.w	r3, r3, r5
  409012:	4159      	adcs	r1, r3
  409014:	e00e      	b.n	409034 <__adddf3+0xd0>
  409016:	f1a5 0520 	sub.w	r5, r5, #32
  40901a:	f10e 0e20 	add.w	lr, lr, #32
  40901e:	2a01      	cmp	r2, #1
  409020:	fa03 fc0e 	lsl.w	ip, r3, lr
  409024:	bf28      	it	cs
  409026:	f04c 0c02 	orrcs.w	ip, ip, #2
  40902a:	fa43 f305 	asr.w	r3, r3, r5
  40902e:	18c0      	adds	r0, r0, r3
  409030:	eb51 71e3 	adcs.w	r1, r1, r3, asr #31
  409034:	f001 4500 	and.w	r5, r1, #2147483648	; 0x80000000
  409038:	d507      	bpl.n	40904a <__adddf3+0xe6>
  40903a:	f04f 0e00 	mov.w	lr, #0
  40903e:	f1dc 0c00 	rsbs	ip, ip, #0
  409042:	eb7e 0000 	sbcs.w	r0, lr, r0
  409046:	eb6e 0101 	sbc.w	r1, lr, r1
  40904a:	f5b1 1f80 	cmp.w	r1, #1048576	; 0x100000
  40904e:	d31b      	bcc.n	409088 <__adddf3+0x124>
  409050:	f5b1 1f00 	cmp.w	r1, #2097152	; 0x200000
  409054:	d30c      	bcc.n	409070 <__adddf3+0x10c>
  409056:	0849      	lsrs	r1, r1, #1
  409058:	ea5f 0030 	movs.w	r0, r0, rrx
  40905c:	ea4f 0c3c 	mov.w	ip, ip, rrx
  409060:	f104 0401 	add.w	r4, r4, #1
  409064:	ea4f 5244 	mov.w	r2, r4, lsl #21
  409068:	f512 0f80 	cmn.w	r2, #4194304	; 0x400000
  40906c:	f080 809a 	bcs.w	4091a4 <__adddf3+0x240>
  409070:	f1bc 4f00 	cmp.w	ip, #2147483648	; 0x80000000
  409074:	bf08      	it	eq
  409076:	ea5f 0c50 	movseq.w	ip, r0, lsr #1
  40907a:	f150 0000 	adcs.w	r0, r0, #0
  40907e:	eb41 5104 	adc.w	r1, r1, r4, lsl #20
  409082:	ea41 0105 	orr.w	r1, r1, r5
  409086:	bd30      	pop	{r4, r5, pc}
  409088:	ea5f 0c4c 	movs.w	ip, ip, lsl #1
  40908c:	4140      	adcs	r0, r0
  40908e:	eb41 0101 	adc.w	r1, r1, r1
  409092:	f411 1f80 	tst.w	r1, #1048576	; 0x100000
  409096:	f1a4 0401 	sub.w	r4, r4, #1
  40909a:	d1e9      	bne.n	409070 <__adddf3+0x10c>
  40909c:	f091 0f00 	teq	r1, #0
  4090a0:	bf04      	itt	eq
  4090a2:	4601      	moveq	r1, r0
  4090a4:	2000      	moveq	r0, #0
  4090a6:	fab1 f381 	clz	r3, r1
  4090aa:	bf08      	it	eq
  4090ac:	3320      	addeq	r3, #32
  4090ae:	f1a3 030b 	sub.w	r3, r3, #11
  4090b2:	f1b3 0220 	subs.w	r2, r3, #32
  4090b6:	da0c      	bge.n	4090d2 <__adddf3+0x16e>
  4090b8:	320c      	adds	r2, #12
  4090ba:	dd08      	ble.n	4090ce <__adddf3+0x16a>
  4090bc:	f102 0c14 	add.w	ip, r2, #20
  4090c0:	f1c2 020c 	rsb	r2, r2, #12
  4090c4:	fa01 f00c 	lsl.w	r0, r1, ip
  4090c8:	fa21 f102 	lsr.w	r1, r1, r2
  4090cc:	e00c      	b.n	4090e8 <__adddf3+0x184>
  4090ce:	f102 0214 	add.w	r2, r2, #20
  4090d2:	bfd8      	it	le
  4090d4:	f1c2 0c20 	rsble	ip, r2, #32
  4090d8:	fa01 f102 	lsl.w	r1, r1, r2
  4090dc:	fa20 fc0c 	lsr.w	ip, r0, ip
  4090e0:	bfdc      	itt	le
  4090e2:	ea41 010c 	orrle.w	r1, r1, ip
  4090e6:	4090      	lslle	r0, r2
  4090e8:	1ae4      	subs	r4, r4, r3
  4090ea:	bfa2      	ittt	ge
  4090ec:	eb01 5104 	addge.w	r1, r1, r4, lsl #20
  4090f0:	4329      	orrge	r1, r5
  4090f2:	bd30      	popge	{r4, r5, pc}
  4090f4:	ea6f 0404 	mvn.w	r4, r4
  4090f8:	3c1f      	subs	r4, #31
  4090fa:	da1c      	bge.n	409136 <__adddf3+0x1d2>
  4090fc:	340c      	adds	r4, #12
  4090fe:	dc0e      	bgt.n	40911e <__adddf3+0x1ba>
  409100:	f104 0414 	add.w	r4, r4, #20
  409104:	f1c4 0220 	rsb	r2, r4, #32
  409108:	fa20 f004 	lsr.w	r0, r0, r4
  40910c:	fa01 f302 	lsl.w	r3, r1, r2
  409110:	ea40 0003 	orr.w	r0, r0, r3
  409114:	fa21 f304 	lsr.w	r3, r1, r4
  409118:	ea45 0103 	orr.w	r1, r5, r3
  40911c:	bd30      	pop	{r4, r5, pc}
  40911e:	f1c4 040c 	rsb	r4, r4, #12
  409122:	f1c4 0220 	rsb	r2, r4, #32
  409126:	fa20 f002 	lsr.w	r0, r0, r2
  40912a:	fa01 f304 	lsl.w	r3, r1, r4
  40912e:	ea40 0003 	orr.w	r0, r0, r3
  409132:	4629      	mov	r1, r5
  409134:	bd30      	pop	{r4, r5, pc}
  409136:	fa21 f004 	lsr.w	r0, r1, r4
  40913a:	4629      	mov	r1, r5
  40913c:	bd30      	pop	{r4, r5, pc}
  40913e:	f094 0f00 	teq	r4, #0
  409142:	f483 1380 	eor.w	r3, r3, #1048576	; 0x100000
  409146:	bf06      	itte	eq
  409148:	f481 1180 	eoreq.w	r1, r1, #1048576	; 0x100000
  40914c:	3401      	addeq	r4, #1
  40914e:	3d01      	subne	r5, #1
  409150:	e74e      	b.n	408ff0 <__adddf3+0x8c>
  409152:	ea7f 5c64 	mvns.w	ip, r4, asr #21
  409156:	bf18      	it	ne
  409158:	ea7f 5c65 	mvnsne.w	ip, r5, asr #21
  40915c:	d029      	beq.n	4091b2 <__adddf3+0x24e>
  40915e:	ea94 0f05 	teq	r4, r5
  409162:	bf08      	it	eq
  409164:	ea90 0f02 	teqeq	r0, r2
  409168:	d005      	beq.n	409176 <__adddf3+0x212>
  40916a:	ea54 0c00 	orrs.w	ip, r4, r0
  40916e:	bf04      	itt	eq
  409170:	4619      	moveq	r1, r3
  409172:	4610      	moveq	r0, r2
  409174:	bd30      	pop	{r4, r5, pc}
  409176:	ea91 0f03 	teq	r1, r3
  40917a:	bf1e      	ittt	ne
  40917c:	2100      	movne	r1, #0
  40917e:	2000      	movne	r0, #0
  409180:	bd30      	popne	{r4, r5, pc}
  409182:	ea5f 5c54 	movs.w	ip, r4, lsr #21
  409186:	d105      	bne.n	409194 <__adddf3+0x230>
  409188:	0040      	lsls	r0, r0, #1
  40918a:	4149      	adcs	r1, r1
  40918c:	bf28      	it	cs
  40918e:	f041 4100 	orrcs.w	r1, r1, #2147483648	; 0x80000000
  409192:	bd30      	pop	{r4, r5, pc}
  409194:	f514 0480 	adds.w	r4, r4, #4194304	; 0x400000
  409198:	bf3c      	itt	cc
  40919a:	f501 1180 	addcc.w	r1, r1, #1048576	; 0x100000
  40919e:	bd30      	popcc	{r4, r5, pc}
  4091a0:	f001 4500 	and.w	r5, r1, #2147483648	; 0x80000000
  4091a4:	f045 41fe 	orr.w	r1, r5, #2130706432	; 0x7f000000
  4091a8:	f441 0170 	orr.w	r1, r1, #15728640	; 0xf00000
  4091ac:	f04f 0000 	mov.w	r0, #0
  4091b0:	bd30      	pop	{r4, r5, pc}
  4091b2:	ea7f 5c64 	mvns.w	ip, r4, asr #21
  4091b6:	bf1a      	itte	ne
  4091b8:	4619      	movne	r1, r3
  4091ba:	4610      	movne	r0, r2
  4091bc:	ea7f 5c65 	mvnseq.w	ip, r5, asr #21
  4091c0:	bf1c      	itt	ne
  4091c2:	460b      	movne	r3, r1
  4091c4:	4602      	movne	r2, r0
  4091c6:	ea50 3401 	orrs.w	r4, r0, r1, lsl #12
  4091ca:	bf06      	itte	eq
  4091cc:	ea52 3503 	orrseq.w	r5, r2, r3, lsl #12
  4091d0:	ea91 0f03 	teqeq	r1, r3
  4091d4:	f441 2100 	orrne.w	r1, r1, #524288	; 0x80000
  4091d8:	bd30      	pop	{r4, r5, pc}
  4091da:	bf00      	nop

004091dc <__aeabi_ui2d>:
  4091dc:	f090 0f00 	teq	r0, #0
  4091e0:	bf04      	itt	eq
  4091e2:	2100      	moveq	r1, #0
  4091e4:	4770      	bxeq	lr
  4091e6:	b530      	push	{r4, r5, lr}
  4091e8:	f44f 6480 	mov.w	r4, #1024	; 0x400
  4091ec:	f104 0432 	add.w	r4, r4, #50	; 0x32
  4091f0:	f04f 0500 	mov.w	r5, #0
  4091f4:	f04f 0100 	mov.w	r1, #0
  4091f8:	e750      	b.n	40909c <__adddf3+0x138>
  4091fa:	bf00      	nop

004091fc <__aeabi_i2d>:
  4091fc:	f090 0f00 	teq	r0, #0
  409200:	bf04      	itt	eq
  409202:	2100      	moveq	r1, #0
  409204:	4770      	bxeq	lr
  409206:	b530      	push	{r4, r5, lr}
  409208:	f44f 6480 	mov.w	r4, #1024	; 0x400
  40920c:	f104 0432 	add.w	r4, r4, #50	; 0x32
  409210:	f010 4500 	ands.w	r5, r0, #2147483648	; 0x80000000
  409214:	bf48      	it	mi
  409216:	4240      	negmi	r0, r0
  409218:	f04f 0100 	mov.w	r1, #0
  40921c:	e73e      	b.n	40909c <__adddf3+0x138>
  40921e:	bf00      	nop

00409220 <__aeabi_f2d>:
  409220:	0042      	lsls	r2, r0, #1
  409222:	ea4f 01e2 	mov.w	r1, r2, asr #3
  409226:	ea4f 0131 	mov.w	r1, r1, rrx
  40922a:	ea4f 7002 	mov.w	r0, r2, lsl #28
  40922e:	bf1f      	itttt	ne
  409230:	f012 437f 	andsne.w	r3, r2, #4278190080	; 0xff000000
  409234:	f093 4f7f 	teqne	r3, #4278190080	; 0xff000000
  409238:	f081 5160 	eorne.w	r1, r1, #939524096	; 0x38000000
  40923c:	4770      	bxne	lr
  40923e:	f092 0f00 	teq	r2, #0
  409242:	bf14      	ite	ne
  409244:	f093 4f7f 	teqne	r3, #4278190080	; 0xff000000
  409248:	4770      	bxeq	lr
  40924a:	b530      	push	{r4, r5, lr}
  40924c:	f44f 7460 	mov.w	r4, #896	; 0x380
  409250:	f001 4500 	and.w	r5, r1, #2147483648	; 0x80000000
  409254:	f021 4100 	bic.w	r1, r1, #2147483648	; 0x80000000
  409258:	e720      	b.n	40909c <__adddf3+0x138>
  40925a:	bf00      	nop

0040925c <__aeabi_ul2d>:
  40925c:	ea50 0201 	orrs.w	r2, r0, r1
  409260:	bf08      	it	eq
  409262:	4770      	bxeq	lr
  409264:	b530      	push	{r4, r5, lr}
  409266:	f04f 0500 	mov.w	r5, #0
  40926a:	e00a      	b.n	409282 <__aeabi_l2d+0x16>

0040926c <__aeabi_l2d>:
  40926c:	ea50 0201 	orrs.w	r2, r0, r1
  409270:	bf08      	it	eq
  409272:	4770      	bxeq	lr
  409274:	b530      	push	{r4, r5, lr}
  409276:	f011 4500 	ands.w	r5, r1, #2147483648	; 0x80000000
  40927a:	d502      	bpl.n	409282 <__aeabi_l2d+0x16>
  40927c:	4240      	negs	r0, r0
  40927e:	eb61 0141 	sbc.w	r1, r1, r1, lsl #1
  409282:	f44f 6480 	mov.w	r4, #1024	; 0x400
  409286:	f104 0432 	add.w	r4, r4, #50	; 0x32
  40928a:	ea5f 5c91 	movs.w	ip, r1, lsr #22
  40928e:	f43f aedc 	beq.w	40904a <__adddf3+0xe6>
  409292:	f04f 0203 	mov.w	r2, #3
  409296:	ea5f 0cdc 	movs.w	ip, ip, lsr #3
  40929a:	bf18      	it	ne
  40929c:	3203      	addne	r2, #3
  40929e:	ea5f 0cdc 	movs.w	ip, ip, lsr #3
  4092a2:	bf18      	it	ne
  4092a4:	3203      	addne	r2, #3
  4092a6:	eb02 02dc 	add.w	r2, r2, ip, lsr #3
  4092aa:	f1c2 0320 	rsb	r3, r2, #32
  4092ae:	fa00 fc03 	lsl.w	ip, r0, r3
  4092b2:	fa20 f002 	lsr.w	r0, r0, r2
  4092b6:	fa01 fe03 	lsl.w	lr, r1, r3
  4092ba:	ea40 000e 	orr.w	r0, r0, lr
  4092be:	fa21 f102 	lsr.w	r1, r1, r2
  4092c2:	4414      	add	r4, r2
  4092c4:	e6c1      	b.n	40904a <__adddf3+0xe6>
  4092c6:	bf00      	nop

004092c8 <__aeabi_dmul>:
  4092c8:	b570      	push	{r4, r5, r6, lr}
  4092ca:	f04f 0cff 	mov.w	ip, #255	; 0xff
  4092ce:	f44c 6ce0 	orr.w	ip, ip, #1792	; 0x700
  4092d2:	ea1c 5411 	ands.w	r4, ip, r1, lsr #20
  4092d6:	bf1d      	ittte	ne
  4092d8:	ea1c 5513 	andsne.w	r5, ip, r3, lsr #20
  4092dc:	ea94 0f0c 	teqne	r4, ip
  4092e0:	ea95 0f0c 	teqne	r5, ip
  4092e4:	f000 f8de 	bleq	4094a4 <__aeabi_dmul+0x1dc>
  4092e8:	442c      	add	r4, r5
  4092ea:	ea81 0603 	eor.w	r6, r1, r3
  4092ee:	ea21 514c 	bic.w	r1, r1, ip, lsl #21
  4092f2:	ea23 534c 	bic.w	r3, r3, ip, lsl #21
  4092f6:	ea50 3501 	orrs.w	r5, r0, r1, lsl #12
  4092fa:	bf18      	it	ne
  4092fc:	ea52 3503 	orrsne.w	r5, r2, r3, lsl #12
  409300:	f441 1180 	orr.w	r1, r1, #1048576	; 0x100000
  409304:	f443 1380 	orr.w	r3, r3, #1048576	; 0x100000
  409308:	d038      	beq.n	40937c <__aeabi_dmul+0xb4>
  40930a:	fba0 ce02 	umull	ip, lr, r0, r2
  40930e:	f04f 0500 	mov.w	r5, #0
  409312:	fbe1 e502 	umlal	lr, r5, r1, r2
  409316:	f006 4200 	and.w	r2, r6, #2147483648	; 0x80000000
  40931a:	fbe0 e503 	umlal	lr, r5, r0, r3
  40931e:	f04f 0600 	mov.w	r6, #0
  409322:	fbe1 5603 	umlal	r5, r6, r1, r3
  409326:	f09c 0f00 	teq	ip, #0
  40932a:	bf18      	it	ne
  40932c:	f04e 0e01 	orrne.w	lr, lr, #1
  409330:	f1a4 04ff 	sub.w	r4, r4, #255	; 0xff
  409334:	f5b6 7f00 	cmp.w	r6, #512	; 0x200
  409338:	f564 7440 	sbc.w	r4, r4, #768	; 0x300
  40933c:	d204      	bcs.n	409348 <__aeabi_dmul+0x80>
  40933e:	ea5f 0e4e 	movs.w	lr, lr, lsl #1
  409342:	416d      	adcs	r5, r5
  409344:	eb46 0606 	adc.w	r6, r6, r6
  409348:	ea42 21c6 	orr.w	r1, r2, r6, lsl #11
  40934c:	ea41 5155 	orr.w	r1, r1, r5, lsr #21
  409350:	ea4f 20c5 	mov.w	r0, r5, lsl #11
  409354:	ea40 505e 	orr.w	r0, r0, lr, lsr #21
  409358:	ea4f 2ece 	mov.w	lr, lr, lsl #11
  40935c:	f1b4 0cfd 	subs.w	ip, r4, #253	; 0xfd
  409360:	bf88      	it	hi
  409362:	f5bc 6fe0 	cmphi.w	ip, #1792	; 0x700
  409366:	d81e      	bhi.n	4093a6 <__aeabi_dmul+0xde>
  409368:	f1be 4f00 	cmp.w	lr, #2147483648	; 0x80000000
  40936c:	bf08      	it	eq
  40936e:	ea5f 0e50 	movseq.w	lr, r0, lsr #1
  409372:	f150 0000 	adcs.w	r0, r0, #0
  409376:	eb41 5104 	adc.w	r1, r1, r4, lsl #20
  40937a:	bd70      	pop	{r4, r5, r6, pc}
  40937c:	f006 4600 	and.w	r6, r6, #2147483648	; 0x80000000
  409380:	ea46 0101 	orr.w	r1, r6, r1
  409384:	ea40 0002 	orr.w	r0, r0, r2
  409388:	ea81 0103 	eor.w	r1, r1, r3
  40938c:	ebb4 045c 	subs.w	r4, r4, ip, lsr #1
  409390:	bfc2      	ittt	gt
  409392:	ebd4 050c 	rsbsgt	r5, r4, ip
  409396:	ea41 5104 	orrgt.w	r1, r1, r4, lsl #20
  40939a:	bd70      	popgt	{r4, r5, r6, pc}
  40939c:	f441 1180 	orr.w	r1, r1, #1048576	; 0x100000
  4093a0:	f04f 0e00 	mov.w	lr, #0
  4093a4:	3c01      	subs	r4, #1
  4093a6:	f300 80ab 	bgt.w	409500 <__aeabi_dmul+0x238>
  4093aa:	f114 0f36 	cmn.w	r4, #54	; 0x36
  4093ae:	bfde      	ittt	le
  4093b0:	2000      	movle	r0, #0
  4093b2:	f001 4100 	andle.w	r1, r1, #2147483648	; 0x80000000
  4093b6:	bd70      	pople	{r4, r5, r6, pc}
  4093b8:	f1c4 0400 	rsb	r4, r4, #0
  4093bc:	3c20      	subs	r4, #32
  4093be:	da35      	bge.n	40942c <__aeabi_dmul+0x164>
  4093c0:	340c      	adds	r4, #12
  4093c2:	dc1b      	bgt.n	4093fc <__aeabi_dmul+0x134>
  4093c4:	f104 0414 	add.w	r4, r4, #20
  4093c8:	f1c4 0520 	rsb	r5, r4, #32
  4093cc:	fa00 f305 	lsl.w	r3, r0, r5
  4093d0:	fa20 f004 	lsr.w	r0, r0, r4
  4093d4:	fa01 f205 	lsl.w	r2, r1, r5
  4093d8:	ea40 0002 	orr.w	r0, r0, r2
  4093dc:	f001 4200 	and.w	r2, r1, #2147483648	; 0x80000000
  4093e0:	f021 4100 	bic.w	r1, r1, #2147483648	; 0x80000000
  4093e4:	eb10 70d3 	adds.w	r0, r0, r3, lsr #31
  4093e8:	fa21 f604 	lsr.w	r6, r1, r4
  4093ec:	eb42 0106 	adc.w	r1, r2, r6
  4093f0:	ea5e 0e43 	orrs.w	lr, lr, r3, lsl #1
  4093f4:	bf08      	it	eq
  4093f6:	ea20 70d3 	biceq.w	r0, r0, r3, lsr #31
  4093fa:	bd70      	pop	{r4, r5, r6, pc}
  4093fc:	f1c4 040c 	rsb	r4, r4, #12
  409400:	f1c4 0520 	rsb	r5, r4, #32
  409404:	fa00 f304 	lsl.w	r3, r0, r4
  409408:	fa20 f005 	lsr.w	r0, r0, r5
  40940c:	fa01 f204 	lsl.w	r2, r1, r4
  409410:	ea40 0002 	orr.w	r0, r0, r2
  409414:	f001 4100 	and.w	r1, r1, #2147483648	; 0x80000000
  409418:	eb10 70d3 	adds.w	r0, r0, r3, lsr #31
  40941c:	f141 0100 	adc.w	r1, r1, #0
  409420:	ea5e 0e43 	orrs.w	lr, lr, r3, lsl #1
  409424:	bf08      	it	eq
  409426:	ea20 70d3 	biceq.w	r0, r0, r3, lsr #31
  40942a:	bd70      	pop	{r4, r5, r6, pc}
  40942c:	f1c4 0520 	rsb	r5, r4, #32
  409430:	fa00 f205 	lsl.w	r2, r0, r5
  409434:	ea4e 0e02 	orr.w	lr, lr, r2
  409438:	fa20 f304 	lsr.w	r3, r0, r4
  40943c:	fa01 f205 	lsl.w	r2, r1, r5
  409440:	ea43 0302 	orr.w	r3, r3, r2
  409444:	fa21 f004 	lsr.w	r0, r1, r4
  409448:	f001 4100 	and.w	r1, r1, #2147483648	; 0x80000000
  40944c:	fa21 f204 	lsr.w	r2, r1, r4
  409450:	ea20 0002 	bic.w	r0, r0, r2
  409454:	eb00 70d3 	add.w	r0, r0, r3, lsr #31
  409458:	ea5e 0e43 	orrs.w	lr, lr, r3, lsl #1
  40945c:	bf08      	it	eq
  40945e:	ea20 70d3 	biceq.w	r0, r0, r3, lsr #31
  409462:	bd70      	pop	{r4, r5, r6, pc}
  409464:	f094 0f00 	teq	r4, #0
  409468:	d10f      	bne.n	40948a <__aeabi_dmul+0x1c2>
  40946a:	f001 4600 	and.w	r6, r1, #2147483648	; 0x80000000
  40946e:	0040      	lsls	r0, r0, #1
  409470:	eb41 0101 	adc.w	r1, r1, r1
  409474:	f411 1f80 	tst.w	r1, #1048576	; 0x100000
  409478:	bf08      	it	eq
  40947a:	3c01      	subeq	r4, #1
  40947c:	d0f7      	beq.n	40946e <__aeabi_dmul+0x1a6>
  40947e:	ea41 0106 	orr.w	r1, r1, r6
  409482:	f095 0f00 	teq	r5, #0
  409486:	bf18      	it	ne
  409488:	4770      	bxne	lr
  40948a:	f003 4600 	and.w	r6, r3, #2147483648	; 0x80000000
  40948e:	0052      	lsls	r2, r2, #1
  409490:	eb43 0303 	adc.w	r3, r3, r3
  409494:	f413 1f80 	tst.w	r3, #1048576	; 0x100000
  409498:	bf08      	it	eq
  40949a:	3d01      	subeq	r5, #1
  40949c:	d0f7      	beq.n	40948e <__aeabi_dmul+0x1c6>
  40949e:	ea43 0306 	orr.w	r3, r3, r6
  4094a2:	4770      	bx	lr
  4094a4:	ea94 0f0c 	teq	r4, ip
  4094a8:	ea0c 5513 	and.w	r5, ip, r3, lsr #20
  4094ac:	bf18      	it	ne
  4094ae:	ea95 0f0c 	teqne	r5, ip
  4094b2:	d00c      	beq.n	4094ce <__aeabi_dmul+0x206>
  4094b4:	ea50 0641 	orrs.w	r6, r0, r1, lsl #1
  4094b8:	bf18      	it	ne
  4094ba:	ea52 0643 	orrsne.w	r6, r2, r3, lsl #1
  4094be:	d1d1      	bne.n	409464 <__aeabi_dmul+0x19c>
  4094c0:	ea81 0103 	eor.w	r1, r1, r3
  4094c4:	f001 4100 	and.w	r1, r1, #2147483648	; 0x80000000
  4094c8:	f04f 0000 	mov.w	r0, #0
  4094cc:	bd70      	pop	{r4, r5, r6, pc}
  4094ce:	ea50 0641 	orrs.w	r6, r0, r1, lsl #1
  4094d2:	bf06      	itte	eq
  4094d4:	4610      	moveq	r0, r2
  4094d6:	4619      	moveq	r1, r3
  4094d8:	ea52 0643 	orrsne.w	r6, r2, r3, lsl #1
  4094dc:	d019      	beq.n	409512 <__aeabi_dmul+0x24a>
  4094de:	ea94 0f0c 	teq	r4, ip
  4094e2:	d102      	bne.n	4094ea <__aeabi_dmul+0x222>
  4094e4:	ea50 3601 	orrs.w	r6, r0, r1, lsl #12
  4094e8:	d113      	bne.n	409512 <__aeabi_dmul+0x24a>
  4094ea:	ea95 0f0c 	teq	r5, ip
  4094ee:	d105      	bne.n	4094fc <__aeabi_dmul+0x234>
  4094f0:	ea52 3603 	orrs.w	r6, r2, r3, lsl #12
  4094f4:	bf1c      	itt	ne
  4094f6:	4610      	movne	r0, r2
  4094f8:	4619      	movne	r1, r3
  4094fa:	d10a      	bne.n	409512 <__aeabi_dmul+0x24a>
  4094fc:	ea81 0103 	eor.w	r1, r1, r3
  409500:	f001 4100 	and.w	r1, r1, #2147483648	; 0x80000000
  409504:	f041 41fe 	orr.w	r1, r1, #2130706432	; 0x7f000000
  409508:	f441 0170 	orr.w	r1, r1, #15728640	; 0xf00000
  40950c:	f04f 0000 	mov.w	r0, #0
  409510:	bd70      	pop	{r4, r5, r6, pc}
  409512:	f041 41fe 	orr.w	r1, r1, #2130706432	; 0x7f000000
  409516:	f441 0178 	orr.w	r1, r1, #16252928	; 0xf80000
  40951a:	bd70      	pop	{r4, r5, r6, pc}

0040951c <__aeabi_ddiv>:
  40951c:	b570      	push	{r4, r5, r6, lr}
  40951e:	f04f 0cff 	mov.w	ip, #255	; 0xff
  409522:	f44c 6ce0 	orr.w	ip, ip, #1792	; 0x700
  409526:	ea1c 5411 	ands.w	r4, ip, r1, lsr #20
  40952a:	bf1d      	ittte	ne
  40952c:	ea1c 5513 	andsne.w	r5, ip, r3, lsr #20
  409530:	ea94 0f0c 	teqne	r4, ip
  409534:	ea95 0f0c 	teqne	r5, ip
  409538:	f000 f8a7 	bleq	40968a <__aeabi_ddiv+0x16e>
  40953c:	eba4 0405 	sub.w	r4, r4, r5
  409540:	ea81 0e03 	eor.w	lr, r1, r3
  409544:	ea52 3503 	orrs.w	r5, r2, r3, lsl #12
  409548:	ea4f 3101 	mov.w	r1, r1, lsl #12
  40954c:	f000 8088 	beq.w	409660 <__aeabi_ddiv+0x144>
  409550:	ea4f 3303 	mov.w	r3, r3, lsl #12
  409554:	f04f 5580 	mov.w	r5, #268435456	; 0x10000000
  409558:	ea45 1313 	orr.w	r3, r5, r3, lsr #4
  40955c:	ea43 6312 	orr.w	r3, r3, r2, lsr #24
  409560:	ea4f 2202 	mov.w	r2, r2, lsl #8
  409564:	ea45 1511 	orr.w	r5, r5, r1, lsr #4
  409568:	ea45 6510 	orr.w	r5, r5, r0, lsr #24
  40956c:	ea4f 2600 	mov.w	r6, r0, lsl #8
  409570:	f00e 4100 	and.w	r1, lr, #2147483648	; 0x80000000
  409574:	429d      	cmp	r5, r3
  409576:	bf08      	it	eq
  409578:	4296      	cmpeq	r6, r2
  40957a:	f144 04fd 	adc.w	r4, r4, #253	; 0xfd
  40957e:	f504 7440 	add.w	r4, r4, #768	; 0x300
  409582:	d202      	bcs.n	40958a <__aeabi_ddiv+0x6e>
  409584:	085b      	lsrs	r3, r3, #1
  409586:	ea4f 0232 	mov.w	r2, r2, rrx
  40958a:	1ab6      	subs	r6, r6, r2
  40958c:	eb65 0503 	sbc.w	r5, r5, r3
  409590:	085b      	lsrs	r3, r3, #1
  409592:	ea4f 0232 	mov.w	r2, r2, rrx
  409596:	f44f 1080 	mov.w	r0, #1048576	; 0x100000
  40959a:	f44f 2c00 	mov.w	ip, #524288	; 0x80000
  40959e:	ebb6 0e02 	subs.w	lr, r6, r2
  4095a2:	eb75 0e03 	sbcs.w	lr, r5, r3
  4095a6:	bf22      	ittt	cs
  4095a8:	1ab6      	subcs	r6, r6, r2
  4095aa:	4675      	movcs	r5, lr
  4095ac:	ea40 000c 	orrcs.w	r0, r0, ip
  4095b0:	085b      	lsrs	r3, r3, #1
  4095b2:	ea4f 0232 	mov.w	r2, r2, rrx
  4095b6:	ebb6 0e02 	subs.w	lr, r6, r2
  4095ba:	eb75 0e03 	sbcs.w	lr, r5, r3
  4095be:	bf22      	ittt	cs
  4095c0:	1ab6      	subcs	r6, r6, r2
  4095c2:	4675      	movcs	r5, lr
  4095c4:	ea40 005c 	orrcs.w	r0, r0, ip, lsr #1
  4095c8:	085b      	lsrs	r3, r3, #1
  4095ca:	ea4f 0232 	mov.w	r2, r2, rrx
  4095ce:	ebb6 0e02 	subs.w	lr, r6, r2
  4095d2:	eb75 0e03 	sbcs.w	lr, r5, r3
  4095d6:	bf22      	ittt	cs
  4095d8:	1ab6      	subcs	r6, r6, r2
  4095da:	4675      	movcs	r5, lr
  4095dc:	ea40 009c 	orrcs.w	r0, r0, ip, lsr #2
  4095e0:	085b      	lsrs	r3, r3, #1
  4095e2:	ea4f 0232 	mov.w	r2, r2, rrx
  4095e6:	ebb6 0e02 	subs.w	lr, r6, r2
  4095ea:	eb75 0e03 	sbcs.w	lr, r5, r3
  4095ee:	bf22      	ittt	cs
  4095f0:	1ab6      	subcs	r6, r6, r2
  4095f2:	4675      	movcs	r5, lr
  4095f4:	ea40 00dc 	orrcs.w	r0, r0, ip, lsr #3
  4095f8:	ea55 0e06 	orrs.w	lr, r5, r6
  4095fc:	d018      	beq.n	409630 <__aeabi_ddiv+0x114>
  4095fe:	ea4f 1505 	mov.w	r5, r5, lsl #4
  409602:	ea45 7516 	orr.w	r5, r5, r6, lsr #28
  409606:	ea4f 1606 	mov.w	r6, r6, lsl #4
  40960a:	ea4f 03c3 	mov.w	r3, r3, lsl #3
  40960e:	ea43 7352 	orr.w	r3, r3, r2, lsr #29
  409612:	ea4f 02c2 	mov.w	r2, r2, lsl #3
  409616:	ea5f 1c1c 	movs.w	ip, ip, lsr #4
  40961a:	d1c0      	bne.n	40959e <__aeabi_ddiv+0x82>
  40961c:	f411 1f80 	tst.w	r1, #1048576	; 0x100000
  409620:	d10b      	bne.n	40963a <__aeabi_ddiv+0x11e>
  409622:	ea41 0100 	orr.w	r1, r1, r0
  409626:	f04f 0000 	mov.w	r0, #0
  40962a:	f04f 4c00 	mov.w	ip, #2147483648	; 0x80000000
  40962e:	e7b6      	b.n	40959e <__aeabi_ddiv+0x82>
  409630:	f411 1f80 	tst.w	r1, #1048576	; 0x100000
  409634:	bf04      	itt	eq
  409636:	4301      	orreq	r1, r0
  409638:	2000      	moveq	r0, #0
  40963a:	f1b4 0cfd 	subs.w	ip, r4, #253	; 0xfd
  40963e:	bf88      	it	hi
  409640:	f5bc 6fe0 	cmphi.w	ip, #1792	; 0x700
  409644:	f63f aeaf 	bhi.w	4093a6 <__aeabi_dmul+0xde>
  409648:	ebb5 0c03 	subs.w	ip, r5, r3
  40964c:	bf04      	itt	eq
  40964e:	ebb6 0c02 	subseq.w	ip, r6, r2
  409652:	ea5f 0c50 	movseq.w	ip, r0, lsr #1
  409656:	f150 0000 	adcs.w	r0, r0, #0
  40965a:	eb41 5104 	adc.w	r1, r1, r4, lsl #20
  40965e:	bd70      	pop	{r4, r5, r6, pc}
  409660:	f00e 4e00 	and.w	lr, lr, #2147483648	; 0x80000000
  409664:	ea4e 3111 	orr.w	r1, lr, r1, lsr #12
  409668:	eb14 045c 	adds.w	r4, r4, ip, lsr #1
  40966c:	bfc2      	ittt	gt
  40966e:	ebd4 050c 	rsbsgt	r5, r4, ip
  409672:	ea41 5104 	orrgt.w	r1, r1, r4, lsl #20
  409676:	bd70      	popgt	{r4, r5, r6, pc}
  409678:	f441 1180 	orr.w	r1, r1, #1048576	; 0x100000
  40967c:	f04f 0e00 	mov.w	lr, #0
  409680:	3c01      	subs	r4, #1
  409682:	e690      	b.n	4093a6 <__aeabi_dmul+0xde>
  409684:	ea45 0e06 	orr.w	lr, r5, r6
  409688:	e68d      	b.n	4093a6 <__aeabi_dmul+0xde>
  40968a:	ea0c 5513 	and.w	r5, ip, r3, lsr #20
  40968e:	ea94 0f0c 	teq	r4, ip
  409692:	bf08      	it	eq
  409694:	ea95 0f0c 	teqeq	r5, ip
  409698:	f43f af3b 	beq.w	409512 <__aeabi_dmul+0x24a>
  40969c:	ea94 0f0c 	teq	r4, ip
  4096a0:	d10a      	bne.n	4096b8 <__aeabi_ddiv+0x19c>
  4096a2:	ea50 3401 	orrs.w	r4, r0, r1, lsl #12
  4096a6:	f47f af34 	bne.w	409512 <__aeabi_dmul+0x24a>
  4096aa:	ea95 0f0c 	teq	r5, ip
  4096ae:	f47f af25 	bne.w	4094fc <__aeabi_dmul+0x234>
  4096b2:	4610      	mov	r0, r2
  4096b4:	4619      	mov	r1, r3
  4096b6:	e72c      	b.n	409512 <__aeabi_dmul+0x24a>
  4096b8:	ea95 0f0c 	teq	r5, ip
  4096bc:	d106      	bne.n	4096cc <__aeabi_ddiv+0x1b0>
  4096be:	ea52 3503 	orrs.w	r5, r2, r3, lsl #12
  4096c2:	f43f aefd 	beq.w	4094c0 <__aeabi_dmul+0x1f8>
  4096c6:	4610      	mov	r0, r2
  4096c8:	4619      	mov	r1, r3
  4096ca:	e722      	b.n	409512 <__aeabi_dmul+0x24a>
  4096cc:	ea50 0641 	orrs.w	r6, r0, r1, lsl #1
  4096d0:	bf18      	it	ne
  4096d2:	ea52 0643 	orrsne.w	r6, r2, r3, lsl #1
  4096d6:	f47f aec5 	bne.w	409464 <__aeabi_dmul+0x19c>
  4096da:	ea50 0441 	orrs.w	r4, r0, r1, lsl #1
  4096de:	f47f af0d 	bne.w	4094fc <__aeabi_dmul+0x234>
  4096e2:	ea52 0543 	orrs.w	r5, r2, r3, lsl #1
  4096e6:	f47f aeeb 	bne.w	4094c0 <__aeabi_dmul+0x1f8>
  4096ea:	e712      	b.n	409512 <__aeabi_dmul+0x24a>

004096ec <__gedf2>:
  4096ec:	f04f 3cff 	mov.w	ip, #4294967295
  4096f0:	e006      	b.n	409700 <__cmpdf2+0x4>
  4096f2:	bf00      	nop

004096f4 <__ledf2>:
  4096f4:	f04f 0c01 	mov.w	ip, #1
  4096f8:	e002      	b.n	409700 <__cmpdf2+0x4>
  4096fa:	bf00      	nop

004096fc <__cmpdf2>:
  4096fc:	f04f 0c01 	mov.w	ip, #1
  409700:	f84d cd04 	str.w	ip, [sp, #-4]!
  409704:	ea4f 0c41 	mov.w	ip, r1, lsl #1
  409708:	ea7f 5c6c 	mvns.w	ip, ip, asr #21
  40970c:	ea4f 0c43 	mov.w	ip, r3, lsl #1
  409710:	bf18      	it	ne
  409712:	ea7f 5c6c 	mvnsne.w	ip, ip, asr #21
  409716:	d01b      	beq.n	409750 <__cmpdf2+0x54>
  409718:	b001      	add	sp, #4
  40971a:	ea50 0c41 	orrs.w	ip, r0, r1, lsl #1
  40971e:	bf0c      	ite	eq
  409720:	ea52 0c43 	orrseq.w	ip, r2, r3, lsl #1
  409724:	ea91 0f03 	teqne	r1, r3
  409728:	bf02      	ittt	eq
  40972a:	ea90 0f02 	teqeq	r0, r2
  40972e:	2000      	moveq	r0, #0
  409730:	4770      	bxeq	lr
  409732:	f110 0f00 	cmn.w	r0, #0
  409736:	ea91 0f03 	teq	r1, r3
  40973a:	bf58      	it	pl
  40973c:	4299      	cmppl	r1, r3
  40973e:	bf08      	it	eq
  409740:	4290      	cmpeq	r0, r2
  409742:	bf2c      	ite	cs
  409744:	17d8      	asrcs	r0, r3, #31
  409746:	ea6f 70e3 	mvncc.w	r0, r3, asr #31
  40974a:	f040 0001 	orr.w	r0, r0, #1
  40974e:	4770      	bx	lr
  409750:	ea4f 0c41 	mov.w	ip, r1, lsl #1
  409754:	ea7f 5c6c 	mvns.w	ip, ip, asr #21
  409758:	d102      	bne.n	409760 <__cmpdf2+0x64>
  40975a:	ea50 3c01 	orrs.w	ip, r0, r1, lsl #12
  40975e:	d107      	bne.n	409770 <__cmpdf2+0x74>
  409760:	ea4f 0c43 	mov.w	ip, r3, lsl #1
  409764:	ea7f 5c6c 	mvns.w	ip, ip, asr #21
  409768:	d1d6      	bne.n	409718 <__cmpdf2+0x1c>
  40976a:	ea52 3c03 	orrs.w	ip, r2, r3, lsl #12
  40976e:	d0d3      	beq.n	409718 <__cmpdf2+0x1c>
  409770:	f85d 0b04 	ldr.w	r0, [sp], #4
  409774:	4770      	bx	lr
  409776:	bf00      	nop

00409778 <__aeabi_cdrcmple>:
  409778:	4684      	mov	ip, r0
  40977a:	4610      	mov	r0, r2
  40977c:	4662      	mov	r2, ip
  40977e:	468c      	mov	ip, r1
  409780:	4619      	mov	r1, r3
  409782:	4663      	mov	r3, ip
  409784:	e000      	b.n	409788 <__aeabi_cdcmpeq>
  409786:	bf00      	nop

00409788 <__aeabi_cdcmpeq>:
  409788:	b501      	push	{r0, lr}
  40978a:	f7ff ffb7 	bl	4096fc <__cmpdf2>
  40978e:	2800      	cmp	r0, #0
  409790:	bf48      	it	mi
  409792:	f110 0f00 	cmnmi.w	r0, #0
  409796:	bd01      	pop	{r0, pc}

00409798 <__aeabi_dcmpeq>:
  409798:	f84d ed08 	str.w	lr, [sp, #-8]!
  40979c:	f7ff fff4 	bl	409788 <__aeabi_cdcmpeq>
  4097a0:	bf0c      	ite	eq
  4097a2:	2001      	moveq	r0, #1
  4097a4:	2000      	movne	r0, #0
  4097a6:	f85d fb08 	ldr.w	pc, [sp], #8
  4097aa:	bf00      	nop

004097ac <__aeabi_dcmplt>:
  4097ac:	f84d ed08 	str.w	lr, [sp, #-8]!
  4097b0:	f7ff ffea 	bl	409788 <__aeabi_cdcmpeq>
  4097b4:	bf34      	ite	cc
  4097b6:	2001      	movcc	r0, #1
  4097b8:	2000      	movcs	r0, #0
  4097ba:	f85d fb08 	ldr.w	pc, [sp], #8
  4097be:	bf00      	nop

004097c0 <__aeabi_dcmple>:
  4097c0:	f84d ed08 	str.w	lr, [sp, #-8]!
  4097c4:	f7ff ffe0 	bl	409788 <__aeabi_cdcmpeq>
  4097c8:	bf94      	ite	ls
  4097ca:	2001      	movls	r0, #1
  4097cc:	2000      	movhi	r0, #0
  4097ce:	f85d fb08 	ldr.w	pc, [sp], #8
  4097d2:	bf00      	nop

004097d4 <__aeabi_dcmpge>:
  4097d4:	f84d ed08 	str.w	lr, [sp, #-8]!
  4097d8:	f7ff ffce 	bl	409778 <__aeabi_cdrcmple>
  4097dc:	bf94      	ite	ls
  4097de:	2001      	movls	r0, #1
  4097e0:	2000      	movhi	r0, #0
  4097e2:	f85d fb08 	ldr.w	pc, [sp], #8
  4097e6:	bf00      	nop

004097e8 <__aeabi_dcmpgt>:
  4097e8:	f84d ed08 	str.w	lr, [sp, #-8]!
  4097ec:	f7ff ffc4 	bl	409778 <__aeabi_cdrcmple>
  4097f0:	bf34      	ite	cc
  4097f2:	2001      	movcc	r0, #1
  4097f4:	2000      	movcs	r0, #0
  4097f6:	f85d fb08 	ldr.w	pc, [sp], #8
  4097fa:	bf00      	nop

004097fc <__aeabi_dcmpun>:
  4097fc:	ea4f 0c41 	mov.w	ip, r1, lsl #1
  409800:	ea7f 5c6c 	mvns.w	ip, ip, asr #21
  409804:	d102      	bne.n	40980c <__aeabi_dcmpun+0x10>
  409806:	ea50 3c01 	orrs.w	ip, r0, r1, lsl #12
  40980a:	d10a      	bne.n	409822 <__aeabi_dcmpun+0x26>
  40980c:	ea4f 0c43 	mov.w	ip, r3, lsl #1
  409810:	ea7f 5c6c 	mvns.w	ip, ip, asr #21
  409814:	d102      	bne.n	40981c <__aeabi_dcmpun+0x20>
  409816:	ea52 3c03 	orrs.w	ip, r2, r3, lsl #12
  40981a:	d102      	bne.n	409822 <__aeabi_dcmpun+0x26>
  40981c:	f04f 0000 	mov.w	r0, #0
  409820:	4770      	bx	lr
  409822:	f04f 0001 	mov.w	r0, #1
  409826:	4770      	bx	lr

00409828 <__aeabi_d2iz>:
  409828:	ea4f 0241 	mov.w	r2, r1, lsl #1
  40982c:	f512 1200 	adds.w	r2, r2, #2097152	; 0x200000
  409830:	d215      	bcs.n	40985e <__aeabi_d2iz+0x36>
  409832:	d511      	bpl.n	409858 <__aeabi_d2iz+0x30>
  409834:	f46f 7378 	mvn.w	r3, #992	; 0x3e0
  409838:	ebb3 5262 	subs.w	r2, r3, r2, asr #21
  40983c:	d912      	bls.n	409864 <__aeabi_d2iz+0x3c>
  40983e:	ea4f 23c1 	mov.w	r3, r1, lsl #11
  409842:	f043 4300 	orr.w	r3, r3, #2147483648	; 0x80000000
  409846:	ea43 5350 	orr.w	r3, r3, r0, lsr #21
  40984a:	f011 4f00 	tst.w	r1, #2147483648	; 0x80000000
  40984e:	fa23 f002 	lsr.w	r0, r3, r2
  409852:	bf18      	it	ne
  409854:	4240      	negne	r0, r0
  409856:	4770      	bx	lr
  409858:	f04f 0000 	mov.w	r0, #0
  40985c:	4770      	bx	lr
  40985e:	ea50 3001 	orrs.w	r0, r0, r1, lsl #12
  409862:	d105      	bne.n	409870 <__aeabi_d2iz+0x48>
  409864:	f011 4000 	ands.w	r0, r1, #2147483648	; 0x80000000
  409868:	bf08      	it	eq
  40986a:	f06f 4000 	mvneq.w	r0, #2147483648	; 0x80000000
  40986e:	4770      	bx	lr
  409870:	f04f 0000 	mov.w	r0, #0
  409874:	4770      	bx	lr
  409876:	bf00      	nop

00409878 <__aeabi_uldivmod>:
  409878:	b953      	cbnz	r3, 409890 <__aeabi_uldivmod+0x18>
  40987a:	b94a      	cbnz	r2, 409890 <__aeabi_uldivmod+0x18>
  40987c:	2900      	cmp	r1, #0
  40987e:	bf08      	it	eq
  409880:	2800      	cmpeq	r0, #0
  409882:	bf1c      	itt	ne
  409884:	f04f 31ff 	movne.w	r1, #4294967295
  409888:	f04f 30ff 	movne.w	r0, #4294967295
  40988c:	f000 b97a 	b.w	409b84 <__aeabi_idiv0>
  409890:	f1ad 0c08 	sub.w	ip, sp, #8
  409894:	e96d ce04 	strd	ip, lr, [sp, #-16]!
  409898:	f000 f806 	bl	4098a8 <__udivmoddi4>
  40989c:	f8dd e004 	ldr.w	lr, [sp, #4]
  4098a0:	e9dd 2302 	ldrd	r2, r3, [sp, #8]
  4098a4:	b004      	add	sp, #16
  4098a6:	4770      	bx	lr

004098a8 <__udivmoddi4>:
  4098a8:	e92d 47f0 	stmdb	sp!, {r4, r5, r6, r7, r8, r9, sl, lr}
  4098ac:	468c      	mov	ip, r1
  4098ae:	460d      	mov	r5, r1
  4098b0:	4604      	mov	r4, r0
  4098b2:	9e08      	ldr	r6, [sp, #32]
  4098b4:	2b00      	cmp	r3, #0
  4098b6:	d151      	bne.n	40995c <__udivmoddi4+0xb4>
  4098b8:	428a      	cmp	r2, r1
  4098ba:	4617      	mov	r7, r2
  4098bc:	d96d      	bls.n	40999a <__udivmoddi4+0xf2>
  4098be:	fab2 fe82 	clz	lr, r2
  4098c2:	f1be 0f00 	cmp.w	lr, #0
  4098c6:	d00b      	beq.n	4098e0 <__udivmoddi4+0x38>
  4098c8:	f1ce 0c20 	rsb	ip, lr, #32
  4098cc:	fa01 f50e 	lsl.w	r5, r1, lr
  4098d0:	fa20 fc0c 	lsr.w	ip, r0, ip
  4098d4:	fa02 f70e 	lsl.w	r7, r2, lr
  4098d8:	ea4c 0c05 	orr.w	ip, ip, r5
  4098dc:	fa00 f40e 	lsl.w	r4, r0, lr
  4098e0:	ea4f 4a17 	mov.w	sl, r7, lsr #16
  4098e4:	0c25      	lsrs	r5, r4, #16
  4098e6:	fbbc f8fa 	udiv	r8, ip, sl
  4098ea:	fa1f f987 	uxth.w	r9, r7
  4098ee:	fb0a cc18 	mls	ip, sl, r8, ip
  4098f2:	ea45 450c 	orr.w	r5, r5, ip, lsl #16
  4098f6:	fb08 f309 	mul.w	r3, r8, r9
  4098fa:	42ab      	cmp	r3, r5
  4098fc:	d90a      	bls.n	409914 <__udivmoddi4+0x6c>
  4098fe:	19ed      	adds	r5, r5, r7
  409900:	f108 32ff 	add.w	r2, r8, #4294967295
  409904:	f080 8123 	bcs.w	409b4e <__udivmoddi4+0x2a6>
  409908:	42ab      	cmp	r3, r5
  40990a:	f240 8120 	bls.w	409b4e <__udivmoddi4+0x2a6>
  40990e:	f1a8 0802 	sub.w	r8, r8, #2
  409912:	443d      	add	r5, r7
  409914:	1aed      	subs	r5, r5, r3
  409916:	b2a4      	uxth	r4, r4
  409918:	fbb5 f0fa 	udiv	r0, r5, sl
  40991c:	fb0a 5510 	mls	r5, sl, r0, r5
  409920:	ea44 4405 	orr.w	r4, r4, r5, lsl #16
  409924:	fb00 f909 	mul.w	r9, r0, r9
  409928:	45a1      	cmp	r9, r4
  40992a:	d909      	bls.n	409940 <__udivmoddi4+0x98>
  40992c:	19e4      	adds	r4, r4, r7
  40992e:	f100 33ff 	add.w	r3, r0, #4294967295
  409932:	f080 810a 	bcs.w	409b4a <__udivmoddi4+0x2a2>
  409936:	45a1      	cmp	r9, r4
  409938:	f240 8107 	bls.w	409b4a <__udivmoddi4+0x2a2>
  40993c:	3802      	subs	r0, #2
  40993e:	443c      	add	r4, r7
  409940:	eba4 0409 	sub.w	r4, r4, r9
  409944:	ea40 4008 	orr.w	r0, r0, r8, lsl #16
  409948:	2100      	movs	r1, #0
  40994a:	2e00      	cmp	r6, #0
  40994c:	d061      	beq.n	409a12 <__udivmoddi4+0x16a>
  40994e:	fa24 f40e 	lsr.w	r4, r4, lr
  409952:	2300      	movs	r3, #0
  409954:	6034      	str	r4, [r6, #0]
  409956:	6073      	str	r3, [r6, #4]
  409958:	e8bd 87f0 	ldmia.w	sp!, {r4, r5, r6, r7, r8, r9, sl, pc}
  40995c:	428b      	cmp	r3, r1
  40995e:	d907      	bls.n	409970 <__udivmoddi4+0xc8>
  409960:	2e00      	cmp	r6, #0
  409962:	d054      	beq.n	409a0e <__udivmoddi4+0x166>
  409964:	2100      	movs	r1, #0
  409966:	e886 0021 	stmia.w	r6, {r0, r5}
  40996a:	4608      	mov	r0, r1
  40996c:	e8bd 87f0 	ldmia.w	sp!, {r4, r5, r6, r7, r8, r9, sl, pc}
  409970:	fab3 f183 	clz	r1, r3
  409974:	2900      	cmp	r1, #0
  409976:	f040 808e 	bne.w	409a96 <__udivmoddi4+0x1ee>
  40997a:	42ab      	cmp	r3, r5
  40997c:	d302      	bcc.n	409984 <__udivmoddi4+0xdc>
  40997e:	4282      	cmp	r2, r0
  409980:	f200 80fa 	bhi.w	409b78 <__udivmoddi4+0x2d0>
  409984:	1a84      	subs	r4, r0, r2
  409986:	eb65 0503 	sbc.w	r5, r5, r3
  40998a:	2001      	movs	r0, #1
  40998c:	46ac      	mov	ip, r5
  40998e:	2e00      	cmp	r6, #0
  409990:	d03f      	beq.n	409a12 <__udivmoddi4+0x16a>
  409992:	e886 1010 	stmia.w	r6, {r4, ip}
  409996:	e8bd 87f0 	ldmia.w	sp!, {r4, r5, r6, r7, r8, r9, sl, pc}
  40999a:	b912      	cbnz	r2, 4099a2 <__udivmoddi4+0xfa>
  40999c:	2701      	movs	r7, #1
  40999e:	fbb7 f7f2 	udiv	r7, r7, r2
  4099a2:	fab7 fe87 	clz	lr, r7
  4099a6:	f1be 0f00 	cmp.w	lr, #0
  4099aa:	d134      	bne.n	409a16 <__udivmoddi4+0x16e>
  4099ac:	1beb      	subs	r3, r5, r7
  4099ae:	0c3a      	lsrs	r2, r7, #16
  4099b0:	fa1f fc87 	uxth.w	ip, r7
  4099b4:	2101      	movs	r1, #1
  4099b6:	fbb3 f8f2 	udiv	r8, r3, r2
  4099ba:	0c25      	lsrs	r5, r4, #16
  4099bc:	fb02 3318 	mls	r3, r2, r8, r3
  4099c0:	ea45 4503 	orr.w	r5, r5, r3, lsl #16
  4099c4:	fb0c f308 	mul.w	r3, ip, r8
  4099c8:	42ab      	cmp	r3, r5
  4099ca:	d907      	bls.n	4099dc <__udivmoddi4+0x134>
  4099cc:	19ed      	adds	r5, r5, r7
  4099ce:	f108 30ff 	add.w	r0, r8, #4294967295
  4099d2:	d202      	bcs.n	4099da <__udivmoddi4+0x132>
  4099d4:	42ab      	cmp	r3, r5
  4099d6:	f200 80d1 	bhi.w	409b7c <__udivmoddi4+0x2d4>
  4099da:	4680      	mov	r8, r0
  4099dc:	1aed      	subs	r5, r5, r3
  4099de:	b2a3      	uxth	r3, r4
  4099e0:	fbb5 f0f2 	udiv	r0, r5, r2
  4099e4:	fb02 5510 	mls	r5, r2, r0, r5
  4099e8:	ea43 4405 	orr.w	r4, r3, r5, lsl #16
  4099ec:	fb0c fc00 	mul.w	ip, ip, r0
  4099f0:	45a4      	cmp	ip, r4
  4099f2:	d907      	bls.n	409a04 <__udivmoddi4+0x15c>
  4099f4:	19e4      	adds	r4, r4, r7
  4099f6:	f100 33ff 	add.w	r3, r0, #4294967295
  4099fa:	d202      	bcs.n	409a02 <__udivmoddi4+0x15a>
  4099fc:	45a4      	cmp	ip, r4
  4099fe:	f200 80b8 	bhi.w	409b72 <__udivmoddi4+0x2ca>
  409a02:	4618      	mov	r0, r3
  409a04:	eba4 040c 	sub.w	r4, r4, ip
  409a08:	ea40 4008 	orr.w	r0, r0, r8, lsl #16
  409a0c:	e79d      	b.n	40994a <__udivmoddi4+0xa2>
  409a0e:	4631      	mov	r1, r6
  409a10:	4630      	mov	r0, r6
  409a12:	e8bd 87f0 	ldmia.w	sp!, {r4, r5, r6, r7, r8, r9, sl, pc}
  409a16:	f1ce 0420 	rsb	r4, lr, #32
  409a1a:	fa05 f30e 	lsl.w	r3, r5, lr
  409a1e:	fa07 f70e 	lsl.w	r7, r7, lr
  409a22:	fa20 f804 	lsr.w	r8, r0, r4
  409a26:	0c3a      	lsrs	r2, r7, #16
  409a28:	fa25 f404 	lsr.w	r4, r5, r4
  409a2c:	ea48 0803 	orr.w	r8, r8, r3
  409a30:	fbb4 f1f2 	udiv	r1, r4, r2
  409a34:	ea4f 4518 	mov.w	r5, r8, lsr #16
  409a38:	fb02 4411 	mls	r4, r2, r1, r4
  409a3c:	fa1f fc87 	uxth.w	ip, r7
  409a40:	ea45 4504 	orr.w	r5, r5, r4, lsl #16
  409a44:	fb01 f30c 	mul.w	r3, r1, ip
  409a48:	42ab      	cmp	r3, r5
  409a4a:	fa00 f40e 	lsl.w	r4, r0, lr
  409a4e:	d909      	bls.n	409a64 <__udivmoddi4+0x1bc>
  409a50:	19ed      	adds	r5, r5, r7
  409a52:	f101 30ff 	add.w	r0, r1, #4294967295
  409a56:	f080 808a 	bcs.w	409b6e <__udivmoddi4+0x2c6>
  409a5a:	42ab      	cmp	r3, r5
  409a5c:	f240 8087 	bls.w	409b6e <__udivmoddi4+0x2c6>
  409a60:	3902      	subs	r1, #2
  409a62:	443d      	add	r5, r7
  409a64:	1aeb      	subs	r3, r5, r3
  409a66:	fa1f f588 	uxth.w	r5, r8
  409a6a:	fbb3 f0f2 	udiv	r0, r3, r2
  409a6e:	fb02 3310 	mls	r3, r2, r0, r3
  409a72:	ea45 4503 	orr.w	r5, r5, r3, lsl #16
  409a76:	fb00 f30c 	mul.w	r3, r0, ip
  409a7a:	42ab      	cmp	r3, r5
  409a7c:	d907      	bls.n	409a8e <__udivmoddi4+0x1e6>
  409a7e:	19ed      	adds	r5, r5, r7
  409a80:	f100 38ff 	add.w	r8, r0, #4294967295
  409a84:	d26f      	bcs.n	409b66 <__udivmoddi4+0x2be>
  409a86:	42ab      	cmp	r3, r5
  409a88:	d96d      	bls.n	409b66 <__udivmoddi4+0x2be>
  409a8a:	3802      	subs	r0, #2
  409a8c:	443d      	add	r5, r7
  409a8e:	1aeb      	subs	r3, r5, r3
  409a90:	ea40 4101 	orr.w	r1, r0, r1, lsl #16
  409a94:	e78f      	b.n	4099b6 <__udivmoddi4+0x10e>
  409a96:	f1c1 0720 	rsb	r7, r1, #32
  409a9a:	fa22 f807 	lsr.w	r8, r2, r7
  409a9e:	408b      	lsls	r3, r1
  409aa0:	fa05 f401 	lsl.w	r4, r5, r1
  409aa4:	ea48 0303 	orr.w	r3, r8, r3
  409aa8:	fa20 fe07 	lsr.w	lr, r0, r7
  409aac:	ea4f 4c13 	mov.w	ip, r3, lsr #16
  409ab0:	40fd      	lsrs	r5, r7
  409ab2:	ea4e 0e04 	orr.w	lr, lr, r4
  409ab6:	fbb5 f9fc 	udiv	r9, r5, ip
  409aba:	ea4f 441e 	mov.w	r4, lr, lsr #16
  409abe:	fb0c 5519 	mls	r5, ip, r9, r5
  409ac2:	fa1f f883 	uxth.w	r8, r3
  409ac6:	ea44 4505 	orr.w	r5, r4, r5, lsl #16
  409aca:	fb09 f408 	mul.w	r4, r9, r8
  409ace:	42ac      	cmp	r4, r5
  409ad0:	fa02 f201 	lsl.w	r2, r2, r1
  409ad4:	fa00 fa01 	lsl.w	sl, r0, r1
  409ad8:	d908      	bls.n	409aec <__udivmoddi4+0x244>
  409ada:	18ed      	adds	r5, r5, r3
  409adc:	f109 30ff 	add.w	r0, r9, #4294967295
  409ae0:	d243      	bcs.n	409b6a <__udivmoddi4+0x2c2>
  409ae2:	42ac      	cmp	r4, r5
  409ae4:	d941      	bls.n	409b6a <__udivmoddi4+0x2c2>
  409ae6:	f1a9 0902 	sub.w	r9, r9, #2
  409aea:	441d      	add	r5, r3
  409aec:	1b2d      	subs	r5, r5, r4
  409aee:	fa1f fe8e 	uxth.w	lr, lr
  409af2:	fbb5 f0fc 	udiv	r0, r5, ip
  409af6:	fb0c 5510 	mls	r5, ip, r0, r5
  409afa:	ea4e 4405 	orr.w	r4, lr, r5, lsl #16
  409afe:	fb00 f808 	mul.w	r8, r0, r8
  409b02:	45a0      	cmp	r8, r4
  409b04:	d907      	bls.n	409b16 <__udivmoddi4+0x26e>
  409b06:	18e4      	adds	r4, r4, r3
  409b08:	f100 35ff 	add.w	r5, r0, #4294967295
  409b0c:	d229      	bcs.n	409b62 <__udivmoddi4+0x2ba>
  409b0e:	45a0      	cmp	r8, r4
  409b10:	d927      	bls.n	409b62 <__udivmoddi4+0x2ba>
  409b12:	3802      	subs	r0, #2
  409b14:	441c      	add	r4, r3
  409b16:	ea40 4009 	orr.w	r0, r0, r9, lsl #16
  409b1a:	eba4 0408 	sub.w	r4, r4, r8
  409b1e:	fba0 8902 	umull	r8, r9, r0, r2
  409b22:	454c      	cmp	r4, r9
  409b24:	46c6      	mov	lr, r8
  409b26:	464d      	mov	r5, r9
  409b28:	d315      	bcc.n	409b56 <__udivmoddi4+0x2ae>
  409b2a:	d012      	beq.n	409b52 <__udivmoddi4+0x2aa>
  409b2c:	b156      	cbz	r6, 409b44 <__udivmoddi4+0x29c>
  409b2e:	ebba 030e 	subs.w	r3, sl, lr
  409b32:	eb64 0405 	sbc.w	r4, r4, r5
  409b36:	fa04 f707 	lsl.w	r7, r4, r7
  409b3a:	40cb      	lsrs	r3, r1
  409b3c:	431f      	orrs	r7, r3
  409b3e:	40cc      	lsrs	r4, r1
  409b40:	6037      	str	r7, [r6, #0]
  409b42:	6074      	str	r4, [r6, #4]
  409b44:	2100      	movs	r1, #0
  409b46:	e8bd 87f0 	ldmia.w	sp!, {r4, r5, r6, r7, r8, r9, sl, pc}
  409b4a:	4618      	mov	r0, r3
  409b4c:	e6f8      	b.n	409940 <__udivmoddi4+0x98>
  409b4e:	4690      	mov	r8, r2
  409b50:	e6e0      	b.n	409914 <__udivmoddi4+0x6c>
  409b52:	45c2      	cmp	sl, r8
  409b54:	d2ea      	bcs.n	409b2c <__udivmoddi4+0x284>
  409b56:	ebb8 0e02 	subs.w	lr, r8, r2
  409b5a:	eb69 0503 	sbc.w	r5, r9, r3
  409b5e:	3801      	subs	r0, #1
  409b60:	e7e4      	b.n	409b2c <__udivmoddi4+0x284>
  409b62:	4628      	mov	r0, r5
  409b64:	e7d7      	b.n	409b16 <__udivmoddi4+0x26e>
  409b66:	4640      	mov	r0, r8
  409b68:	e791      	b.n	409a8e <__udivmoddi4+0x1e6>
  409b6a:	4681      	mov	r9, r0
  409b6c:	e7be      	b.n	409aec <__udivmoddi4+0x244>
  409b6e:	4601      	mov	r1, r0
  409b70:	e778      	b.n	409a64 <__udivmoddi4+0x1bc>
  409b72:	3802      	subs	r0, #2
  409b74:	443c      	add	r4, r7
  409b76:	e745      	b.n	409a04 <__udivmoddi4+0x15c>
  409b78:	4608      	mov	r0, r1
  409b7a:	e708      	b.n	40998e <__udivmoddi4+0xe6>
  409b7c:	f1a8 0802 	sub.w	r8, r8, #2
  409b80:	443d      	add	r5, r7
  409b82:	e72b      	b.n	4099dc <__udivmoddi4+0x134>

00409b84 <__aeabi_idiv0>:
  409b84:	4770      	bx	lr
  409b86:	bf00      	nop

00409b88 <sysfont_glyphs>:
  409b88:	0000 0000 0000 2000 2020 2020 2000 5050     .......     . PP
  409b98:	0050 0000 5000 f850 f850 5050 7820 70a0     P....PP.P.PP x.p
  409ba8:	f028 c020 10c8 4020 1898 9060 40a0 90a8     (. ... @..`..@..
  409bb8:	6068 4020 0000 0000 2010 4040 2040 4010     h` @..... @@@ .@
  409bc8:	1020 1010 4020 5000 f820 5020 0000 2020      ... @.P . P..  
  409bd8:	20f8 0020 0000 0000 2060 0040 0000 00f8     .  .....` @.....
  409be8:	0000 0000 0000 6000 0060 1008 4020 0080     .......``... @..
  409bf8:	8870 a898 88c8 2070 2060 2020 7020 8870     p.....p `    pp.
  409c08:	1008 4020 f8f8 2010 0810 7088 3010 9050     .. @... ...p.0P.
  409c18:	10f8 f810 f080 0808 7088 4030 f080 8888     .........p0@....
  409c28:	f870 1008 4020 4040 8870 7088 8888 7070     p... @@@p..p..pp
  409c38:	8888 0878 6010 6000 0060 6060 0000 6060     ..x..`.``.``..``
  409c48:	6000 4020 1008 4020 1020 0008 f800 f800     .` @.. @ .......
  409c58:	0000 4080 1020 4020 7080 0888 2010 2000     ...@ . @.p... . 
  409c68:	8870 6808 a8a8 7070 8888 f888 8888 88f0     p..h..pp........
  409c78:	f088 8888 70f0 8088 8080 7088 90e0 8888     .....p.....p....
  409c88:	9088 f8e0 8080 80f0 f880 80f8 e080 8080     ................
  409c98:	7080 8088 9880 7088 8888 f888 8888 7088     .p.....p.......p
  409ca8:	2020 2020 7020 1038 1010 9010 8860 a090          p8.....`...
  409cb8:	a0c0 8890 8080 8080 8080 88f8 a8d8 8888     ................
  409cc8:	8888 8888 a8c8 8898 7088 8888 8888 7088     .........p.....p
  409cd8:	88f0 f088 8080 7080 8888 a888 6890 88f0     .......p.....h..
  409ce8:	f088 90a0 7888 8080 0870 f008 20f8 2020     .....x..p....   
  409cf8:	2020 8820 8888 8888 7088 8888 8888 5088        ......p.....P
  409d08:	8820 8888 a8a8 88d8 8888 2050 8850 8888      .........P P...
  409d18:	5088 2020 2020 08f8 2010 8040 38f8 2020     .P    ... @..8  
  409d28:	2020 3820 8000 2040 0810 e000 2020 2020        8..@ ....    
  409d38:	e020 5020 0088 0000 0000 0000 0000 f800      . P............
  409d48:	2040 0010 0000 0000 7000 7808 7888 8080     @ .......p.x.x..
  409d58:	c8b0 8888 00f0 7000 8080 7088 0808 9868     .......p...p..h.
  409d68:	8888 0078 7000 f888 7080 4830 e040 4040     ..x..p...p0H@.@@
  409d78:	0040 7800 7888 3008 8080 c8b0 8888 2088     @..x.x.0....... 
  409d88:	6000 2020 7020 0010 1030 9010 4060 4840     .`   p..0...`@@H
  409d98:	6050 4850 2060 2020 2020 0070 d000 a8a8     P`PH`     p.....
  409da8:	8888 0000 c8b0 8888 0088 7000 8888 7088     ...........p...p
  409db8:	0000 88f0 80f0 0080 6800 7898 0808 0000     .........h.x....
  409dc8:	c8b0 8080 0080 7000 7080 f008 4040 40e0     .......p.p..@@.@
  409dd8:	4840 0030 8800 8888 6898 0000 8888 5088     @H0......h.....P
  409de8:	0020 8800 a888 50a8 0000 5088 5020 0088      ......P...P P..
  409df8:	8800 7888 7008 0000 10f8 4020 10f8 2020     ...x.p.... @..  
  409e08:	2040 1020 2020 2020 2020 4020 2020 2010     @  .       @  . 
  409e18:	4020 0000 4449 454c 0000 0000 6d54 5172      @..IDLE....TmrQ
  409e28:	0000 0000 6d54 2072 7653 0063 6166 686c     ....Tmr Svc.falh
  409e38:	2061 6d65 6320 6972 7261 6f20 6620 6c69     a em criar o fil
  409e48:	2061 6f6d 6f64 000a 6166 686c 2061 6d65     a modo..falha em
  409e58:	6320 6972 7261 6f20 6620 6c69 2061 7473      criar o fila st
  409e68:	7065 0a73 0000 0000 6166 686c 2061 6d65     eps.....falha em
  409e78:	6320 6972 7261 6f20 7320 6d65 6661 726f      criar o semafor
  409e88:	206f 5452 0a54 0000 6f6d 6f64 0000 0000     o RTT...modo....
  409e98:	6146 6c69 6465 7420 206f 7263 6165 6574     Failed to create
  409ea8:	6d20 646f 206f 6174 6b73 0a0d 0000 0000      modo task......
  409eb8:	6f6d 6f74 0072 0000 6146 6c69 6465 7420     motor...Failed t
  409ec8:	206f 7263 6165 6574 6d20 746f 726f 7420     o create motor t
  409ed8:	7361 0d6b 000a 0000 6f4d 6f74 2072 6564     ask.....Motor de
  409ee8:	7020 7361 6f73 0073 2020 2020 2020 2020      passos.        
  409ef8:	2020 2020 2020 2020 0020 0000 6425 6420              ...%d d
  409f08:	6765 6572 7365 0000 7453 7065 3a73 2520     egrees..Steps: %
  409f18:	0a64 0000 7473 6361 206b 766f 7265 6c66     d...stack overfl
  409f28:	776f 2520 2078 7325 0a0d 0000               ow %x %s....

00409f34 <_global_impure_ptr>:
  409f34:	0028 2040 4e49 0046 6e69 0066 414e 004e     (.@ INF.inf.NAN.
  409f44:	616e 006e 3130 3332 3534 3736 3938 4241     nan.0123456789AB
  409f54:	4443 4645 0000 0000 3130 3332 3534 3736     CDEF....01234567
  409f64:	3938 6261 6463 6665 0000 0000 6e28 6c75     89abcdef....(nul
  409f74:	296c 0000 0030 0000                         l)..0...

00409f7c <blanks.7223>:
  409f7c:	2020 2020 2020 2020 2020 2020 2020 2020                     

00409f8c <zeroes.7224>:
  409f8c:	3030 3030 3030 3030 3030 3030 3030 3030     0000000000000000

00409f9c <blanks.7217>:
  409f9c:	2020 2020 2020 2020 2020 2020 2020 2020                     

00409fac <zeroes.7218>:
  409fac:	3030 3030 3030 3030 3030 3030 3030 3030     0000000000000000
  409fbc:	6e49 6966 696e 7974 0000 0000 614e 004e     Infinity....NaN.
  409fcc:	0043 0000 4f50 4953 0058 0000 002e 0000     C...POSIX.......
  409fdc:	0000 0000                                   ....

00409fe0 <__mprec_bigtens>:
  409fe0:	8000 37e0 c379 4341 6e17 b505 b8b5 4693     ...7y.AC.n.....F
  409ff0:	f9f5 e93f 4f03 4d38 1d32 f930 7748 5a82     ..?..O8M2.0.Hw.Z
  40a000:	bf3c 7f73 4fdd 7515                         <.s..O.u

0040a008 <__mprec_tens>:
  40a008:	0000 0000 0000 3ff0 0000 0000 0000 4024     .......?......$@
  40a018:	0000 0000 0000 4059 0000 0000 4000 408f     ......Y@.....@.@
  40a028:	0000 0000 8800 40c3 0000 0000 6a00 40f8     .......@.....j.@
  40a038:	0000 0000 8480 412e 0000 0000 12d0 4163     .......A......cA
  40a048:	0000 0000 d784 4197 0000 0000 cd65 41cd     .......A....e..A
  40a058:	0000 2000 a05f 4202 0000 e800 4876 4237     ... _..B....vH7B
  40a068:	0000 a200 1a94 426d 0000 e540 309c 42a2     ......mB..@..0.B
  40a078:	0000 1e90 bcc4 42d6 0000 2634 6bf5 430c     .......B..4&.k.C
  40a088:	8000 37e0 c379 4341 a000 85d8 3457 4376     ...7y.AC....W4vC
  40a098:	c800 674e c16d 43ab 3d00 6091 58e4 43e1     ..Ngm..C.=.`.X.C
  40a0a8:	8c40 78b5 af1d 4415 ef50 d6e2 1ae4 444b     @..x...DP.....KD
  40a0b8:	d592 064d f0cf 4480 4af6 c7e1 2d02 44b5     ..M....D.J...-.D
  40a0c8:	9db4 79d9 7843 44ea                         ...yCx.D

0040a0d0 <p05.6055>:
  40a0d0:	0005 0000 0019 0000 007d 0000               ........}...

0040a0dc <_ctype_>:
  40a0dc:	2000 2020 2020 2020 2020 2828 2828 2028     .         ((((( 
  40a0ec:	2020 2020 2020 2020 2020 2020 2020 2020                     
  40a0fc:	8820 1010 1010 1010 1010 1010 1010 1010      ...............
  40a10c:	0410 0404 0404 0404 0404 1004 1010 1010     ................
  40a11c:	1010 4141 4141 4141 0101 0101 0101 0101     ..AAAAAA........
  40a12c:	0101 0101 0101 0101 0101 0101 1010 1010     ................
  40a13c:	1010 4242 4242 4242 0202 0202 0202 0202     ..BBBBBB........
  40a14c:	0202 0202 0202 0202 0202 0202 1010 1010     ................
  40a15c:	0020 0000 0000 0000 0000 0000 0000 0000      ...............
	...

0040a1e0 <_init>:
  40a1e0:	b5f8      	push	{r3, r4, r5, r6, r7, lr}
  40a1e2:	bf00      	nop
  40a1e4:	bcf8      	pop	{r3, r4, r5, r6, r7}
  40a1e6:	bc08      	pop	{r3}
  40a1e8:	469e      	mov	lr, r3
  40a1ea:	4770      	bx	lr

0040a1ec <__init_array_start>:
  40a1ec:	004064d5 	.word	0x004064d5

0040a1f0 <__frame_dummy_init_array_entry>:
  40a1f0:	00400165                                e.@.

0040a1f4 <_fini>:
  40a1f4:	b5f8      	push	{r3, r4, r5, r6, r7, lr}
  40a1f6:	bf00      	nop
  40a1f8:	bcf8      	pop	{r3, r4, r5, r6, r7}
  40a1fa:	bc08      	pop	{r3}
  40a1fc:	469e      	mov	lr, r3
  40a1fe:	4770      	bx	lr

0040a200 <__fini_array_start>:
  40a200:	00400141 	.word	0x00400141

Disassembly of section .relocate:

20400000 <portable_delay_cycles>:
RAMFUNC
void portable_delay_cycles(unsigned long n)
{
	UNUSED(n);

	__asm (
20400000:	f3bf 8f5f 	dmb	sy
20400004:	3801      	subs	r0, #1
20400006:	d1fb      	bne.n	20400000 <portable_delay_cycles>
20400008:	4770      	bx	lr
	...

2040000c <sysfont>:
2040000c:	0000 0000 9b88 0040 0706 7d20               ......@... }

20400018 <g_interrupt_enabled>:
20400018:	0001 0000                                   ....

2040001c <SystemCoreClock>:
2040001c:	0900 003d                                   ..=.

20400020 <uxCriticalNesting>:
20400020:	aaaa aaaa                                   ....

20400024 <_impure_ptr>:
20400024:	0028 2040                                   (.@ 

20400028 <impure_data>:
20400028:	0000 0000 0314 2040 037c 2040 03e4 2040     ......@ |.@ ..@ 
	...
204000d0:	0001 0000 0000 0000 330e abcd 1234 e66d     .........3..4.m.
204000e0:	deec 0005 000b 0000 0000 0000 0000 0000     ................
	...

20400450 <__malloc_av_>:
	...
20400458:	0450 2040 0450 2040 0458 2040 0458 2040     P.@ P.@ X.@ X.@ 
20400468:	0460 2040 0460 2040 0468 2040 0468 2040     `.@ `.@ h.@ h.@ 
20400478:	0470 2040 0470 2040 0478 2040 0478 2040     p.@ p.@ x.@ x.@ 
20400488:	0480 2040 0480 2040 0488 2040 0488 2040     ..@ ..@ ..@ ..@ 
20400498:	0490 2040 0490 2040 0498 2040 0498 2040     ..@ ..@ ..@ ..@ 
204004a8:	04a0 2040 04a0 2040 04a8 2040 04a8 2040     ..@ ..@ ..@ ..@ 
204004b8:	04b0 2040 04b0 2040 04b8 2040 04b8 2040     ..@ ..@ ..@ ..@ 
204004c8:	04c0 2040 04c0 2040 04c8 2040 04c8 2040     ..@ ..@ ..@ ..@ 
204004d8:	04d0 2040 04d0 2040 04d8 2040 04d8 2040     ..@ ..@ ..@ ..@ 
204004e8:	04e0 2040 04e0 2040 04e8 2040 04e8 2040     ..@ ..@ ..@ ..@ 
204004f8:	04f0 2040 04f0 2040 04f8 2040 04f8 2040     ..@ ..@ ..@ ..@ 
20400508:	0500 2040 0500 2040 0508 2040 0508 2040     ..@ ..@ ..@ ..@ 
20400518:	0510 2040 0510 2040 0518 2040 0518 2040     ..@ ..@ ..@ ..@ 
20400528:	0520 2040 0520 2040 0528 2040 0528 2040      .@  .@ (.@ (.@ 
20400538:	0530 2040 0530 2040 0538 2040 0538 2040     0.@ 0.@ 8.@ 8.@ 
20400548:	0540 2040 0540 2040 0548 2040 0548 2040     @.@ @.@ H.@ H.@ 
20400558:	0550 2040 0550 2040 0558 2040 0558 2040     P.@ P.@ X.@ X.@ 
20400568:	0560 2040 0560 2040 0568 2040 0568 2040     `.@ `.@ h.@ h.@ 
20400578:	0570 2040 0570 2040 0578 2040 0578 2040     p.@ p.@ x.@ x.@ 
20400588:	0580 2040 0580 2040 0588 2040 0588 2040     ..@ ..@ ..@ ..@ 
20400598:	0590 2040 0590 2040 0598 2040 0598 2040     ..@ ..@ ..@ ..@ 
204005a8:	05a0 2040 05a0 2040 05a8 2040 05a8 2040     ..@ ..@ ..@ ..@ 
204005b8:	05b0 2040 05b0 2040 05b8 2040 05b8 2040     ..@ ..@ ..@ ..@ 
204005c8:	05c0 2040 05c0 2040 05c8 2040 05c8 2040     ..@ ..@ ..@ ..@ 
204005d8:	05d0 2040 05d0 2040 05d8 2040 05d8 2040     ..@ ..@ ..@ ..@ 
204005e8:	05e0 2040 05e0 2040 05e8 2040 05e8 2040     ..@ ..@ ..@ ..@ 
204005f8:	05f0 2040 05f0 2040 05f8 2040 05f8 2040     ..@ ..@ ..@ ..@ 
20400608:	0600 2040 0600 2040 0608 2040 0608 2040     ..@ ..@ ..@ ..@ 
20400618:	0610 2040 0610 2040 0618 2040 0618 2040     ..@ ..@ ..@ ..@ 
20400628:	0620 2040 0620 2040 0628 2040 0628 2040      .@  .@ (.@ (.@ 
20400638:	0630 2040 0630 2040 0638 2040 0638 2040     0.@ 0.@ 8.@ 8.@ 
20400648:	0640 2040 0640 2040 0648 2040 0648 2040     @.@ @.@ H.@ H.@ 
20400658:	0650 2040 0650 2040 0658 2040 0658 2040     P.@ P.@ X.@ X.@ 
20400668:	0660 2040 0660 2040 0668 2040 0668 2040     `.@ `.@ h.@ h.@ 
20400678:	0670 2040 0670 2040 0678 2040 0678 2040     p.@ p.@ x.@ x.@ 
20400688:	0680 2040 0680 2040 0688 2040 0688 2040     ..@ ..@ ..@ ..@ 
20400698:	0690 2040 0690 2040 0698 2040 0698 2040     ..@ ..@ ..@ ..@ 
204006a8:	06a0 2040 06a0 2040 06a8 2040 06a8 2040     ..@ ..@ ..@ ..@ 
204006b8:	06b0 2040 06b0 2040 06b8 2040 06b8 2040     ..@ ..@ ..@ ..@ 
204006c8:	06c0 2040 06c0 2040 06c8 2040 06c8 2040     ..@ ..@ ..@ ..@ 
204006d8:	06d0 2040 06d0 2040 06d8 2040 06d8 2040     ..@ ..@ ..@ ..@ 
204006e8:	06e0 2040 06e0 2040 06e8 2040 06e8 2040     ..@ ..@ ..@ ..@ 
204006f8:	06f0 2040 06f0 2040 06f8 2040 06f8 2040     ..@ ..@ ..@ ..@ 
20400708:	0700 2040 0700 2040 0708 2040 0708 2040     ..@ ..@ ..@ ..@ 
20400718:	0710 2040 0710 2040 0718 2040 0718 2040     ..@ ..@ ..@ ..@ 
20400728:	0720 2040 0720 2040 0728 2040 0728 2040      .@  .@ (.@ (.@ 
20400738:	0730 2040 0730 2040 0738 2040 0738 2040     0.@ 0.@ 8.@ 8.@ 
20400748:	0740 2040 0740 2040 0748 2040 0748 2040     @.@ @.@ H.@ H.@ 
20400758:	0750 2040 0750 2040 0758 2040 0758 2040     P.@ P.@ X.@ X.@ 
20400768:	0760 2040 0760 2040 0768 2040 0768 2040     `.@ `.@ h.@ h.@ 
20400778:	0770 2040 0770 2040 0778 2040 0778 2040     p.@ p.@ x.@ x.@ 
20400788:	0780 2040 0780 2040 0788 2040 0788 2040     ..@ ..@ ..@ ..@ 
20400798:	0790 2040 0790 2040 0798 2040 0798 2040     ..@ ..@ ..@ ..@ 
204007a8:	07a0 2040 07a0 2040 07a8 2040 07a8 2040     ..@ ..@ ..@ ..@ 
204007b8:	07b0 2040 07b0 2040 07b8 2040 07b8 2040     ..@ ..@ ..@ ..@ 
204007c8:	07c0 2040 07c0 2040 07c8 2040 07c8 2040     ..@ ..@ ..@ ..@ 
204007d8:	07d0 2040 07d0 2040 07d8 2040 07d8 2040     ..@ ..@ ..@ ..@ 
204007e8:	07e0 2040 07e0 2040 07e8 2040 07e8 2040     ..@ ..@ ..@ ..@ 
204007f8:	07f0 2040 07f0 2040 07f8 2040 07f8 2040     ..@ ..@ ..@ ..@ 
20400808:	0800 2040 0800 2040 0808 2040 0808 2040     ..@ ..@ ..@ ..@ 
20400818:	0810 2040 0810 2040 0818 2040 0818 2040     ..@ ..@ ..@ ..@ 
20400828:	0820 2040 0820 2040 0828 2040 0828 2040      .@  .@ (.@ (.@ 
20400838:	0830 2040 0830 2040 0838 2040 0838 2040     0.@ 0.@ 8.@ 8.@ 
20400848:	0840 2040 0840 2040 0848 2040 0848 2040     @.@ @.@ H.@ H.@ 

20400858 <__malloc_sbrk_base>:
20400858:	ffff ffff                                   ....

2040085c <__malloc_trim_threshold>:
2040085c:	0000 0002                                   ....

20400860 <__atexit_recursive_mutex>:
20400860:	0e38 2040                                   8.@ 

20400864 <__global_locale>:
20400864:	0043 0000 0000 0000 0000 0000 0000 0000     C...............
	...
20400884:	0043 0000 0000 0000 0000 0000 0000 0000     C...............
	...
204008a4:	0043 0000 0000 0000 0000 0000 0000 0000     C...............
	...
204008c4:	0043 0000 0000 0000 0000 0000 0000 0000     C...............
	...
204008e4:	0043 0000 0000 0000 0000 0000 0000 0000     C...............
	...
20400904:	0043 0000 0000 0000 0000 0000 0000 0000     C...............
	...
20400924:	0043 0000 0000 0000 0000 0000 0000 0000     C...............
	...
20400944:	8c61 0040 7ef9 0040 0000 0000 a0dc 0040     a.@..~@.......@.
20400954:	9fd8 0040 9eb4 0040 9eb4 0040 9eb4 0040     ..@...@...@...@.
20400964:	9eb4 0040 9eb4 0040 9eb4 0040 9eb4 0040     ..@...@...@...@.
20400974:	9eb4 0040 9eb4 0040 ffff ffff ffff ffff     ..@...@.........
20400984:	ffff ffff ffff 0000 0001 5341 4943 0049     ..........ASCII.
	...
204009ac:	0000 5341 4943 0049 0000 0000 0000 0000     ..ASCII.........
	...
